

HI-TECH Software PIC LITE Macro Assembler V9.82 build 9453 
                                                                                               Wed May 29 09:46:09 2019

HI-TECH Software Omniscient Code Generator (Lite mode) build 9453
     1  0000                     opt subtitle "HI-TECH Software Omniscient Code Generator (Lite mode) build 9453"
     2                           
     3                           opt pagewidth 120
     4                           
     5                           	opt lm
     6                           
     7                           	processor	16F887
     8                           clrc	macro
     9                           	bcf	3,0
    10  0000                     	endm
    11                           clrz	macro
    12                           	bcf	3,2
    13  0000                     	endm
    14                           setc	macro
    15                           	bsf	3,0
    16  0000                     	endm
    17                           setz	macro
    18                           	bsf	3,2
    19  0000                     	endm
    20                           skipc	macro
    21                           	btfss	3,0
    22  0000                     	endm
    23                           skipz	macro
    24                           	btfss	3,2
    25  0000                     	endm
    26                           skipnc	macro
    27                           	btfsc	3,0
    28  0000                     	endm
    29                           skipnz	macro
    30                           	btfsc	3,2
    31  0000                     	endm
    32  0000                     indf	equ	0
    33  0000                     indf0	equ	0
    34  0002                     pc	equ	2
    35  0002                     pcl	equ	2
    36  0003                     status	equ	3
    37  0004                     fsr	equ	4
    38  0004                     fsr0	equ	4
    39  0001                     c	equ	1
    40  0000                     z	equ	0
    41  000A                     pclath	equ	10
    42                           # 13 "C:\PIC_PROGS\ProyectoMicros\PIC\main.c"
    43                           	psect config,class=CONFIG,delta=2 ;#
    44                           # 13 "C:\PIC_PROGS\ProyectoMicros\PIC\main.c"
    45  2007  E0D4               	dw 0xFFFC & 0xFFF7 & 0xFFFF & 0xFFDF & 0xFFFF & 0xFFFF & 0xFCFF & 0xFBFF & 0xF7FF & 0xE
                                 FFF & 0xFFFF ;#
    46                           # 14 "C:\PIC_PROGS\ProyectoMicros\PIC\main.c"
    47                           	psect config,class=CONFIG,delta=2 ;#
    48                           # 14 "C:\PIC_PROGS\ProyectoMicros\PIC\main.c"
    49  2008  FFFF               	dw 0xFFFF & 0xFFFF ;#
    50                           	FNCALL	_main,_init_comms
    51                           	FNCALL	_main,_lcd_init
    52                           	FNCALL	_main,_lcd_goto
    53                           	FNCALL	_main,_lcd_puts
    54                           	FNCALL	_main,_pause
    55                           	FNCALL	_main,_lcd_clear
    56                           	FNCALL	_main,_getch
    57                           	FNCALL	_main,_printf
    58                           	FNCALL	_main,___lwtoft
    59                           	FNCALL	_main,___ftmul
    60                           	FNCALL	_main,___ftdiv
    61                           	FNCALL	_main,_sprintf
    62                           	FNCALL	_main,___ftge
    63                           	FNCALL	_sprintf,__doprnt
    64                           	FNCALL	_printf,__doprnt
    65                           	FNCALL	_lcd_init,_pause
    66                           	FNCALL	_lcd_init,_lcd_write
    67                           	FNCALL	_lcd_init,_lcd_clear
    68                           	FNCALL	__doprnt,Fake
    69                           	FNCALL	__doprnt,_putch
    70                           	FNCALL	__doprnt,___wmul
    71                           	FNCALL	__doprnt,_isdigit
    72                           	FNCALL	__doprnt,___ftge
    73                           	FNCALL	__doprnt,___ftneg
    74                           	FNCALL	__doprnt,___awdiv
    75                           	FNCALL	__doprnt,_scale
    76                           	FNCALL	__doprnt,___ftmul
    77                           	FNCALL	__doprnt,_fround
    78                           	FNCALL	__doprnt,___ftadd
    79                           	FNCALL	__doprnt,___fttol
    80                           	FNCALL	__doprnt,__div_to_l_
    81                           	FNCALL	__doprnt,__tdiv_to_l_
    82                           	FNCALL	__doprnt,___lltoft
    83                           	FNCALL	__doprnt,___ftsub
    84                           	FNCALL	__doprnt,___lldiv
    85                           	FNCALL	__doprnt,___llmod
    86                           	FNCALL	_lcd_clear,_lcd_write
    87                           	FNCALL	_lcd_clear,_pause
    88                           	FNCALL	_lcd_puts,_lcd_write
    89                           	FNCALL	_lcd_goto,_lcd_write
    90                           	FNCALL	___ftsub,___ftadd
    91                           	FNCALL	_scale,___awmod
    92                           	FNCALL	_scale,___bmul
    93                           	FNCALL	_scale,___awdiv
    94                           	FNCALL	_scale,___ftmul
    95                           	FNCALL	_fround,___awmod
    96                           	FNCALL	_fround,___bmul
    97                           	FNCALL	_fround,___awdiv
    98                           	FNCALL	_fround,___ftmul
    99                           	FNCALL	_lcd_write,_pause
   100                           	FNCALL	___lltoft,___ftpack
   101                           	FNCALL	___lwtoft,___ftpack
   102                           	FNCALL	___ftmul,___ftpack
   103                           	FNCALL	___ftdiv,___ftpack
   104                           	FNCALL	___ftadd,___ftpack
   105                           	FNCALL	_pause,_msecbase
   106                           	FNROOT	_main
   107                           	global	_dpowers
   108                           psect	strings,class=STRING,delta=2
   109                           global __pstrings
   110  1000                     __pstrings:
   111                           ;	global	stringdir,stringtab,__stringbase
   112  1000                     stringtab:
   113                           ;	String table - string pointers are 1 byte each
   114  1000  1BFF               	btfsc	(btemp+1),7
   115  1001  280A               	ljmp	stringcode
   116  1002  1383               	bcf	status,7
   117  1003  187F               	btfsc	(btemp+1),0
   118  1004  1783               	bsf	status,7
   119  1005  0800               	movf	indf,w
   120  1006  0A84               	incf fsr
   121  1007  1903               skipnz
   122  1008  0AFF               incf btemp+1
   123  1009  0008               	return
   124  100A                     stringcode:stringdir:
      + 100A                     stringdir:	
   125  100A  3010               movlw high(stringdir)
   126  100B  008A               movwf pclath
   127  100C  0804               movf fsr,w
   128  100D  0A84               incf fsr
   129  100E  0782               	addwf pc
   130  100F                     __stringbase:
   131  100F  3400               	retlw	0
   132                           psect	strings
   133                           	file	"C:\Program Files (x86)\HI-TECH Software\PICC\9.82\lib\doprnt.c"
   134                           	line	350
   135  1010                     _dpowers:
   136  1010  3401               	retlw	01h
   137  1011  3400               	retlw	0
   138  1012  3400               	retlw	0
   139  1013  3400               	retlw	0
   140                           
   141  1014  340A               	retlw	0Ah
   142  1015  3400               	retlw	0
   143  1016  3400               	retlw	0
   144  1017  3400               	retlw	0
   145                           
   146  1018  3464               	retlw	064h
   147  1019  3400               	retlw	0
   148  101A  3400               	retlw	0
   149  101B  3400               	retlw	0
   150                           
   151  101C  34E8               	retlw	0E8h
   152  101D  3403               	retlw	03h
   153  101E  3400               	retlw	0
   154  101F  3400               	retlw	0
   155                           
   156  1020  3410               	retlw	010h
   157  1021  3427               	retlw	027h
   158  1022  3400               	retlw	0
   159  1023  3400               	retlw	0
   160                           
   161  1024  34A0               	retlw	0A0h
   162  1025  3486               	retlw	086h
   163  1026  3401               	retlw	01h
   164  1027  3400               	retlw	0
   165                           
   166  1028  3440               	retlw	040h
   167  1029  3442               	retlw	042h
   168  102A  340F               	retlw	0Fh
   169  102B  3400               	retlw	0
   170                           
   171  102C  3480               	retlw	080h
   172  102D  3496               	retlw	096h
   173  102E  3498               	retlw	098h
   174  102F  3400               	retlw	0
   175                           
   176  1030  3400               	retlw	0
   177  1031  34E1               	retlw	0E1h
   178  1032  34F5               	retlw	0F5h
   179  1033  3405               	retlw	05h
   180                           
   181  1034  3400               	retlw	0
   182  1035  34CA               	retlw	0CAh
   183  1036  349A               	retlw	09Ah
   184  1037  343B               	retlw	03Bh
   185                           
   186                           	global	__npowers_
   187                           psect	strings
   188                           	file	"C:\Program Files (x86)\HI-TECH Software\PICC\9.82\sources\powers.c"
   189                           	line	39
   190  1038                     __npowers_:
   191  1038  3400               	retlw	0x0
   192  1039  3480               	retlw	0x80
   193  103A  343F               	retlw	0x3f
   194                           
   195  103B  34CD               	retlw	0xcd
   196  103C  34CC               	retlw	0xcc
   197  103D  343D               	retlw	0x3d
   198                           
   199  103E  34D7               	retlw	0xd7
   200  103F  3423               	retlw	0x23
   201  1040  343C               	retlw	0x3c
   202                           
   203  1041  3412               	retlw	0x12
   204  1042  3483               	retlw	0x83
   205  1043  343A               	retlw	0x3a
   206                           
   207  1044  34B7               	retlw	0xb7
   208  1045  34D1               	retlw	0xd1
   209  1046  3438               	retlw	0x38
   210                           
   211  1047  34C6               	retlw	0xc6
   212  1048  3427               	retlw	0x27
   213  1049  3437               	retlw	0x37
   214                           
   215  104A  3438               	retlw	0x38
   216  104B  3486               	retlw	0x86
   217  104C  3435               	retlw	0x35
   218                           
   219  104D  34C0               	retlw	0xc0
   220  104E  34D6               	retlw	0xd6
   221  104F  3433               	retlw	0x33
   222                           
   223  1050  34CC               	retlw	0xcc
   224  1051  342B               	retlw	0x2b
   225  1052  3432               	retlw	0x32
   226                           
   227  1053  3470               	retlw	0x70
   228  1054  3489               	retlw	0x89
   229  1055  3430               	retlw	0x30
   230                           
   231  1056  34E7               	retlw	0xe7
   232  1057  34DB               	retlw	0xdb
   233  1058  342E               	retlw	0x2e
   234                           
   235  1059  34E5               	retlw	0xe5
   236  105A  343C               	retlw	0x3c
   237  105B  341E               	retlw	0x1e
   238                           
   239  105C  3442               	retlw	0x42
   240  105D  34A2               	retlw	0xa2
   241  105E  340D               	retlw	0xd
   242                           
   243                           	global	__powers_
   244                           psect	strings
   245                           	file	"C:\Program Files (x86)\HI-TECH Software\PICC\9.82\sources\powers.c"
   246                           	line	7
   247  105F                     __powers_:
   248  105F  3400               	retlw	0x0
   249  1060  3480               	retlw	0x80
   250  1061  343F               	retlw	0x3f
   251                           
   252  1062  3400               	retlw	0x0
   253  1063  3420               	retlw	0x20
   254  1064  3441               	retlw	0x41
   255                           
   256  1065  3400               	retlw	0x0
   257  1066  34C8               	retlw	0xc8
   258  1067  3442               	retlw	0x42
   259                           
   260  1068  3400               	retlw	0x0
   261  1069  347A               	retlw	0x7a
   262  106A  3444               	retlw	0x44
   263                           
   264  106B  3440               	retlw	0x40
   265  106C  341C               	retlw	0x1c
   266  106D  3446               	retlw	0x46
   267                           
   268  106E  3450               	retlw	0x50
   269  106F  34C3               	retlw	0xc3
   270  1070  3447               	retlw	0x47
   271                           
   272  1071  3424               	retlw	0x24
   273  1072  3474               	retlw	0x74
   274  1073  3449               	retlw	0x49
   275                           
   276  1074  3497               	retlw	0x97
   277  1075  3418               	retlw	0x18
   278  1076  344B               	retlw	0x4b
   279                           
   280  1077  34BC               	retlw	0xbc
   281  1078  34BE               	retlw	0xbe
   282  1079  344C               	retlw	0x4c
   283                           
   284  107A  346B               	retlw	0x6b
   285  107B  346E               	retlw	0x6e
   286  107C  344E               	retlw	0x4e
   287                           
   288  107D  3403               	retlw	0x3
   289  107E  3415               	retlw	0x15
   290  107F  3450               	retlw	0x50
   291                           
   292  1080  3479               	retlw	0x79
   293  1081  34AD               	retlw	0xad
   294  1082  3460               	retlw	0x60
   295                           
   296  1083  34F3               	retlw	0xf3
   297  1084  3449               	retlw	0x49
   298  1085  3471               	retlw	0x71
   299                           
   300                           	global	_dpowers
   301                           	global	__npowers_
   302                           	global	__powers_
   303                           	global	_a
   304                           	global	_b
   305                           	global	_VADC
   306                           	global	_VADCH
   307                           	global	_VADCL
   308                           	global	_input
   309                           	global	_str
   310                           	global	_ADCON0
   311  001F                     _ADCON0	set	31
   312                           	global	_ADRESH
   313  001E                     _ADRESH	set	30
   314                           	global	_CCP1CON
   315  0017                     _CCP1CON	set	23
   316                           	global	_CCP2CON
   317  001D                     _CCP2CON	set	29
   318                           	global	_CCPR1L
   319  0015                     _CCPR1L	set	21
   320                           	global	_CCPR2L
   321  001B                     _CCPR2L	set	27
   322                           	global	_INTCON
   323  000B                     _INTCON	set	11
   324                           	global	_PORTD
   325  0008                     _PORTD	set	8
   326                           	global	_RCREG
   327  001A                     _RCREG	set	26
   328                           	global	_RCSTA
   329  0018                     _RCSTA	set	24
   330                           	global	_T2CON
   331  0012                     _T2CON	set	18
   332                           	global	_TMR0
   333  0001                     _TMR0	set	1
   334                           	global	_TXREG
   335  0019                     _TXREG	set	25
   336                           	global	_ADON
   337  00F8                     _ADON	set	248
   338                           	global	_CARRY
   339  0018                     _CARRY	set	24
   340                           	global	_GIE
   341  005F                     _GIE	set	95
   342                           	global	_GO_DONE
   343  00F9                     _GO_DONE	set	249
   344                           	global	_RA1
   345  0029                     _RA1	set	41
   346                           	global	_RA2
   347  002A                     _RA2	set	42
   348                           	global	_RA4
   349  002C                     _RA4	set	44
   350                           	global	_RB0
   351  0030                     _RB0	set	48
   352                           	global	_RCIF
   353  0065                     _RCIF	set	101
   354                           	global	_T0IF
   355  005A                     _T0IF	set	90
   356                           	global	_TMR2IF
   357  0061                     _TMR2IF	set	97
   358                           	global	_TXIF
   359  0064                     _TXIF	set	100
   360                           	global	_ADCON1
   361  009F                     _ADCON1	set	159
   362                           	global	_ADRESL
   363  009E                     _ADRESL	set	158
   364                           	global	_OPTION
   365  0081                     _OPTION	set	129
   366                           	global	_PR2
   367  0092                     _PR2	set	146
   368                           	global	_SPBRG
   369  0099                     _SPBRG	set	153
   370                           	global	_TRISA
   371  0085                     _TRISA	set	133
   372                           	global	_TRISB
   373  0086                     _TRISB	set	134
   374                           	global	_TRISC
   375  0087                     _TRISC	set	135
   376                           	global	_TRISD
   377  0088                     _TRISD	set	136
   378                           	global	_TRISE
   379  0089                     _TRISE	set	137
   380                           	global	_TXSTA
   381  0098                     _TXSTA	set	152
   382                           	global	_TRISB5
   383  0435                     _TRISB5	set	1077
   384                           	global	_TRISB7
   385  0437                     _TRISB7	set	1079
   386                           	global	_CM1CON0
   387  0107                     _CM1CON0	set	263
   388                           	global	_CM2CON0
   389  0108                     _CM2CON0	set	264
   390                           	global	_EEADR
   391  010D                     _EEADR	set	269
   392                           	global	_EEDATA
   393  010C                     _EEDATA	set	268
   394                           	global	_ANSEL
   395  0188                     _ANSEL	set	392
   396                           	global	_ANSELH
   397  0189                     _ANSELH	set	393
   398                           	global	_BAUDCTL
   399  0187                     _BAUDCTL	set	391
   400                           	global	_EECON1
   401  018C                     _EECON1	set	396
   402                           	global	_EECON2
   403  018D                     _EECON2	set	397
   404                           	global	_RD
   405  0C60                     _RD	set	3168
   406                           	global	_WR
   407  0C61                     _WR	set	3169
   408                           	global	_WREN
   409  0C62                     _WREN	set	3170
   410                           	
   411  1086                     STR_2:	
   412  1086  3470               	retlw	112	;'p'
   413  1087  3475               	retlw	117	;'u'
   414  1088  3465               	retlw	101	;'e'
   415  1089  3472               	retlw	114	;'r'
   416  108A  3474               	retlw	116	;'t'
   417  108B  346F               	retlw	111	;'o'
   418  108C  3473               	retlw	115	;'s'
   419  108D  3420               	retlw	32	;' '
   420  108E  3449               	retlw	73	;'I'
   421  108F  342F               	retlw	47	;'/'
   422  1090  344F               	retlw	79	;'O'
   423  1091  342E               	retlw	46	;'.'
   424  1092  342E               	retlw	46	;'.'
   425  1093  342E               	retlw	46	;'.'
   426  1094  3400               	retlw	0
   427                           psect	strings
   428                           	
   429  1095                     STR_6:	
   430  1095  3454               	retlw	84	;'T'
   431  1096  3472               	retlw	114	;'r'
   432  1097  3461               	retlw	97	;'a'
   433  1098  346E               	retlw	110	;'n'
   434  1099  3473               	retlw	115	;'s'
   435  109A  346D               	retlw	109	;'m'
   436  109B  3469               	retlw	105	;'i'
   437  109C  3473               	retlw	115	;'s'
   438  109D  3469               	retlw	105	;'i'
   439  109E  346F               	retlw	111	;'o'
   440  109F  346E               	retlw	110	;'n'
   441  10A0  342E               	retlw	46	;'.'
   442  10A1  342E               	retlw	46	;'.'
   443  10A2  342E               	retlw	46	;'.'
   444  10A3  3400               	retlw	0
   445                           psect	strings
   446                           	
   447  10A4                     STR_9:	
   448  10A4  3454               	retlw	84	;'T'
   449  10A5  346D               	retlw	109	;'m'
   450  10A6  3470               	retlw	112	;'p'
   451  10A7  346F               	retlw	111	;'o'
   452  10A8  3462               	retlw	98	;'b'
   453  10A9  346A               	retlw	106	;'j'
   454  10AA  343D               	retlw	61	;'='
   455  10AB  3425               	retlw	37	;'%'
   456  10AC  3469               	retlw	105	;'i'
   457  10AD  3425               	retlw	37	;'%'
   458  10AE  342E               	retlw	46	;'.'
   459  10AF  3431               	retlw	49	;'1'
   460  10B0  3466               	retlw	102	;'f'
   461  10B1  3400               	retlw	0
   462                           psect	strings
   463                           	
   464  10B2                     STR_1:	
   465  10B2  3443               	retlw	67	;'C'
   466  10B3  346F               	retlw	111	;'o'
   467  10B4  346E               	retlw	110	;'n'
   468  10B5  3466               	retlw	102	;'f'
   469  10B6  3469               	retlw	105	;'i'
   470  10B7  3467               	retlw	103	;'g'
   471  10B8  3475               	retlw	117	;'u'
   472  10B9  3472               	retlw	114	;'r'
   473  10BA  3461               	retlw	97	;'a'
   474  10BB  346E               	retlw	110	;'n'
   475  10BC  3464               	retlw	100	;'d'
   476  10BD  346F               	retlw	111	;'o'
   477  10BE  3400               	retlw	0
   478                           psect	strings
   479                           	
   480  10BF                     STR_5:	
   481  10BF  3449               	retlw	73	;'I'
   482  10C0  346E               	retlw	110	;'n'
   483  10C1  3469               	retlw	105	;'i'
   484  10C2  3463               	retlw	99	;'c'
   485  10C3  3469               	retlw	105	;'i'
   486  10C4  3461               	retlw	97	;'a'
   487  10C5  346E               	retlw	110	;'n'
   488  10C6  3464               	retlw	100	;'d'
   489  10C7  346F               	retlw	111	;'o'
   490  10C8  3400               	retlw	0
   491                           psect	strings
   492                           	
   493  10C9                     STR_8:	
   494  10C9  3454               	retlw	84	;'T'
   495  10CA  346D               	retlw	109	;'m'
   496  10CB  3470               	retlw	112	;'p'
   497  10CC  343D               	retlw	61	;'='
   498  10CD  3425               	retlw	37	;'%'
   499  10CE  342E               	retlw	46	;'.'
   500  10CF  3431               	retlw	49	;'1'
   501  10D0  3466               	retlw	102	;'f'
   502  10D1  3400               	retlw	0
   503                           psect	strings
   504                           	
   505  10D2                     STR_4:	
   506  10D2  3450               	retlw	80	;'P'
   507  10D3  3457               	retlw	87	;'W'
   508  10D4  344D               	retlw	77	;'M'
   509  10D5  342E               	retlw	46	;'.'
   510  10D6  342E               	retlw	46	;'.'
   511  10D7  342E               	retlw	46	;'.'
   512  10D8  3400               	retlw	0
   513                           psect	strings
   514                           	
   515  10D9                     STR_7:	
   516  10D9  3425               	retlw	37	;'%'
   517  10DA  3469               	retlw	105	;'i'
   518  10DB  340D               	retlw	13
   519  10DC  340A               	retlw	10
   520  10DD  3400               	retlw	0
   521                           psect	strings
   522  10B2                     STR_3	equ	STR_1+0
   523                           	file	"UART.as"
   524                           	line	#
   525                           psect cinit,class=CODE,delta=2
   526                           global start_initialization
   527  1C2F                     start_initialization:
   528                           
   529                           psect	bssBANK1,class=BANK1,space=1
   530                           global __pbssBANK1
   531  00BF                     __pbssBANK1:
   532  00BF                     _a:
   533  00BF                            ds      3
   534                           
   535  00C2                     _b:
   536  00C2                            ds      3
   537                           
   538  00C5                     _VADC:
   539  00C5                            ds      2
   540                           
   541  00C7                     _VADCH:
   542  00C7                            ds      2
   543                           
   544  00C9                     _VADCL:
   545  00C9                            ds      2
   546                           
   547  00CB                     _input:
   548  00CB                            ds      2
   549                           
   550                           psect	bssBANK3,class=BANK3,space=1
   551                           global __pbssBANK3
   552  0190                     __pbssBANK3:
   553  0190                     _str:
   554  0190                            ds      80
   555                           
   556                           psect clrtext,class=CODE,delta=2
   557                           global clear_ram
   558                           ;	Called with FSR containing the base address, and
   559                           ;	W with the last address+1
   560  07F7                     clear_ram:
   561  07F7  0064               	clrwdt			;clear the watchdog before getting into this loop
   562  07F8                     clrloop:
   563  07F8  0180               	clrf	indf		;clear RAM location pointed to by FSR
   564  07F9  0A84               	incf	fsr,f		;increment pointer
   565  07FA  0604               	xorwf	fsr,w		;XOR with final address
   566  07FB  1903               	btfsc	status,2	;have we reached the end yet?
   567  07FC  3400               	retlw	0		;all done for this memory range, return
   568  07FD  0604               	xorwf	fsr,w		;XOR again to restore value
   569  07FE  2FF8               	goto	clrloop		;do the next byte
   570                           
   571                           ; Clear objects allocated to BANK1
   572                           psect cinit,class=CODE,delta=2
   573  1C2F  1383               	bcf	status, 7	;select IRP bank0
   574  1C30  30BF               	movlw	low(__pbssBANK1)
   575  1C31  0084               	movwf	fsr
   576  1C32  30CD               	movlw	low((__pbssBANK1)+0Eh)
   577  1C33  120A  118A  27F7   	fcall	clear_ram
              160A  158A         
   578                           ; Clear objects allocated to BANK3
   579                           psect cinit,class=CODE,delta=2
   580  1C38  1783               	bsf	status, 7	;select IRP bank2
   581  1C39  3090               	movlw	low(__pbssBANK3)
   582  1C3A  0084               	movwf	fsr
   583  1C3B  30E0               	movlw	low((__pbssBANK3)+050h)
   584  1C3C  120A  118A  27F7   	fcall	clear_ram
              160A  158A         
   585                           psect cinit,class=CODE,delta=2
   586                           global end_of_initialization
   587                           
   588                           ;End of C runtime variable initialization code
   589                           
   590  1C41                     end_of_initialization:
   591  1C41  0183               clrf status
   592  1C42  160A  118A  2DEB   ljmp _main	;jump to C main() function
   593                           psect	cstackBANK1,class=BANK1,space=1
   594                           global __pcstackBANK1
   595  00A0                     __pcstackBANK1:
   596                           	global	__doprnt$5168
   597  00A0                     __doprnt$5168:	; 4 bytes @ 0x0
   598  00A0                     	ds	4
   599                           	global	__doprnt@flag
   600  00A4                     __doprnt@flag:	; 2 bytes @ 0x4
   601  00A4                     	ds	2
   602                           	global	__doprnt@integ
   603  00A6                     __doprnt@integ:	; 3 bytes @ 0x6
   604  00A6                     	ds	3
   605                           	global	__doprnt@exp
   606  00A9                     __doprnt@exp:	; 2 bytes @ 0x9
   607  00A9                     	ds	2
   608                           	global	__doprnt@_val
   609  00AB                     __doprnt@_val:	; 4 bytes @ 0xB
   610  00AB                     	ds	4
   611                           	global	__doprnt@prec
   612  00AF                     __doprnt@prec:	; 2 bytes @ 0xF
   613  00AF                     	ds	2
   614                           	global	__doprnt@fval
   615  00B1                     __doprnt@fval:	; 3 bytes @ 0x11
   616  00B1                     	ds	3
   617                           	global	__doprnt@c
   618  00B4                     __doprnt@c:	; 1 bytes @ 0x14
   619  00B4                     	ds	1
   620                           	global	__doprnt@pb
   621  00B5                     __doprnt@pb:	; 1 bytes @ 0x15
   622  00B5                     	ds	1
   623                           	global	??_sprintf
   624  00B6                     ??_sprintf:	; 0 bytes @ 0x16
   625                           	global	printf@f
   626  00B6                     printf@f:	; 1 bytes @ 0x16
   627  00B6                     	ds	1
   628                           	global	printf@ap
   629  00B7                     printf@ap:	; 1 bytes @ 0x17
   630  00B7                     	ds	1
   631                           	global	sprintf@wh
   632  00B8                     sprintf@wh:	; 1 bytes @ 0x18
   633                           	global	printf@pb
   634  00B8                     printf@pb:	; 2 bytes @ 0x18
   635  00B8                     	ds	1
   636                           	global	sprintf@ap
   637  00B9                     sprintf@ap:	; 1 bytes @ 0x19
   638  00B9                     	ds	1
   639                           	global	sprintf@pb
   640  00BA                     sprintf@pb:	; 2 bytes @ 0x1A
   641  00BA                     	ds	2
   642                           	global	??_main
   643  00BC                     ??_main:	; 0 bytes @ 0x1C
   644  00BC                     	ds	3
   645                           psect	cstackCOMMON,class=COMMON,space=1
   646                           global __pcstackCOMMON
   647  0070                     __pcstackCOMMON:
   648                           	global	?_init_comms
   649  0070                     ?_init_comms:	; 0 bytes @ 0x0
   650                           	global	??_init_comms
   651  0070                     ??_init_comms:	; 0 bytes @ 0x0
   652                           	global	?_lcd_init
   653  0070                     ?_lcd_init:	; 0 bytes @ 0x0
   654                           	global	?_lcd_goto
   655  0070                     ?_lcd_goto:	; 0 bytes @ 0x0
   656                           	global	?_pause
   657  0070                     ?_pause:	; 0 bytes @ 0x0
   658                           	global	?_lcd_clear
   659  0070                     ?_lcd_clear:	; 0 bytes @ 0x0
   660                           	global	??_getch
   661  0070                     ??_getch:	; 0 bytes @ 0x0
   662                           	global	?_isdigit
   663  0070                     ?_isdigit:	; 1 bit 
   664                           	global	??_isdigit
   665  0070                     ??_isdigit:	; 0 bytes @ 0x0
   666                           	global	?_main
   667  0070                     ?_main:	; 0 bytes @ 0x0
   668                           	global	?_lcd_write
   669  0070                     ?_lcd_write:	; 0 bytes @ 0x0
   670                           	global	?_msecbase
   671  0070                     ?_msecbase:	; 0 bytes @ 0x0
   672                           	global	??_msecbase
   673  0070                     ??_msecbase:	; 0 bytes @ 0x0
   674                           	global	?___ftge
   675  0070                     ?___ftge:	; 1 bit 
   676                           	global	?_getch
   677  0070                     ?_getch:	; 1 bytes @ 0x0
   678                           	global	?___wmul
   679  0070                     ?___wmul:	; 2 bytes @ 0x0
   680                           	global	?___awmod
   681  0070                     ?___awmod:	; 2 bytes @ 0x0
   682                           	global	?___ftpack
   683  0070                     ?___ftpack:	; 3 bytes @ 0x0
   684                           	global	?___ftneg
   685  0070                     ?___ftneg:	; 3 bytes @ 0x0
   686                           	global	?__tdiv_to_l_
   687  0070                     ?__tdiv_to_l_:	; 4 bytes @ 0x0
   688                           	global	?__div_to_l_
   689  0070                     ?__div_to_l_:	; 4 bytes @ 0x0
   690                           	global	?___lldiv
   691  0070                     ?___lldiv:	; 4 bytes @ 0x0
   692                           	global	_isdigit$5676
   693  0070                     _isdigit$5676:	; 1 bytes @ 0x0
   694                           	global	pause@usvalue
   695  0070                     pause@usvalue:	; 2 bytes @ 0x0
   696                           	global	___wmul@multiplier
   697  0070                     ___wmul@multiplier:	; 2 bytes @ 0x0
   698                           	global	___awmod@divisor
   699  0070                     ___awmod@divisor:	; 2 bytes @ 0x0
   700                           	global	___ftneg@f1
   701  0070                     ___ftneg@f1:	; 3 bytes @ 0x0
   702                           	global	___ftge@ff1
   703  0070                     ___ftge@ff1:	; 3 bytes @ 0x0
   704                           	global	__tdiv_to_l_@f1
   705  0070                     __tdiv_to_l_@f1:	; 3 bytes @ 0x0
   706                           	global	__div_to_l_@f1
   707  0070                     __div_to_l_@f1:	; 3 bytes @ 0x0
   708                           	global	___ftpack@arg
   709  0070                     ___ftpack@arg:	; 3 bytes @ 0x0
   710                           	global	___lldiv@divisor
   711  0070                     ___lldiv@divisor:	; 4 bytes @ 0x0
   712  0070                     	ds	1
   713                           	global	isdigit@c
   714  0071                     isdigit@c:	; 1 bytes @ 0x1
   715  0071                     	ds	1
   716                           	global	??_pause
   717  0072                     ??_pause:	; 0 bytes @ 0x2
   718                           	global	pause@x
   719  0072                     pause@x:	; 2 bytes @ 0x2
   720                           	global	___wmul@multiplicand
   721  0072                     ___wmul@multiplicand:	; 2 bytes @ 0x2
   722                           	global	___awmod@dividend
   723  0072                     ___awmod@dividend:	; 2 bytes @ 0x2
   724  0072                     	ds	1
   725                           	global	??___ftneg
   726  0073                     ??___ftneg:	; 0 bytes @ 0x3
   727                           	global	___ftpack@exp
   728  0073                     ___ftpack@exp:	; 1 bytes @ 0x3
   729                           	global	___ftge@ff2
   730  0073                     ___ftge@ff2:	; 3 bytes @ 0x3
   731                           	global	__tdiv_to_l_@f2
   732  0073                     __tdiv_to_l_@f2:	; 3 bytes @ 0x3
   733                           	global	__div_to_l_@f2
   734  0073                     __div_to_l_@f2:	; 3 bytes @ 0x3
   735  0073                     	ds	1
   736                           	global	??_lcd_write
   737  0074                     ??_lcd_write:	; 0 bytes @ 0x4
   738                           	global	??___wmul
   739  0074                     ??___wmul:	; 0 bytes @ 0x4
   740                           	global	??___awmod
   741  0074                     ??___awmod:	; 0 bytes @ 0x4
   742                           	global	___ftpack@sign
   743  0074                     ___ftpack@sign:	; 1 bytes @ 0x4
   744                           	global	___wmul@product
   745  0074                     ___wmul@product:	; 2 bytes @ 0x4
   746                           	global	___lldiv@dividend
   747  0074                     ___lldiv@dividend:	; 4 bytes @ 0x4
   748  0074                     	ds	1
   749                           	global	??___ftpack
   750  0075                     ??___ftpack:	; 0 bytes @ 0x5
   751                           	global	lcd_write@c
   752  0075                     lcd_write@c:	; 1 bytes @ 0x5
   753                           	global	___awmod@counter
   754  0075                     ___awmod@counter:	; 1 bytes @ 0x5
   755  0075                     	ds	1
   756                           	global	??_lcd_init
   757  0076                     ??_lcd_init:	; 0 bytes @ 0x6
   758                           	global	??_lcd_goto
   759  0076                     ??_lcd_goto:	; 0 bytes @ 0x6
   760                           	global	?_lcd_puts
   761  0076                     ?_lcd_puts:	; 0 bytes @ 0x6
   762                           	global	??_lcd_clear
   763  0076                     ??_lcd_clear:	; 0 bytes @ 0x6
   764                           	global	??__tdiv_to_l_
   765  0076                     ??__tdiv_to_l_:	; 0 bytes @ 0x6
   766                           	global	??__div_to_l_
   767  0076                     ??__div_to_l_:	; 0 bytes @ 0x6
   768                           	global	??___ftge
   769  0076                     ??___ftge:	; 0 bytes @ 0x6
   770                           	global	lcd_goto@pos
   771  0076                     lcd_goto@pos:	; 1 bytes @ 0x6
   772                           	global	___awmod@sign
   773  0076                     ___awmod@sign:	; 1 bytes @ 0x6
   774                           	global	lcd_puts@s
   775  0076                     lcd_puts@s:	; 2 bytes @ 0x6
   776  0076                     	ds	1
   777                           	global	?___awdiv
   778  0077                     ?___awdiv:	; 2 bytes @ 0x7
   779                           	global	lcd_init@init_value
   780  0077                     lcd_init@init_value:	; 1 bytes @ 0x7
   781                           	global	___awdiv@divisor
   782  0077                     ___awdiv@divisor:	; 2 bytes @ 0x7
   783  0077                     	ds	1
   784                           	global	??_lcd_puts
   785  0078                     ??_lcd_puts:	; 0 bytes @ 0x8
   786                           	global	??___lldiv
   787  0078                     ??___lldiv:	; 0 bytes @ 0x8
   788                           	global	?___lwtoft
   789  0078                     ?___lwtoft:	; 3 bytes @ 0x8
   790                           	global	?___lltoft
   791  0078                     ?___lltoft:	; 3 bytes @ 0x8
   792                           	global	___lwtoft@c
   793  0078                     ___lwtoft@c:	; 2 bytes @ 0x8
   794                           	global	___lltoft@c
   795  0078                     ___lltoft@c:	; 4 bytes @ 0x8
   796  0078                     	ds	1
   797                           	global	___awdiv@dividend
   798  0079                     ___awdiv@dividend:	; 2 bytes @ 0x9
   799                           	global	___lldiv@quotient
   800  0079                     ___lldiv@quotient:	; 4 bytes @ 0x9
   801  0079                     	ds	2
   802                           	global	??___awdiv
   803  007B                     ??___awdiv:	; 0 bytes @ 0xB
   804                           	global	??___lwtoft
   805  007B                     ??___lwtoft:	; 0 bytes @ 0xB
   806  007B                     	ds	1
   807                           	global	??___bmul
   808  007C                     ??___bmul:	; 0 bytes @ 0xC
   809                           	global	??___lltoft
   810  007C                     ??___lltoft:	; 0 bytes @ 0xC
   811  007C                     	ds	1
   812                           	global	___lldiv@counter
   813  007D                     ___lldiv@counter:	; 1 bytes @ 0xD
   814                           	global	___lltoft@exp
   815  007D                     ___lltoft@exp:	; 1 bytes @ 0xD
   816  007D                     	ds	1
   817                           	global	??_putch
   818  007E                     ??_putch:	; 0 bytes @ 0xE
   819                           	global	??___ftsub
   820  007E                     ??___ftsub:	; 0 bytes @ 0xE
   821                           psect	cstackBANK0,class=BANK0,space=1
   822                           global __pcstackBANK0
   823  0020                     __pcstackBANK0:
   824                           	global	?___llmod
   825  0020                     ?___llmod:	; 4 bytes @ 0x0
   826                           	global	___awdiv@counter
   827  0020                     ___awdiv@counter:	; 1 bytes @ 0x0
   828                           	global	___llmod@divisor
   829  0020                     ___llmod@divisor:	; 4 bytes @ 0x0
   830                           	global	__tdiv_to_l_@quot
   831  0020                     __tdiv_to_l_@quot:	; 4 bytes @ 0x0
   832                           	global	__div_to_l_@quot
   833  0020                     __div_to_l_@quot:	; 4 bytes @ 0x0
   834  0020                     	ds	1
   835                           	global	___awdiv@sign
   836  0021                     ___awdiv@sign:	; 1 bytes @ 0x1
   837  0021                     	ds	1
   838                           	global	___awdiv@quotient
   839  0022                     ___awdiv@quotient:	; 2 bytes @ 0x2
   840  0022                     	ds	2
   841                           	global	?___bmul
   842  0024                     ?___bmul:	; 1 bytes @ 0x4
   843                           	global	___bmul@multiplicand
   844  0024                     ___bmul@multiplicand:	; 1 bytes @ 0x4
   845                           	global	__tdiv_to_l_@cntr
   846  0024                     __tdiv_to_l_@cntr:	; 1 bytes @ 0x4
   847                           	global	__div_to_l_@cntr
   848  0024                     __div_to_l_@cntr:	; 1 bytes @ 0x4
   849                           	global	___llmod@dividend
   850  0024                     ___llmod@dividend:	; 4 bytes @ 0x4
   851  0024                     	ds	1
   852                           	global	___bmul@product
   853  0025                     ___bmul@product:	; 1 bytes @ 0x5
   854                           	global	__tdiv_to_l_@exp1
   855  0025                     __tdiv_to_l_@exp1:	; 1 bytes @ 0x5
   856                           	global	__div_to_l_@exp1
   857  0025                     __div_to_l_@exp1:	; 1 bytes @ 0x5
   858  0025                     	ds	1
   859                           	global	___bmul@multiplier
   860  0026                     ___bmul@multiplier:	; 1 bytes @ 0x6
   861  0026                     	ds	1
   862                           	global	?___fttol
   863  0027                     ?___fttol:	; 4 bytes @ 0x7
   864                           	global	___fttol@f1
   865  0027                     ___fttol@f1:	; 3 bytes @ 0x7
   866  0027                     	ds	1
   867                           	global	??___llmod
   868  0028                     ??___llmod:	; 0 bytes @ 0x8
   869  0028                     	ds	1
   870                           	global	___llmod@counter
   871  0029                     ___llmod@counter:	; 1 bytes @ 0x9
   872  0029                     	ds	1
   873                           	global	?_putch
   874  002A                     ?_putch:	; 0 bytes @ 0xA
   875                           	global	putch@byte
   876  002A                     putch@byte:	; 1 bytes @ 0xA
   877  002A                     	ds	1
   878                           	global	??___fttol
   879  002B                     ??___fttol:	; 0 bytes @ 0xB
   880  002B                     	ds	4
   881                           	global	___fttol@sign1
   882  002F                     ___fttol@sign1:	; 1 bytes @ 0xF
   883  002F                     	ds	1
   884                           	global	___fttol@lval
   885  0030                     ___fttol@lval:	; 4 bytes @ 0x10
   886  0030                     	ds	4
   887                           	global	___fttol@exp1
   888  0034                     ___fttol@exp1:	; 1 bytes @ 0x14
   889  0034                     	ds	1
   890                           	global	?___ftmul
   891  0035                     ?___ftmul:	; 3 bytes @ 0x15
   892                           	global	___ftmul@f1
   893  0035                     ___ftmul@f1:	; 3 bytes @ 0x15
   894  0035                     	ds	3
   895                           	global	___ftmul@f2
   896  0038                     ___ftmul@f2:	; 3 bytes @ 0x18
   897  0038                     	ds	3
   898                           	global	??___ftmul
   899  003B                     ??___ftmul:	; 0 bytes @ 0x1B
   900  003B                     	ds	4
   901                           	global	___ftmul@exp
   902  003F                     ___ftmul@exp:	; 1 bytes @ 0x1F
   903  003F                     	ds	1
   904                           	global	___ftmul@f3_as_product
   905  0040                     ___ftmul@f3_as_product:	; 3 bytes @ 0x20
   906  0040                     	ds	3
   907                           	global	___ftmul@cntr
   908  0043                     ___ftmul@cntr:	; 1 bytes @ 0x23
   909  0043                     	ds	1
   910                           	global	___ftmul@sign
   911  0044                     ___ftmul@sign:	; 1 bytes @ 0x24
   912  0044                     	ds	1
   913                           	global	?_scale
   914  0045                     ?_scale:	; 3 bytes @ 0x25
   915                           	global	?___ftadd
   916  0045                     ?___ftadd:	; 3 bytes @ 0x25
   917                           	global	?___ftdiv
   918  0045                     ?___ftdiv:	; 3 bytes @ 0x25
   919                           	global	___ftadd@f1
   920  0045                     ___ftadd@f1:	; 3 bytes @ 0x25
   921                           	global	___ftdiv@f2
   922  0045                     ___ftdiv@f2:	; 3 bytes @ 0x25
   923  0045                     	ds	3
   924                           	global	??_scale
   925  0048                     ??_scale:	; 0 bytes @ 0x28
   926                           	global	___ftadd@f2
   927  0048                     ___ftadd@f2:	; 3 bytes @ 0x28
   928                           	global	___ftdiv@f1
   929  0048                     ___ftdiv@f1:	; 3 bytes @ 0x28
   930  0048                     	ds	2
   931                           	global	_scale$6158
   932  004A                     _scale$6158:	; 3 bytes @ 0x2A
   933  004A                     	ds	1
   934                           	global	??___ftadd
   935  004B                     ??___ftadd:	; 0 bytes @ 0x2B
   936                           	global	??___ftdiv
   937  004B                     ??___ftdiv:	; 0 bytes @ 0x2B
   938  004B                     	ds	2
   939                           	global	scale@scl
   940  004D                     scale@scl:	; 1 bytes @ 0x2D
   941  004D                     	ds	2
   942                           	global	___ftadd@sign
   943  004F                     ___ftadd@sign:	; 1 bytes @ 0x2F
   944                           	global	___ftdiv@cntr
   945  004F                     ___ftdiv@cntr:	; 1 bytes @ 0x2F
   946  004F                     	ds	1
   947                           	global	___ftadd@exp2
   948  0050                     ___ftadd@exp2:	; 1 bytes @ 0x30
   949                           	global	___ftdiv@f3
   950  0050                     ___ftdiv@f3:	; 3 bytes @ 0x30
   951  0050                     	ds	1
   952                           	global	___ftadd@exp1
   953  0051                     ___ftadd@exp1:	; 1 bytes @ 0x31
   954  0051                     	ds	1
   955                           	global	?_fround
   956  0052                     ?_fround:	; 3 bytes @ 0x32
   957                           	global	?___ftsub
   958  0052                     ?___ftsub:	; 3 bytes @ 0x32
   959                           	global	___ftsub@f2
   960  0052                     ___ftsub@f2:	; 3 bytes @ 0x32
   961  0052                     	ds	1
   962                           	global	___ftdiv@exp
   963  0053                     ___ftdiv@exp:	; 1 bytes @ 0x33
   964  0053                     	ds	1
   965                           	global	___ftdiv@sign
   966  0054                     ___ftdiv@sign:	; 1 bytes @ 0x34
   967  0054                     	ds	1
   968                           	global	??_fround
   969  0055                     ??_fround:	; 0 bytes @ 0x35
   970                           	global	___ftsub@f1
   971  0055                     ___ftsub@f1:	; 3 bytes @ 0x35
   972  0055                     	ds	6
   973                           	global	_fround$6157
   974  005B                     _fround$6157:	; 3 bytes @ 0x3B
   975  005B                     	ds	3
   976                           	global	_fround$6156
   977  005E                     _fround$6156:	; 3 bytes @ 0x3E
   978  005E                     	ds	3
   979                           	global	fround@prec
   980  0061                     fround@prec:	; 1 bytes @ 0x41
   981  0061                     	ds	1
   982                           	global	?__doprnt
   983  0062                     ?__doprnt:	; 2 bytes @ 0x42
   984                           	global	__doprnt@f
   985  0062                     __doprnt@f:	; 1 bytes @ 0x42
   986  0062                     	ds	1
   987                           	global	__doprnt@ap
   988  0063                     __doprnt@ap:	; 1 bytes @ 0x43
   989  0063                     	ds	1
   990                           	global	??__doprnt
   991  0064                     ??__doprnt:	; 0 bytes @ 0x44
   992  0064                     	ds	6
   993                           	global	?_printf
   994  006A                     ?_printf:	; 2 bytes @ 0x4A
   995                           	global	?_sprintf
   996  006A                     ?_sprintf:	; 2 bytes @ 0x4A
   997                           	global	sprintf@f
   998  006A                     sprintf@f:	; 1 bytes @ 0x4A
   999  006A                     	ds	2
  1000                           	global	??_printf
  1001  006C                     ??_printf:	; 0 bytes @ 0x4C
  1002  006C                     	ds	4
  1003 ;;Data sizes: Strings 88, constant 118, data 0, bss 94, persistent 0 stack 0
  1004 ;;Auto spaces:   Size  Autos    Used
  1005 ;; COMMON          14     14      14
  1006 ;; BANK0           80     80      80
  1007 ;; BANK1           80     31      45
  1008 ;; BANK3           96      0      80
  1009 ;; BANK2           96      0       0
  1010                           
  1011 ;;
  1012 ;; Pointer list with targets:
  1013                           
  1014 ;; ?___ftpack	float  size(1) Largest target is 2
  1015 ;;		 -> ?_sprintf(BANK0[2]), ?_printf(BANK0[2]), 
  1016 ;;
  1017 ;; ?___lldiv	unsigned long  size(1) Largest target is 0
  1018 ;;
  1019 ;; ?___llmod	unsigned long  size(1) Largest target is 2
  1020 ;;		 -> ?_sprintf(BANK0[2]), ?_printf(BANK0[2]), 
  1021 ;;
  1022 ;; ?___ftsub	float  size(1) Largest target is 0
  1023 ;;
  1024 ;; ?___lltoft	float  size(1) Largest target is 0
  1025 ;;
  1026 ;; ?__tdiv_to_l_	unsigned long  size(1) Largest target is 0
  1027 ;;
  1028 ;; ?__div_to_l_	unsigned long  size(1) Largest target is 0
  1029 ;;
  1030 ;; ?___fttol	long  size(1) Largest target is 2
  1031 ;;		 -> ?_sprintf(BANK0[2]), ?_printf(BANK0[2]), 
  1032 ;;
  1033 ;; ?___ftadd	float  size(1) Largest target is 2
  1034 ;;		 -> ?_sprintf(BANK0[2]), ?_printf(BANK0[2]), 
  1035 ;;
  1036 ;; ?___ftneg	float  size(1) Largest target is 2
  1037 ;;		 -> ?_sprintf(BANK0[2]), ?_printf(BANK0[2]), 
  1038 ;;
  1039 ;; ?_scale	float  size(1) Largest target is 0
  1040 ;;
  1041 ;; ?___awmod	int  size(1) Largest target is 2
  1042 ;;		 -> ?_sprintf(BANK0[2]), ?_printf(BANK0[2]), 
  1043 ;;
  1044 ;; ?___awdiv	int  size(1) Largest target is 0
  1045 ;;
  1046 ;; ?_fround	int  size(1) Largest target is 0
  1047 ;;
  1048 ;; ?___wmul	unsigned int  size(1) Largest target is 0
  1049 ;;
  1050 ;; ?___ftmul	float  size(1) Largest target is 0
  1051 ;;
  1052 ;; ?___lwtoft	float  size(1) Largest target is 0
  1053 ;;
  1054 ;; ?___ftdiv	float  size(1) Largest target is 0
  1055 ;;
  1056 ;; sprintf@f	PTR const unsigned char  size(1) Largest target is 14
  1057 ;;		 -> STR_9(CODE[14]), STR_8(CODE[9]), 
  1058 ;;
  1059 ;; ?_sprintf	int  size(1) Largest target is 80
  1060 ;;		 -> NULL(NULL[0]), str(BANK3[80]), 
  1061 ;;
  1062 ;; sprintf@ap	PTR void [1] size(1) Largest target is 2
  1063 ;;		 -> ?_sprintf(BANK0[2]), ?_printf(BANK0[2]), 
  1064 ;;
  1065 ;; sprintf@wh	PTR unsigned char  size(1) Largest target is 80
  1066 ;;		 -> str(BANK3[80]), 
  1067 ;;
  1068 ;; pb.func	PTR FTN(unsigned char ,)void  size(1) Largest target is 0
  1069 ;;		 -> Absolute function(), putch(), 
  1070 ;;
  1071 ;; pb.ptr	PTR unsigned char  size(1) Largest target is 80
  1072 ;;		 -> NULL(NULL[0]), str(BANK3[80]), 
  1073 ;;
  1074 ;; printf@f	PTR const unsigned char  size(1) Largest target is 5
  1075 ;;		 -> STR_7(CODE[5]), 
  1076 ;;
  1077 ;; ?_printf	int  size(1) Largest target is 0
  1078 ;;
  1079 ;; printf@ap	PTR void [1] size(1) Largest target is 2
  1080 ;;		 -> ?_sprintf(BANK0[2]), ?_printf(BANK0[2]), 
  1081 ;;
  1082 ;; pb.func	PTR FTN(unsigned char ,)void  size(1) Largest target is 0
  1083 ;;		 -> Absolute function(), putch(), 
  1084 ;;
  1085 ;; pb.ptr	PTR unsigned char  size(1) Largest target is 80
  1086 ;;		 -> NULL(NULL[0]), str(BANK3[80]), 
  1087 ;;
  1088 ;; _doprnt@ap	PTR PTR void  size(1) Largest target is 2
  1089 ;;		 -> sprintf@ap(BANK1[1]), printf@ap(BANK1[1]), 
  1090 ;;
  1091 ;; _doprnt@f	PTR const unsigned char  size(1) Largest target is 14
  1092 ;;		 -> STR_9(CODE[14]), STR_8(CODE[9]), STR_7(CODE[5]), 
  1093 ;;
  1094 ;; S5104__prbuf$func	PTR FTN(unsigned char ,)void  size(1) Largest target is 0
  1095 ;;		 -> Absolute function(), putch(), 
  1096 ;;
  1097 ;; _doprnt@pb.func	PTR FTN(unsigned char ,)void  size(1) Largest target is 0
  1098 ;;		 -> Absolute function(), putch(), 
  1099 ;;
  1100 ;; S5104__prbuf$ptr	PTR unsigned char  size(1) Largest target is 80
  1101 ;;		 -> NULL(NULL[0]), str(BANK3[80]), 
  1102 ;;
  1103 ;; _doprnt@pb.ptr	PTR unsigned char  size(1) Largest target is 80
  1104 ;;		 -> NULL(NULL[0]), str(BANK3[80]), 
  1105 ;;
  1106 ;; _doprnt@pb	PTR struct __prbuf size(1) Largest target is 3
  1107 ;;		 -> sprintf@pb(BANK1[2]), printf@pb(BANK1[2]), 
  1108 ;;
  1109 ;; S5150$_cp	PTR const unsigned char  size(1) Largest target is 0
  1110 ;;
  1111 ;; _val._str._cp	PTR const unsigned char  size(1) Largest target is 0
  1112 ;;
  1113 ;; lcd_puts@s	PTR const unsigned char  size(2) Largest target is 80
  1114 ;;		 -> str(BANK3[80]), STR_6(CODE[15]), STR_5(CODE[10]), STR_4(CODE[7]), 
  1115 ;;		 -> STR_3(CODE[13]), STR_2(CODE[15]), STR_1(CODE[13]), 
  1116 ;;
  1117                           
  1118                           
  1119 ;;
  1120 ;; Critical Paths under _main in COMMON
  1121 ;;
  1122 ;;   _lcd_init->_lcd_write
  1123 ;;   __doprnt->__div_to_l_
  1124 ;;   __doprnt->___lltoft
  1125 ;;   __doprnt->___lldiv
  1126 ;;   _lcd_clear->_lcd_write
  1127 ;;   _lcd_puts->_lcd_write
  1128 ;;   _lcd_goto->_lcd_write
  1129 ;;   ___ftsub->___lltoft
  1130 ;;   _scale->___bmul
  1131 ;;   _fround->___bmul
  1132 ;;   _lcd_write->_pause
  1133 ;;   ___lltoft->___ftpack
  1134 ;;   ___lwtoft->___ftpack
  1135 ;;   ___ftmul->___bmul
  1136 ;;   ___ftadd->___bmul
  1137 ;;   ___llmod->___lldiv
  1138 ;;   ___awdiv->___awmod
  1139 ;;   ___fttol->___bmul
  1140 ;;   ___bmul->___awdiv
  1141 ;;   _putch->___lldiv
  1142 ;;
  1143 ;; Critical Paths under _main in BANK0
  1144 ;;
  1145 ;;   _main->_sprintf
  1146 ;;   _sprintf->__doprnt
  1147 ;;   _printf->__doprnt
  1148 ;;   __doprnt->_fround
  1149 ;;   ___ftsub->___ftadd
  1150 ;;   _scale->___ftmul
  1151 ;;   _fround->___ftadd
  1152 ;;   ___ftmul->___fttol
  1153 ;;   ___ftdiv->___ftmul
  1154 ;;   ___ftadd->___ftmul
  1155 ;;   ___fttol->___bmul
  1156 ;;   ___bmul->___awdiv
  1157 ;;   _putch->___llmod
  1158 ;;
  1159 ;; Critical Paths under _main in BANK1
  1160 ;;
  1161 ;;   _main->_sprintf
  1162 ;;   _sprintf->__doprnt
  1163 ;;   _printf->__doprnt
  1164 ;;
  1165 ;; Critical Paths under _main in BANK3
  1166 ;;
  1167 ;;   None.
  1168 ;;
  1169 ;; Critical Paths under _main in BANK2
  1170 ;;
  1171 ;;   None.
  1172                           
  1173 ;;
  1174 ;;Main: autosize = 0, tempsize = 3, incstack = 0, save=0
  1175 ;;
  1176                           
  1177 ;;
  1178 ;;Call Graph Tables:
  1179 ;;
  1180 ;; ---------------------------------------------------------------------------------
  1181 ;; (Depth) Function   	        Calls       Base Space   Used Autos Params    Refs
  1182 ;; ---------------------------------------------------------------------------------
  1183 ;; (0) _main                                                 3     3      0   24213
  1184 ;;                                             28 BANK1      3     3      0
  1185 ;;                         _init_comms
  1186 ;;                           _lcd_init
  1187 ;;                           _lcd_goto
  1188 ;;                           _lcd_puts
  1189 ;;                              _pause
  1190 ;;                          _lcd_clear
  1191 ;;                              _getch
  1192 ;;                             _printf
  1193 ;;                           ___lwtoft
  1194 ;;                            ___ftmul
  1195 ;;                            ___ftdiv
  1196 ;;                            _sprintf
  1197 ;;                             ___ftge
  1198 ;; ---------------------------------------------------------------------------------
  1199 ;; (1) _sprintf                                             12     6      6   11077
  1200 ;;                                             74 BANK0      6     0      6
  1201 ;;                                             22 BANK1      6     6      0
  1202 ;;                            __doprnt
  1203 ;; ---------------------------------------------------------------------------------
  1204 ;; (1) _printf                                               8     6      2   11021
  1205 ;;                                             74 BANK0      4     2      2
  1206 ;;                                             22 BANK1      4     4      0
  1207 ;;                            __doprnt
  1208 ;; ---------------------------------------------------------------------------------
  1209 ;; (1) _lcd_init                                             2     2      0     295
  1210 ;;                                              6 COMMON     2     2      0
  1211 ;;                              _pause
  1212 ;;                          _lcd_write
  1213 ;;                          _lcd_clear
  1214 ;; ---------------------------------------------------------------------------------
  1215 ;; (2) __doprnt                                             36    34      2   10880
  1216 ;;                                             66 BANK0      8     6      2
  1217 ;;                                              0 BANK1     22    22      0
  1218 ;;                   Absolute function
  1219 ;;                              _putch
  1220 ;;                             ___wmul
  1221 ;;                            _isdigit
  1222 ;;                             ___ftge
  1223 ;;                            ___ftneg
  1224 ;;                            ___awdiv
  1225 ;;                              _scale
  1226 ;;                            ___ftmul
  1227 ;;                             _fround
  1228 ;;                            ___ftadd
  1229 ;;                            ___fttol
  1230 ;;                         __div_to_l_
  1231 ;;                        __tdiv_to_l_
  1232 ;;                           ___lltoft
  1233 ;;                            ___ftsub
  1234 ;;                            ___lldiv
  1235 ;;                            ___llmod
  1236 ;; ---------------------------------------------------------------------------------
  1237 ;; (1) _lcd_clear                                            0     0      0     136
  1238 ;;                          _lcd_write
  1239 ;;                              _pause
  1240 ;; ---------------------------------------------------------------------------------
  1241 ;; (1) _lcd_puts                                             2     0      2     135
  1242 ;;                                              6 COMMON     2     0      2
  1243 ;;                          _lcd_write
  1244 ;; ---------------------------------------------------------------------------------
  1245 ;; (1) _lcd_goto                                             1     1      0     112
  1246 ;;                                              6 COMMON     1     1      0
  1247 ;;                          _lcd_write
  1248 ;; ---------------------------------------------------------------------------------
  1249 ;; (3) ___ftsub                                              6     0      6    1094
  1250 ;;                                             50 BANK0      6     0      6
  1251 ;;                            ___ftadd
  1252 ;;                           ___lltoft (ARG)
  1253 ;; ---------------------------------------------------------------------------------
  1254 ;; (3) _scale                                               12     9      3    1688
  1255 ;;                                             37 BANK0      9     6      3
  1256 ;;                            ___awmod
  1257 ;;                             ___bmul
  1258 ;;                            ___awdiv
  1259 ;;                            ___ftmul
  1260 ;;                            ___fttol (ARG)
  1261 ;; ---------------------------------------------------------------------------------
  1262 ;; (3) _fround                                              19    16      3    1490
  1263 ;;                                             50 BANK0     16    13      3
  1264 ;;                            ___awmod
  1265 ;;                             ___bmul
  1266 ;;                            ___awdiv
  1267 ;;                            ___ftmul
  1268 ;;                            ___ftadd (ARG)
  1269 ;; ---------------------------------------------------------------------------------
  1270 ;; (2) _lcd_write                                            2     2      0      90
  1271 ;;                                              4 COMMON     2     2      0
  1272 ;;                              _pause
  1273 ;; ---------------------------------------------------------------------------------
  1274 ;; (3) ___lltoft                                             6     2      4     278
  1275 ;;                                              8 COMMON     6     2      4
  1276 ;;                           ___ftpack
  1277 ;; ---------------------------------------------------------------------------------
  1278 ;; (1) ___lwtoft                                             4     1      3     231
  1279 ;;                                              8 COMMON     4     1      3
  1280 ;;                           ___ftpack
  1281 ;; ---------------------------------------------------------------------------------
  1282 ;; (4) ___ftmul                                             16    10      6     535
  1283 ;;                                             21 BANK0     16    10      6
  1284 ;;                           ___ftpack
  1285 ;;                           ___lwtoft (ARG)
  1286 ;;                            ___fttol (ARG)
  1287 ;;                             ___bmul (ARG)
  1288 ;;                            ___awdiv (ARG)
  1289 ;;                            ___awmod (ARG)
  1290 ;; ---------------------------------------------------------------------------------
  1291 ;; (1) ___ftdiv                                             16    10      6     489
  1292 ;;                                             37 BANK0     16    10      6
  1293 ;;                           ___ftpack
  1294 ;;                            ___ftmul (ARG)
  1295 ;;                           ___lwtoft (ARG)
  1296 ;; ---------------------------------------------------------------------------------
  1297 ;; (4) ___ftadd                                             13     7      6    1049
  1298 ;;                                             37 BANK0     13     7      6
  1299 ;;                           ___ftpack
  1300 ;;                            ___awmod (ARG)
  1301 ;;                             ___bmul (ARG)
  1302 ;;                            ___awdiv (ARG)
  1303 ;;                            ___ftmul (ARG)
  1304 ;; ---------------------------------------------------------------------------------
  1305 ;; (2) _pause                                                4     2      2      46
  1306 ;;                                              0 COMMON     4     2      2
  1307 ;;                           _msecbase
  1308 ;; ---------------------------------------------------------------------------------
  1309 ;; (4) ___awmod                                              7     3      4     296
  1310 ;;                                              0 COMMON     7     3      4
  1311 ;; ---------------------------------------------------------------------------------
  1312 ;; (3) ___lldiv                                             14     6      8     162
  1313 ;;                                              0 COMMON    14     6      8
  1314 ;; ---------------------------------------------------------------------------------
  1315 ;; (1) ___ftge                                              12     6      6     136
  1316 ;;                                              0 COMMON    12     6      6
  1317 ;; ---------------------------------------------------------------------------------
  1318 ;; (3) ___ftneg                                              3     0      3      45
  1319 ;;                                              0 COMMON     3     0      3
  1320 ;; ---------------------------------------------------------------------------------
  1321 ;; (3) ___llmod                                             10     2      8     159
  1322 ;;                                              0 BANK0     10     2      8
  1323 ;;                            ___lldiv (ARG)
  1324 ;; ---------------------------------------------------------------------------------
  1325 ;; (4) ___awdiv                                              9     5      4     300
  1326 ;;                                              7 COMMON     5     1      4
  1327 ;;                                              0 BANK0      4     4      0
  1328 ;;                            ___awmod (ARG)
  1329 ;; ---------------------------------------------------------------------------------
  1330 ;; (3) ___fttol                                             14    10      4     252
  1331 ;;                                              7 BANK0     14    10      4
  1332 ;;                           ___ftpack (ARG)
  1333 ;;                            ___awmod (ARG)
  1334 ;;                             ___bmul (ARG)
  1335 ;;                            ___awdiv (ARG)
  1336 ;; ---------------------------------------------------------------------------------
  1337 ;; (5) ___ftpack                                             8     3      5     209
  1338 ;;                                              0 COMMON     8     3      5
  1339 ;; ---------------------------------------------------------------------------------
  1340 ;; (3) ___wmul                                               6     2      4      92
  1341 ;;                                              0 COMMON     6     2      4
  1342 ;; ---------------------------------------------------------------------------------
  1343 ;; (4) ___bmul                                               4     3      1      68
  1344 ;;                                             12 COMMON     1     1      0
  1345 ;;                                              4 BANK0      3     2      1
  1346 ;;                            ___awmod (ARG)
  1347 ;;                            ___awdiv (ARG)
  1348 ;; ---------------------------------------------------------------------------------
  1349 ;; (3) __div_to_l_                                          20    14      6     446
  1350 ;;                                              0 COMMON    14     8      6
  1351 ;;                                              0 BANK0      6     6      0
  1352 ;; ---------------------------------------------------------------------------------
  1353 ;; (3) __tdiv_to_l_                                         16    10      6     303
  1354 ;;                                              0 COMMON    10     4      6
  1355 ;;                                              0 BANK0      6     6      0
  1356 ;; ---------------------------------------------------------------------------------
  1357 ;; (3) _isdigit                                              2     2      0      68
  1358 ;;                                              0 COMMON     2     2      0
  1359 ;; ---------------------------------------------------------------------------------
  1360 ;; (3) Absolute function(Fake)                               1     0      1       0
  1361 ;;                                              0 COMMON     1     0      1
  1362 ;; ---------------------------------------------------------------------------------
  1363 ;; (3) _putch                                                1     0      1      22
  1364 ;;                                             10 BANK0      1     0      1
  1365 ;;                            ___llmod (ARG)
  1366 ;;                            ___lldiv (ARG)
  1367 ;; ---------------------------------------------------------------------------------
  1368 ;; (3) _msecbase                                             0     0      0       0
  1369 ;; ---------------------------------------------------------------------------------
  1370 ;; (1) _getch                                                0     0      0       0
  1371 ;; ---------------------------------------------------------------------------------
  1372 ;; (1) _init_comms                                           0     0      0       0
  1373 ;; ---------------------------------------------------------------------------------
  1374 ;; Estimated maximum stack depth 5
  1375 ;; ---------------------------------------------------------------------------------
  1376                           
  1377 ;; Call Graph Graphs:
  1378                           
  1379 ;; _main (ROOT)
  1380 ;;   _init_comms
  1381 ;;   _lcd_init
  1382 ;;     _pause
  1383 ;;       _msecbase
  1384 ;;     _lcd_write
  1385 ;;       _pause
  1386 ;;         _msecbase
  1387 ;;     _lcd_clear
  1388 ;;       _lcd_write
  1389 ;;         _pause
  1390 ;;           _msecbase
  1391 ;;       _pause
  1392 ;;         _msecbase
  1393 ;;   _lcd_goto
  1394 ;;     _lcd_write
  1395 ;;       _pause
  1396 ;;         _msecbase
  1397 ;;   _lcd_puts
  1398 ;;     _lcd_write
  1399 ;;       _pause
  1400 ;;         _msecbase
  1401 ;;   _pause
  1402 ;;     _msecbase
  1403 ;;   _lcd_clear
  1404 ;;     _lcd_write
  1405 ;;       _pause
  1406 ;;         _msecbase
  1407 ;;     _pause
  1408 ;;       _msecbase
  1409 ;;   _getch
  1410 ;;   _printf
  1411 ;;     __doprnt
  1412 ;;       Absolute function(Fake)
  1413 ;;       _putch
  1414 ;;         ___llmod (ARG)
  1415 ;;           ___lldiv (ARG)
  1416 ;;         ___lldiv (ARG)
  1417 ;;       ___wmul
  1418 ;;       _isdigit
  1419 ;;       ___ftge
  1420 ;;       ___ftneg
  1421 ;;       ___awdiv
  1422 ;;         ___awmod (ARG)
  1423 ;;       _scale
  1424 ;;         ___awmod
  1425 ;;         ___bmul
  1426 ;;           ___awmod (ARG)
  1427 ;;           ___awdiv (ARG)
  1428 ;;             ___awmod (ARG)
  1429 ;;         ___awdiv
  1430 ;;           ___awmod (ARG)
  1431 ;;         ___ftmul
  1432 ;;           ___ftpack
  1433 ;;           ___lwtoft (ARG)
  1434 ;;             ___ftpack
  1435 ;;           ___fttol (ARG)
  1436 ;;             ___ftpack (ARG)
  1437 ;;             ___awmod (ARG)
  1438 ;;             ___bmul (ARG)
  1439 ;;               ___awmod (ARG)
  1440 ;;               ___awdiv (ARG)
  1441 ;;                 ___awmod (ARG)
  1442 ;;             ___awdiv (ARG)
  1443 ;;               ___awmod (ARG)
  1444 ;;           ___bmul (ARG)
  1445 ;;             ___awmod (ARG)
  1446 ;;             ___awdiv (ARG)
  1447 ;;               ___awmod (ARG)
  1448 ;;           ___awdiv (ARG)
  1449 ;;             ___awmod (ARG)
  1450 ;;           ___awmod (ARG)
  1451 ;;         ___fttol (ARG)
  1452 ;;           ___ftpack (ARG)
  1453 ;;           ___awmod (ARG)
  1454 ;;           ___bmul (ARG)
  1455 ;;             ___awmod (ARG)
  1456 ;;             ___awdiv (ARG)
  1457 ;;               ___awmod (ARG)
  1458 ;;           ___awdiv (ARG)
  1459 ;;             ___awmod (ARG)
  1460 ;;       ___ftmul
  1461 ;;         ___ftpack
  1462 ;;         ___lwtoft (ARG)
  1463 ;;           ___ftpack
  1464 ;;         ___fttol (ARG)
  1465 ;;           ___ftpack (ARG)
  1466 ;;           ___awmod (ARG)
  1467 ;;           ___bmul (ARG)
  1468 ;;             ___awmod (ARG)
  1469 ;;             ___awdiv (ARG)
  1470 ;;               ___awmod (ARG)
  1471 ;;           ___awdiv (ARG)
  1472 ;;             ___awmod (ARG)
  1473 ;;         ___bmul (ARG)
  1474 ;;           ___awmod (ARG)
  1475 ;;           ___awdiv (ARG)
  1476 ;;             ___awmod (ARG)
  1477 ;;         ___awdiv (ARG)
  1478 ;;           ___awmod (ARG)
  1479 ;;         ___awmod (ARG)
  1480 ;;       _fround
  1481 ;;         ___awmod
  1482 ;;         ___bmul
  1483 ;;           ___awmod (ARG)
  1484 ;;           ___awdiv (ARG)
  1485 ;;             ___awmod (ARG)
  1486 ;;         ___awdiv
  1487 ;;           ___awmod (ARG)
  1488 ;;         ___ftmul
  1489 ;;           ___ftpack
  1490 ;;           ___lwtoft (ARG)
  1491 ;;             ___ftpack
  1492 ;;           ___fttol (ARG)
  1493 ;;             ___ftpack (ARG)
  1494 ;;             ___awmod (ARG)
  1495 ;;             ___bmul (ARG)
  1496 ;;               ___awmod (ARG)
  1497 ;;               ___awdiv (ARG)
  1498 ;;                 ___awmod (ARG)
  1499 ;;             ___awdiv (ARG)
  1500 ;;               ___awmod (ARG)
  1501 ;;           ___bmul (ARG)
  1502 ;;             ___awmod (ARG)
  1503 ;;             ___awdiv (ARG)
  1504 ;;               ___awmod (ARG)
  1505 ;;           ___awdiv (ARG)
  1506 ;;             ___awmod (ARG)
  1507 ;;           ___awmod (ARG)
  1508 ;;         ___ftadd (ARG)
  1509 ;;           ___ftpack
  1510 ;;           ___awmod (ARG)
  1511 ;;           ___bmul (ARG)
  1512 ;;             ___awmod (ARG)
  1513 ;;             ___awdiv (ARG)
  1514 ;;               ___awmod (ARG)
  1515 ;;           ___awdiv (ARG)
  1516 ;;             ___awmod (ARG)
  1517 ;;           ___ftmul (ARG)
  1518 ;;             ___ftpack
  1519 ;;             ___lwtoft (ARG)
  1520 ;;               ___ftpack
  1521 ;;             ___fttol (ARG)
  1522 ;;               ___ftpack (ARG)
  1523 ;;               ___awmod (ARG)
  1524 ;;               ___bmul (ARG)
  1525 ;;                 ___awmod (ARG)
  1526 ;;                 ___awdiv (ARG)
  1527 ;;                   ___awmod (ARG)
  1528 ;;               ___awdiv (ARG)
  1529 ;;                 ___awmod (ARG)
  1530 ;;             ___bmul (ARG)
  1531 ;;               ___awmod (ARG)
  1532 ;;               ___awdiv (ARG)
  1533 ;;                 ___awmod (ARG)
  1534 ;;             ___awdiv (ARG)
  1535 ;;               ___awmod (ARG)
  1536 ;;             ___awmod (ARG)
  1537 ;;       ___ftadd
  1538 ;;         ___ftpack
  1539 ;;         ___awmod (ARG)
  1540 ;;         ___bmul (ARG)
  1541 ;;           ___awmod (ARG)
  1542 ;;           ___awdiv (ARG)
  1543 ;;             ___awmod (ARG)
  1544 ;;         ___awdiv (ARG)
  1545 ;;           ___awmod (ARG)
  1546 ;;         ___ftmul (ARG)
  1547 ;;           ___ftpack
  1548 ;;           ___lwtoft (ARG)
  1549 ;;             ___ftpack
  1550 ;;           ___fttol (ARG)
  1551 ;;             ___ftpack (ARG)
  1552 ;;             ___awmod (ARG)
  1553 ;;             ___bmul (ARG)
  1554 ;;               ___awmod (ARG)
  1555 ;;               ___awdiv (ARG)
  1556 ;;                 ___awmod (ARG)
  1557 ;;             ___awdiv (ARG)
  1558 ;;               ___awmod (ARG)
  1559 ;;           ___bmul (ARG)
  1560 ;;             ___awmod (ARG)
  1561 ;;             ___awdiv (ARG)
  1562 ;;               ___awmod (ARG)
  1563 ;;           ___awdiv (ARG)
  1564 ;;             ___awmod (ARG)
  1565 ;;           ___awmod (ARG)
  1566 ;;       ___fttol
  1567 ;;         ___ftpack (ARG)
  1568 ;;         ___awmod (ARG)
  1569 ;;         ___bmul (ARG)
  1570 ;;           ___awmod (ARG)
  1571 ;;           ___awdiv (ARG)
  1572 ;;             ___awmod (ARG)
  1573 ;;         ___awdiv (ARG)
  1574 ;;           ___awmod (ARG)
  1575 ;;       __div_to_l_
  1576 ;;       __tdiv_to_l_
  1577 ;;       ___lltoft
  1578 ;;         ___ftpack
  1579 ;;       ___ftsub
  1580 ;;         ___ftadd
  1581 ;;           ___ftpack
  1582 ;;           ___awmod (ARG)
  1583 ;;           ___bmul (ARG)
  1584 ;;             ___awmod (ARG)
  1585 ;;             ___awdiv (ARG)
  1586 ;;               ___awmod (ARG)
  1587 ;;           ___awdiv (ARG)
  1588 ;;             ___awmod (ARG)
  1589 ;;           ___ftmul (ARG)
  1590 ;;             ___ftpack
  1591 ;;             ___lwtoft (ARG)
  1592 ;;               ___ftpack
  1593 ;;             ___fttol (ARG)
  1594 ;;               ___ftpack (ARG)
  1595 ;;               ___awmod (ARG)
  1596 ;;               ___bmul (ARG)
  1597 ;;                 ___awmod (ARG)
  1598 ;;                 ___awdiv (ARG)
  1599 ;;                   ___awmod (ARG)
  1600 ;;               ___awdiv (ARG)
  1601 ;;                 ___awmod (ARG)
  1602 ;;             ___bmul (ARG)
  1603 ;;               ___awmod (ARG)
  1604 ;;               ___awdiv (ARG)
  1605 ;;                 ___awmod (ARG)
  1606 ;;             ___awdiv (ARG)
  1607 ;;               ___awmod (ARG)
  1608 ;;             ___awmod (ARG)
  1609 ;;         ___lltoft (ARG)
  1610 ;;           ___ftpack
  1611 ;;       ___lldiv
  1612 ;;       ___llmod
  1613 ;;         ___lldiv (ARG)
  1614 ;;   ___lwtoft
  1615 ;;     ___ftpack
  1616 ;;   ___ftmul
  1617 ;;     ___ftpack
  1618 ;;     ___lwtoft (ARG)
  1619 ;;       ___ftpack
  1620 ;;     ___fttol (ARG)
  1621 ;;       ___ftpack (ARG)
  1622 ;;       ___awmod (ARG)
  1623 ;;       ___bmul (ARG)
  1624 ;;         ___awmod (ARG)
  1625 ;;         ___awdiv (ARG)
  1626 ;;           ___awmod (ARG)
  1627 ;;       ___awdiv (ARG)
  1628 ;;         ___awmod (ARG)
  1629 ;;     ___bmul (ARG)
  1630 ;;       ___awmod (ARG)
  1631 ;;       ___awdiv (ARG)
  1632 ;;         ___awmod (ARG)
  1633 ;;     ___awdiv (ARG)
  1634 ;;       ___awmod (ARG)
  1635 ;;     ___awmod (ARG)
  1636 ;;   ___ftdiv
  1637 ;;     ___ftpack
  1638 ;;     ___ftmul (ARG)
  1639 ;;       ___ftpack
  1640 ;;       ___lwtoft (ARG)
  1641 ;;         ___ftpack
  1642 ;;       ___fttol (ARG)
  1643 ;;         ___ftpack (ARG)
  1644 ;;         ___awmod (ARG)
  1645 ;;         ___bmul (ARG)
  1646 ;;           ___awmod (ARG)
  1647 ;;           ___awdiv (ARG)
  1648 ;;             ___awmod (ARG)
  1649 ;;         ___awdiv (ARG)
  1650 ;;           ___awmod (ARG)
  1651 ;;       ___bmul (ARG)
  1652 ;;         ___awmod (ARG)
  1653 ;;         ___awdiv (ARG)
  1654 ;;           ___awmod (ARG)
  1655 ;;       ___awdiv (ARG)
  1656 ;;         ___awmod (ARG)
  1657 ;;       ___awmod (ARG)
  1658 ;;     ___lwtoft (ARG)
  1659 ;;       ___ftpack
  1660 ;;   _sprintf
  1661 ;;     __doprnt
  1662 ;;       Absolute function(Fake)
  1663 ;;       _putch
  1664 ;;         ___llmod (ARG)
  1665 ;;           ___lldiv (ARG)
  1666 ;;         ___lldiv (ARG)
  1667 ;;       ___wmul
  1668 ;;       _isdigit
  1669 ;;       ___ftge
  1670 ;;       ___ftneg
  1671 ;;       ___awdiv
  1672 ;;         ___awmod (ARG)
  1673 ;;       _scale
  1674 ;;         ___awmod
  1675 ;;         ___bmul
  1676 ;;           ___awmod (ARG)
  1677 ;;           ___awdiv (ARG)
  1678 ;;             ___awmod (ARG)
  1679 ;;         ___awdiv
  1680 ;;           ___awmod (ARG)
  1681 ;;         ___ftmul
  1682 ;;           ___ftpack
  1683 ;;           ___lwtoft (ARG)
  1684 ;;             ___ftpack
  1685 ;;           ___fttol (ARG)
  1686 ;;             ___ftpack (ARG)
  1687 ;;             ___awmod (ARG)
  1688 ;;             ___bmul (ARG)
  1689 ;;               ___awmod (ARG)
  1690 ;;               ___awdiv (ARG)
  1691 ;;                 ___awmod (ARG)
  1692 ;;             ___awdiv (ARG)
  1693 ;;               ___awmod (ARG)
  1694 ;;           ___bmul (ARG)
  1695 ;;             ___awmod (ARG)
  1696 ;;             ___awdiv (ARG)
  1697 ;;               ___awmod (ARG)
  1698 ;;           ___awdiv (ARG)
  1699 ;;             ___awmod (ARG)
  1700 ;;           ___awmod (ARG)
  1701 ;;         ___fttol (ARG)
  1702 ;;           ___ftpack (ARG)
  1703 ;;           ___awmod (ARG)
  1704 ;;           ___bmul (ARG)
  1705 ;;             ___awmod (ARG)
  1706 ;;             ___awdiv (ARG)
  1707 ;;               ___awmod (ARG)
  1708 ;;           ___awdiv (ARG)
  1709 ;;             ___awmod (ARG)
  1710 ;;       ___ftmul
  1711 ;;         ___ftpack
  1712 ;;         ___lwtoft (ARG)
  1713 ;;           ___ftpack
  1714 ;;         ___fttol (ARG)
  1715 ;;           ___ftpack (ARG)
  1716 ;;           ___awmod (ARG)
  1717 ;;           ___bmul (ARG)
  1718 ;;             ___awmod (ARG)
  1719 ;;             ___awdiv (ARG)
  1720 ;;               ___awmod (ARG)
  1721 ;;           ___awdiv (ARG)
  1722 ;;             ___awmod (ARG)
  1723 ;;         ___bmul (ARG)
  1724 ;;           ___awmod (ARG)
  1725 ;;           ___awdiv (ARG)
  1726 ;;             ___awmod (ARG)
  1727 ;;         ___awdiv (ARG)
  1728 ;;           ___awmod (ARG)
  1729 ;;         ___awmod (ARG)
  1730 ;;       _fround
  1731 ;;         ___awmod
  1732 ;;         ___bmul
  1733 ;;           ___awmod (ARG)
  1734 ;;           ___awdiv (ARG)
  1735 ;;             ___awmod (ARG)
  1736 ;;         ___awdiv
  1737 ;;           ___awmod (ARG)
  1738 ;;         ___ftmul
  1739 ;;           ___ftpack
  1740 ;;           ___lwtoft (ARG)
  1741 ;;             ___ftpack
  1742 ;;           ___fttol (ARG)
  1743 ;;             ___ftpack (ARG)
  1744 ;;             ___awmod (ARG)
  1745 ;;             ___bmul (ARG)
  1746 ;;               ___awmod (ARG)
  1747 ;;               ___awdiv (ARG)
  1748 ;;                 ___awmod (ARG)
  1749 ;;             ___awdiv (ARG)
  1750 ;;               ___awmod (ARG)
  1751 ;;           ___bmul (ARG)
  1752 ;;             ___awmod (ARG)
  1753 ;;             ___awdiv (ARG)
  1754 ;;               ___awmod (ARG)
  1755 ;;           ___awdiv (ARG)
  1756 ;;             ___awmod (ARG)
  1757 ;;           ___awmod (ARG)
  1758 ;;         ___ftadd (ARG)
  1759 ;;           ___ftpack
  1760 ;;           ___awmod (ARG)
  1761 ;;           ___bmul (ARG)
  1762 ;;             ___awmod (ARG)
  1763 ;;             ___awdiv (ARG)
  1764 ;;               ___awmod (ARG)
  1765 ;;           ___awdiv (ARG)
  1766 ;;             ___awmod (ARG)
  1767 ;;           ___ftmul (ARG)
  1768 ;;             ___ftpack
  1769 ;;             ___lwtoft (ARG)
  1770 ;;               ___ftpack
  1771 ;;             ___fttol (ARG)
  1772 ;;               ___ftpack (ARG)
  1773 ;;               ___awmod (ARG)
  1774 ;;               ___bmul (ARG)
  1775 ;;                 ___awmod (ARG)
  1776 ;;                 ___awdiv (ARG)
  1777 ;;                   ___awmod (ARG)
  1778 ;;               ___awdiv (ARG)
  1779 ;;                 ___awmod (ARG)
  1780 ;;             ___bmul (ARG)
  1781 ;;               ___awmod (ARG)
  1782 ;;               ___awdiv (ARG)
  1783 ;;                 ___awmod (ARG)
  1784 ;;             ___awdiv (ARG)
  1785 ;;               ___awmod (ARG)
  1786 ;;             ___awmod (ARG)
  1787 ;;       ___ftadd
  1788 ;;         ___ftpack
  1789 ;;         ___awmod (ARG)
  1790 ;;         ___bmul (ARG)
  1791 ;;           ___awmod (ARG)
  1792 ;;           ___awdiv (ARG)
  1793 ;;             ___awmod (ARG)
  1794 ;;         ___awdiv (ARG)
  1795 ;;           ___awmod (ARG)
  1796 ;;         ___ftmul (ARG)
  1797 ;;           ___ftpack
  1798 ;;           ___lwtoft (ARG)
  1799 ;;             ___ftpack
  1800 ;;           ___fttol (ARG)
  1801 ;;             ___ftpack (ARG)
  1802 ;;             ___awmod (ARG)
  1803 ;;             ___bmul (ARG)
  1804 ;;               ___awmod (ARG)
  1805 ;;               ___awdiv (ARG)
  1806 ;;                 ___awmod (ARG)
  1807 ;;             ___awdiv (ARG)
  1808 ;;               ___awmod (ARG)
  1809 ;;           ___bmul (ARG)
  1810 ;;             ___awmod (ARG)
  1811 ;;             ___awdiv (ARG)
  1812 ;;               ___awmod (ARG)
  1813 ;;           ___awdiv (ARG)
  1814 ;;             ___awmod (ARG)
  1815 ;;           ___awmod (ARG)
  1816 ;;       ___fttol
  1817 ;;         ___ftpack (ARG)
  1818 ;;         ___awmod (ARG)
  1819 ;;         ___bmul (ARG)
  1820 ;;           ___awmod (ARG)
  1821 ;;           ___awdiv (ARG)
  1822 ;;             ___awmod (ARG)
  1823 ;;         ___awdiv (ARG)
  1824 ;;           ___awmod (ARG)
  1825 ;;       __div_to_l_
  1826 ;;       __tdiv_to_l_
  1827 ;;       ___lltoft
  1828 ;;         ___ftpack
  1829 ;;       ___ftsub
  1830 ;;         ___ftadd
  1831 ;;           ___ftpack
  1832 ;;           ___awmod (ARG)
  1833 ;;           ___bmul (ARG)
  1834 ;;             ___awmod (ARG)
  1835 ;;             ___awdiv (ARG)
  1836 ;;               ___awmod (ARG)
  1837 ;;           ___awdiv (ARG)
  1838 ;;             ___awmod (ARG)
  1839 ;;           ___ftmul (ARG)
  1840 ;;             ___ftpack
  1841 ;;             ___lwtoft (ARG)
  1842 ;;               ___ftpack
  1843 ;;             ___fttol (ARG)
  1844 ;;               ___ftpack (ARG)
  1845 ;;               ___awmod (ARG)
  1846 ;;               ___bmul (ARG)
  1847 ;;                 ___awmod (ARG)
  1848 ;;                 ___awdiv (ARG)
  1849 ;;                   ___awmod (ARG)
  1850 ;;               ___awdiv (ARG)
  1851 ;;                 ___awmod (ARG)
  1852 ;;             ___bmul (ARG)
  1853 ;;               ___awmod (ARG)
  1854 ;;               ___awdiv (ARG)
  1855 ;;                 ___awmod (ARG)
  1856 ;;             ___awdiv (ARG)
  1857 ;;               ___awmod (ARG)
  1858 ;;             ___awmod (ARG)
  1859 ;;         ___lltoft (ARG)
  1860 ;;           ___ftpack
  1861 ;;       ___lldiv
  1862 ;;       ___llmod
  1863 ;;         ___lldiv (ARG)
  1864 ;;   ___ftge
  1865 ;;
  1866                           
  1867 ;; Address spaces:
  1868                           
  1869 ;;Name               Size   Autos  Total    Cost      Usage
  1870 ;;BITCOMMON            E      0       0       0        0.0%
  1871 ;;EEDATA             100      0       0       0        0.0%
  1872 ;;NULL                 0      0       0       0        0.0%
  1873 ;;CODE                 0      0       0       0        0.0%
  1874 ;;COMMON               E      E       E       1      100.0%
  1875 ;;BITSFR0              0      0       0       1        0.0%
  1876 ;;SFR0                 0      0       0       1        0.0%
  1877 ;;BITSFR1              0      0       0       2        0.0%
  1878 ;;SFR1                 0      0       0       2        0.0%
  1879 ;;STACK                0      0       5       2        0.0%
  1880 ;;ABS                  0      0      DB       3        0.0%
  1881 ;;BITBANK0            50      0       0       4        0.0%
  1882 ;;BITSFR3              0      0       0       4        0.0%
  1883 ;;SFR3                 0      0       0       4        0.0%
  1884 ;;BANK0               50     50      50       5      100.0%
  1885 ;;BITSFR2              0      0       0       5        0.0%
  1886 ;;SFR2                 0      0       0       5        0.0%
  1887 ;;BITBANK1            50      0       0       6        0.0%
  1888 ;;BANK1               50     1F      2D       7       56.3%
  1889 ;;BITBANK3            60      0       0       8        0.0%
  1890 ;;BANK3               60      0      50       9       83.3%
  1891 ;;BITBANK2            60      0       0      10        0.0%
  1892 ;;BANK2               60      0       0      11        0.0%
  1893 ;;DATA                 0      0      E0      12        0.0%
  1894                           
  1895                           	global	_main
  1896                           psect	maintext,global,class=CODE,delta=2
  1897                           global __pmaintext
  1898  15EB                     __pmaintext:
  1899                           
  1900 ;; *************** function _main *****************
  1901 ;; Defined at:
  1902 ;;		line 21 in file "C:\PIC_PROGS\ProyectoMicros\PIC\main.c"
  1903 ;; Parameters:    Size  Location     Type
  1904 ;;		None
  1905 ;; Auto vars:     Size  Location     Type
  1906 ;;		None
  1907 ;; Return value:  Size  Location     Type
  1908 ;;		None               void
  1909 ;; Registers used:
  1910 ;;		wreg, fsr0l, fsr0h, status,2, status,0, btemp+1, pclath, cstack
  1911 ;; Tracked objects:
  1912 ;;		On entry : 17F/0
  1913 ;;		On exit  : 0/0
  1914 ;;		Unchanged: 0/0
  1915 ;; Data sizes:     COMMON   BANK0   BANK1   BANK3   BANK2
  1916 ;;      Params:         0       0       0       0       0
  1917 ;;      Locals:         0       0       0       0       0
  1918 ;;      Temps:          0       0       3       0       0
  1919 ;;      Totals:         0       0       3       0       0
  1920 ;;Total ram usage:        3 bytes
  1921 ;; Hardware stack levels required when called:    5
  1922 ;; This function calls:
  1923 ;;		_init_comms
  1924 ;;		_lcd_init
  1925 ;;		_lcd_goto
  1926 ;;		_lcd_puts
  1927 ;;		_pause
  1928 ;;		_lcd_clear
  1929 ;;		_getch
  1930 ;;		_printf
  1931 ;;		___lwtoft
  1932 ;;		___ftmul
  1933 ;;		___ftdiv
  1934 ;;		_sprintf
  1935 ;;		___ftge
  1936 ;; This function is called by:
  1937 ;;		Startup code after reset
  1938 ;; This function uses a non-reentrant model
  1939 ;;
  1940                           psect	maintext
  1941                           	file	"C:\PIC_PROGS\ProyectoMicros\PIC\main.c"
  1942                           	line	21
  1943                           	global	__size_of_main
  1944  0215                     	__size_of_main	equ	__end_of_main-_main
  1945                           	
  1946  15EB                     _main:	
  1947                           	opt	stack 3
  1948                           ; Regs used in _main: [wreg-fsr0h+status,2+status,0+btemp+1+pclath+cstack]
  1949                           	line	23
  1950                           	
  1951  15EB                     l10454:	
  1952                           ;main.c: 23: ANSEL = 0xE0;
  1953  15EB  30E0               	movlw	(0E0h)
  1954  15EC  1683               	bsf	status, 5	;RP0=1, select bank3
  1955  15ED  1703               	bsf	status, 6	;RP1=1, select bank3
  1956  15EE  0088               	movwf	(392)^0180h	;volatile
  1957                           	line	24
  1958                           	
  1959  15EF                     l10456:	
  1960                           ;main.c: 24: ANSELH = 0;
  1961  15EF  0189               	clrf	(393)^0180h	;volatile
  1962                           	line	25
  1963                           	
  1964  15F0                     l10458:	
  1965                           ;main.c: 25: CM1CON0 = 0;
  1966  15F0  1283               	bcf	status, 5	;RP0=0, select bank2
  1967  15F1  1703               	bsf	status, 6	;RP1=1, select bank2
  1968  15F2  0187               	clrf	(263)^0100h	;volatile
  1969                           	line	26
  1970                           	
  1971  15F3                     l10460:	
  1972                           ;main.c: 26: CM2CON0 = 0;
  1973  15F3  0188               	clrf	(264)^0100h	;volatile
  1974                           	line	27
  1975                           	
  1976  15F4                     l10462:	
  1977                           ;main.c: 27: TRISA = 0x00;
  1978  15F4  1683               	bsf	status, 5	;RP0=1, select bank1
  1979  15F5  1303               	bcf	status, 6	;RP1=0, select bank1
  1980  15F6  0185               	clrf	(133)^080h	;volatile
  1981                           	line	28
  1982                           	
  1983  15F7                     l10464:	
  1984                           ;main.c: 28: TRISB = 0x00;
  1985  15F7  0186               	clrf	(134)^080h	;volatile
  1986                           	line	29
  1987                           	
  1988  15F8                     l10466:	
  1989                           ;main.c: 29: TRISC = 0x00;
  1990  15F8  0187               	clrf	(135)^080h	;volatile
  1991                           	line	30
  1992                           	
  1993  15F9                     l10468:	
  1994                           ;main.c: 30: TRISD = 0x00;
  1995  15F9  0188               	clrf	(136)^080h	;volatile
  1996                           	line	31
  1997                           	
  1998  15FA                     l10470:	
  1999                           ;main.c: 31: TRISE = 0x07;
  2000  15FA  3007               	movlw	(07h)
  2001  15FB  0089               	movwf	(137)^080h	;volatile
  2002                           	line	32
  2003                           ;main.c: 32: ADCON1= 0x00;
  2004  15FC  019F               	clrf	(159)^080h	;volatile
  2005                           	line	33
  2006                           	
  2007  15FD                     l10472:	
  2008                           ;main.c: 33: init_comms();
  2009  15FD  160A  158A  23F5   	fcall	_init_comms
              160A  118A         
  2010                           	line	34
  2011                           	
  2012  1602                     l10474:	
  2013                           ;main.c: 34: lcd_init();
  2014  1602  160A  158A  256F   	fcall	_lcd_init
              160A  118A         
  2015                           	line	35
  2016                           	
  2017  1607                     l10476:	
  2018                           ;main.c: 35: lcd_goto(0x00);
  2019  1607  3000               	movlw	(0)
  2020  1608  160A  158A  23DA   	fcall	_lcd_goto
              160A  118A         
  2021                           	line	37
  2022                           	
  2023  160D                     l10478:	
  2024                           ;main.c: 37: lcd_puts("Configurando");
  2025  160D  30A3               	movlw	low((STR_1-__stringbase))
  2026  160E  00F6               	movwf	(?_lcd_puts)
  2027  160F  3080               	movlw	80h
  2028  1610  00F7               	movwf	(?_lcd_puts+1)
  2029  1611  160A  158A  24E6   	fcall	_lcd_puts
              160A  118A         
  2030                           	line	38
  2031                           	
  2032  1616                     l10480:	
  2033                           ;main.c: 38: lcd_goto(0x40);
  2034  1616  3040               	movlw	(040h)
  2035  1617  160A  158A  23DA   	fcall	_lcd_goto
              160A  118A         
  2036                           	line	39
  2037                           	
  2038  161C                     l10482:	
  2039                           ;main.c: 39: lcd_puts("puertos I/O...");
  2040  161C  3077               	movlw	low((STR_2-__stringbase))
  2041  161D  00F6               	movwf	(?_lcd_puts)
  2042  161E  3080               	movlw	80h
  2043  161F  00F7               	movwf	(?_lcd_puts+1)
  2044  1620  160A  158A  24E6   	fcall	_lcd_puts
              160A  118A         
  2045                           	line	40
  2046                           	
  2047  1625                     l10484:	
  2048                           ;main.c: 40: pause(500);
  2049  1625  30F4               	movlw	low(01F4h)
  2050  1626  00F0               	movwf	(?_pause)
  2051  1627  3001               	movlw	high(01F4h)
  2052  1628  00F1               	movwf	((?_pause))+1
  2053  1629  160A  158A  245C   	fcall	_pause
              160A  118A         
  2054                           	line	41
  2055                           	
  2056  162E                     l10486:	
  2057                           ;main.c: 41: lcd_clear();
  2058  162E  160A  158A  2407   	fcall	_lcd_clear
              160A  118A         
  2059                           	line	43
  2060                           	
  2061  1633                     l10488:	
  2062                           ;main.c: 43: lcd_puts("Configurando");
  2063  1633  30A3               	movlw	low((STR_3-__stringbase))
  2064  1634  00F6               	movwf	(?_lcd_puts)
  2065  1635  3080               	movlw	80h
  2066  1636  00F7               	movwf	(?_lcd_puts+1)
  2067  1637  160A  158A  24E6   	fcall	_lcd_puts
              160A  118A         
  2068                           	line	44
  2069                           	
  2070  163C                     l10490:	
  2071                           ;main.c: 44: lcd_goto(0x40);
  2072  163C  3040               	movlw	(040h)
  2073  163D  160A  158A  23DA   	fcall	_lcd_goto
              160A  118A         
  2074                           	line	45
  2075                           	
  2076  1642                     l10492:	
  2077                           ;main.c: 45: lcd_puts("PWM...");
  2078  1642  30C3               	movlw	low((STR_4-__stringbase))
  2079  1643  00F6               	movwf	(?_lcd_puts)
  2080  1644  3080               	movlw	80h
  2081  1645  00F7               	movwf	(?_lcd_puts+1)
  2082  1646  160A  158A  24E6   	fcall	_lcd_puts
              160A  118A         
  2083                           	line	46
  2084                           	
  2085  164B                     l10494:	
  2086                           ;main.c: 46: pause(500);
  2087  164B  30F4               	movlw	low(01F4h)
  2088  164C  00F0               	movwf	(?_pause)
  2089  164D  3001               	movlw	high(01F4h)
  2090  164E  00F1               	movwf	((?_pause))+1
  2091  164F  160A  158A  245C   	fcall	_pause
              160A  118A         
  2092                           	line	47
  2093                           	
  2094  1654                     l10496:	
  2095                           ;main.c: 47: lcd_clear();
  2096  1654  160A  158A  2407   	fcall	_lcd_clear
              160A  118A         
  2097                           	line	48
  2098                           	
  2099  1659                     l10498:	
  2100                           ;main.c: 48: PR2= 0xBF;
  2101  1659  30BF               	movlw	(0BFh)
  2102  165A  1683               	bsf	status, 5	;RP0=1, select bank1
  2103  165B  1303               	bcf	status, 6	;RP1=0, select bank1
  2104  165C  0092               	movwf	(146)^080h	;volatile
  2105                           	line	49
  2106                           	
  2107  165D                     l10500:	
  2108                           ;main.c: 49: CCPR1L=0x80;
  2109  165D  3080               	movlw	(080h)
  2110  165E  1283               	bcf	status, 5	;RP0=0, select bank0
  2111  165F  1303               	bcf	status, 6	;RP1=0, select bank0
  2112  1660  0095               	movwf	(21)	;volatile
  2113                           	line	50
  2114                           	
  2115  1661                     l10502:	
  2116                           ;main.c: 50: CCPR2L=0x80;
  2117  1661  3080               	movlw	(080h)
  2118  1662  009B               	movwf	(27)	;volatile
  2119                           	line	51
  2120                           	
  2121  1663                     l10504:	
  2122                           ;main.c: 51: CCP1CON=0x0C;
  2123  1663  300C               	movlw	(0Ch)
  2124  1664  0097               	movwf	(23)	;volatile
  2125                           	line	52
  2126                           	
  2127  1665                     l10506:	
  2128                           ;main.c: 52: CCP2CON=0x0C;
  2129  1665  300C               	movlw	(0Ch)
  2130  1666  009D               	movwf	(29)	;volatile
  2131                           	line	53
  2132                           	
  2133  1667                     l10508:	
  2134                           ;main.c: 53: T2CON=0x07;
  2135  1667  3007               	movlw	(07h)
  2136  1668  0092               	movwf	(18)	;volatile
  2137                           	line	54
  2138                           ;main.c: 54: while (TMR2IF ==0);
  2139  1669  2E6A               	goto	l1057
  2140                           	
  2141  166A                     l1058:	
  2142                           	
  2143  166A                     l1057:	
  2144  166A  1C8C               	btfss	(97/8),(97)&7
  2145  166B  2E6D               	goto	u5391
  2146  166C  2E6E               	goto	u5390
  2147  166D                     u5391:
  2148  166D  2E6A               	goto	l1057
  2149  166E                     u5390:
  2150  166E  2E6F               	goto	l10510
  2151                           	
  2152  166F                     l1059:	
  2153                           	line	55
  2154                           	
  2155  166F                     l10510:	
  2156                           ;main.c: 55: INTCON=0;
  2157  166F  018B               	clrf	(11)	;volatile
  2158                           	line	57
  2159                           ;main.c: 57: CCPR1L=0x00;
  2160  1670  0195               	clrf	(21)	;volatile
  2161                           	line	58
  2162                           ;main.c: 58: CCPR2L=0x00;
  2163  1671  019B               	clrf	(27)	;volatile
  2164                           	line	59
  2165                           ;main.c: 59: VADCH=0;
  2166  1672  1683               	bsf	status, 5	;RP0=1, select bank1
  2167  1673  1303               	bcf	status, 6	;RP1=0, select bank1
  2168  1674  01C7               	clrf	(_VADCH)^080h
  2169  1675  01C8               	clrf	(_VADCH+1)^080h
  2170                           	line	60
  2171                           ;main.c: 60: VADCL=0;
  2172  1676  01C9               	clrf	(_VADCL)^080h
  2173  1677  01CA               	clrf	(_VADCL+1)^080h
  2174                           	line	61
  2175                           ;main.c: 61: VADC=0;
  2176  1678  01C5               	clrf	(_VADC)^080h
  2177  1679  01C6               	clrf	(_VADC+1)^080h
  2178                           	line	62
  2179                           	
  2180  167A                     l10512:	
  2181                           ;main.c: 62: a=0;
  2182  167A  3000               	movlw	0x0
  2183  167B  00BF               	movwf	(_a)^080h
  2184  167C  3000               	movlw	0x0
  2185  167D  00C0               	movwf	(_a+1)^080h
  2186  167E  3000               	movlw	0x0
  2187  167F  00C1               	movwf	(_a+2)^080h
  2188                           	line	63
  2189                           	
  2190  1680                     l10514:	
  2191                           ;main.c: 63: lcd_goto(0x00);
  2192  1680  3000               	movlw	(0)
  2193  1681  160A  158A  23DA   	fcall	_lcd_goto
              160A  118A         
  2194                           	line	64
  2195                           	
  2196  1686                     l10516:	
  2197                           ;main.c: 64: lcd_puts("Iniciando");
  2198  1686  30B0               	movlw	low((STR_5-__stringbase))
  2199  1687  00F6               	movwf	(?_lcd_puts)
  2200  1688  3080               	movlw	80h
  2201  1689  00F7               	movwf	(?_lcd_puts+1)
  2202  168A  160A  158A  24E6   	fcall	_lcd_puts
              160A  118A         
  2203                           	line	65
  2204                           	
  2205  168F                     l10518:	
  2206                           ;main.c: 65: lcd_goto(0x40);
  2207  168F  3040               	movlw	(040h)
  2208  1690  160A  158A  23DA   	fcall	_lcd_goto
              160A  118A         
  2209                           	line	66
  2210                           	
  2211  1695                     l10520:	
  2212                           ;main.c: 66: lcd_puts("Transmision...");
  2213  1695  3086               	movlw	low((STR_6-__stringbase))
  2214  1696  00F6               	movwf	(?_lcd_puts)
  2215  1697  3080               	movlw	80h
  2216  1698  00F7               	movwf	(?_lcd_puts+1)
  2217  1699  160A  158A  24E6   	fcall	_lcd_puts
              160A  118A         
  2218                           	line	67
  2219                           	
  2220  169E                     l10522:	
  2221                           ;main.c: 67: pause(700);
  2222  169E  30BC               	movlw	low(02BCh)
  2223  169F  00F0               	movwf	(?_pause)
  2224  16A0  3002               	movlw	high(02BCh)
  2225  16A1  00F1               	movwf	((?_pause))+1
  2226  16A2  160A  158A  245C   	fcall	_pause
              160A  118A         
  2227  16A7  2EA8               	goto	l10524
  2228                           	line	69
  2229                           ;main.c: 69: while(1)
  2230                           	
  2231  16A8                     l1060:	
  2232                           	line	74
  2233                           	
  2234  16A8                     l10524:	
  2235                           ;main.c: 70: {
  2236                           ;main.c: 74: input = getch();
  2237  16A8  160A  158A  23B8   	fcall	_getch
              160A  118A         
  2238  16AD  1683               	bsf	status, 5	;RP0=1, select bank1
  2239  16AE  1303               	bcf	status, 6	;RP1=0, select bank1
  2240  16AF  00BC               	movwf	(??_main+0)^080h+0
  2241  16B0  01BD               	clrf	(??_main+0)^080h+0+1
  2242  16B1  083C               	movf	0+(??_main+0)^080h+0,w
  2243  16B2  00CB               	movwf	(_input)^080h
  2244  16B3  083D               	movf	1+(??_main+0)^080h+0,w
  2245  16B4  00CC               	movwf	(_input+1)^080h
  2246                           	line	75
  2247                           	
  2248  16B5                     l10526:	
  2249                           ;main.c: 75: ADCON0=0XD4;
  2250  16B5  30D4               	movlw	(0D4h)
  2251  16B6  1283               	bcf	status, 5	;RP0=0, select bank0
  2252  16B7  1303               	bcf	status, 6	;RP1=0, select bank0
  2253  16B8  009F               	movwf	(31)	;volatile
  2254                           	line	76
  2255                           	
  2256  16B9                     l10528:	
  2257                           ;main.c: 76: ADON=1;
  2258  16B9  141F               	bsf	(248/8),(248)&7
  2259                           	line	77
  2260                           	
  2261  16BA                     l10530:	
  2262                           ;main.c: 77: GO_DONE=1;
  2263  16BA  149F               	bsf	(249/8),(249)&7
  2264                           	line	78
  2265                           ;main.c: 78: while(GO_DONE==1);
  2266  16BB  2EBC               	goto	l1061
  2267                           	
  2268  16BC                     l1062:	
  2269                           	
  2270  16BC                     l1061:	
  2271  16BC  189F               	btfsc	(249/8),(249)&7
  2272  16BD  2EBF               	goto	u5401
  2273  16BE  2EC0               	goto	u5400
  2274  16BF                     u5401:
  2275  16BF  2EBC               	goto	l1061
  2276  16C0                     u5400:
  2277  16C0  2EC1               	goto	l10532
  2278                           	
  2279  16C1                     l1063:	
  2280                           	line	79
  2281                           	
  2282  16C1                     l10532:	
  2283                           ;main.c: 79: VADCH=ADRESH;
  2284  16C1  081E               	movf	(30),w	;volatile
  2285  16C2  1683               	bsf	status, 5	;RP0=1, select bank1
  2286  16C3  1303               	bcf	status, 6	;RP1=0, select bank1
  2287  16C4  00BC               	movwf	(??_main+0)^080h+0
  2288  16C5  01BD               	clrf	(??_main+0)^080h+0+1
  2289  16C6  083C               	movf	0+(??_main+0)^080h+0,w
  2290  16C7  00C7               	movwf	(_VADCH)^080h
  2291  16C8  083D               	movf	1+(??_main+0)^080h+0,w
  2292  16C9  00C8               	movwf	(_VADCH+1)^080h
  2293                           	line	80
  2294                           ;main.c: 80: VADCL=ADRESL;
  2295  16CA  081E               	movf	(158)^080h,w	;volatile
  2296  16CB  00BC               	movwf	(??_main+0)^080h+0
  2297  16CC  01BD               	clrf	(??_main+0)^080h+0+1
  2298  16CD  083C               	movf	0+(??_main+0)^080h+0,w
  2299  16CE  00C9               	movwf	(_VADCL)^080h
  2300  16CF  083D               	movf	1+(??_main+0)^080h+0,w
  2301  16D0  00CA               	movwf	(_VADCL+1)^080h
  2302                           	line	81
  2303                           	
  2304  16D1                     l10534:	
  2305                           ;main.c: 81: VADC=(ADRESH<<2)+(ADRESL>>6);
  2306  16D1  081E               	movf	(158)^080h,w	;volatile
  2307  16D2  00BC               	movwf	(??_main+0)^080h+0
  2308  16D3  3006               	movlw	06h
  2309  16D4                     u5415:
  2310  16D4  1003               	clrc
  2311  16D5  0CBC               	rrf	(??_main+0)^080h+0,f
  2312  16D6  3EFF               	addlw	-1
  2313  16D7  1D03               	skipz
  2314  16D8  2ED4               	goto	u5415
  2315  16D9  1283               	bcf	status, 5	;RP0=0, select bank0
  2316  16DA  1303               	bcf	status, 6	;RP1=0, select bank0
  2317  16DB  081E               	movf	(30),w	;volatile
  2318  16DC  1683               	bsf	status, 5	;RP0=1, select bank1
  2319  16DD  1303               	bcf	status, 6	;RP1=0, select bank1
  2320  16DE  00BD               	movwf	(??_main+1)^080h+0
  2321  16DF  01BE               	clrf	(??_main+1)^080h+0+1
  2322  16E0  3002               	movlw	02h
  2323  16E1  00FF               	movwf	btemp+1
  2324  16E2                     u5425:
  2325  16E2  1003               	clrc
  2326  16E3  0DBD               	rlf	(??_main+1)^080h+0,f
  2327  16E4  0DBE               	rlf	(??_main+1)^080h+1,f
  2328  16E5  0BFF               	decfsz	btemp+1,f
  2329  16E6  2EE2               	goto	u5425
  2330  16E7  083C               	movf	0+(??_main+0)^080h+0,w
  2331  16E8  073D               	addwf	0+(??_main+1)^080h+0,w
  2332  16E9  00C5               	movwf	(_VADC)^080h
  2333  16EA  3000               	movlw	0
  2334  16EB  1803               	skipnc
  2335  16EC  3001               	movlw	1
  2336  16ED  073E               	addwf	1+(??_main+1)^080h+0,w
  2337  16EE  00C6               	movwf	1+(_VADC)^080h
  2338                           	line	82
  2339                           	
  2340  16EF                     l10536:	
  2341                           ;main.c: 82: ADON=0;
  2342  16EF  1283               	bcf	status, 5	;RP0=0, select bank0
  2343  16F0  1303               	bcf	status, 6	;RP1=0, select bank0
  2344  16F1  101F               	bcf	(248/8),(248)&7
  2345                           	line	83
  2346                           	
  2347  16F2                     l10538:	
  2348                           ;main.c: 83: printf("%i\r\n",VADC);
  2349  16F2  1683               	bsf	status, 5	;RP0=1, select bank1
  2350  16F3  1303               	bcf	status, 6	;RP1=0, select bank1
  2351  16F4  0846               	movf	(_VADC+1)^080h,w
  2352  16F5  1283               	bcf	status, 5	;RP0=0, select bank0
  2353  16F6  1303               	bcf	status, 6	;RP1=0, select bank0
  2354  16F7  01EB               	clrf	(?_printf+1)
  2355  16F8  07EB               	addwf	(?_printf+1)
  2356  16F9  1683               	bsf	status, 5	;RP0=1, select bank1
  2357  16FA  1303               	bcf	status, 6	;RP1=0, select bank1
  2358  16FB  0845               	movf	(_VADC)^080h,w
  2359  16FC  1283               	bcf	status, 5	;RP0=0, select bank0
  2360  16FD  1303               	bcf	status, 6	;RP1=0, select bank0
  2361  16FE  01EA               	clrf	(?_printf)
  2362  16FF  07EA               	addwf	(?_printf)
  2363                           
  2364  1700  30CA               	movlw	((STR_7-__stringbase))&0ffh
  2365  1701  160A  158A  2496   	fcall	_printf
              160A  118A         
  2366                           	line	84
  2367                           	
  2368  1706                     l10540:	
  2369                           ;main.c: 84: a=(float)VADC*500/1024;
  2370  1706  3000               	movlw	0x0
  2371  1707  1283               	bcf	status, 5	;RP0=0, select bank0
  2372  1708  1303               	bcf	status, 6	;RP1=0, select bank0
  2373  1709  00C5               	movwf	(?___ftdiv)
  2374  170A  3080               	movlw	0x80
  2375  170B  00C6               	movwf	(?___ftdiv+1)
  2376  170C  3044               	movlw	0x44
  2377  170D  00C7               	movwf	(?___ftdiv+2)
  2378  170E  3000               	movlw	0x0
  2379  170F  00B5               	movwf	(?___ftmul)
  2380  1710  30FA               	movlw	0xfa
  2381  1711  00B6               	movwf	(?___ftmul+1)
  2382  1712  3043               	movlw	0x43
  2383  1713  00B7               	movwf	(?___ftmul+2)
  2384  1714  1683               	bsf	status, 5	;RP0=1, select bank1
  2385  1715  1303               	bcf	status, 6	;RP1=0, select bank1
  2386  1716  0846               	movf	(_VADC+1)^080h,w
  2387  1717  01F9               	clrf	(?___lwtoft+1)
  2388  1718  07F9               	addwf	(?___lwtoft+1)
  2389  1719  0845               	movf	(_VADC)^080h,w
  2390  171A  01F8               	clrf	(?___lwtoft)
  2391  171B  07F8               	addwf	(?___lwtoft)
  2392                           
  2393  171C  160A  158A  2445   	fcall	___lwtoft
              160A  118A         
  2394  1721  0878               	movf	(0+(?___lwtoft)),w
  2395  1722  1283               	bcf	status, 5	;RP0=0, select bank0
  2396  1723  1303               	bcf	status, 6	;RP1=0, select bank0
  2397  1724  00B8               	movwf	0+(?___ftmul)+03h
  2398  1725  0879               	movf	(1+(?___lwtoft)),w
  2399  1726  00B9               	movwf	1+(?___ftmul)+03h
  2400  1727  087A               	movf	(2+(?___lwtoft)),w
  2401  1728  00BA               	movwf	2+(?___ftmul)+03h
  2402  1729  120A  118A  2709   	fcall	___ftmul
              160A  118A         
  2403  172E  1283               	bcf	status, 5	;RP0=0, select bank0
  2404  172F  1303               	bcf	status, 6	;RP1=0, select bank0
  2405  1730  0835               	movf	(0+(?___ftmul)),w
  2406  1731  00C8               	movwf	0+(?___ftdiv)+03h
  2407  1732  0836               	movf	(1+(?___ftmul)),w
  2408  1733  00C9               	movwf	1+(?___ftdiv)+03h
  2409  1734  0837               	movf	(2+(?___ftmul)),w
  2410  1735  00CA               	movwf	2+(?___ftdiv)+03h
  2411  1736  160A  118A  21A7   	fcall	___ftdiv
              160A  118A         
  2412  173B  1283               	bcf	status, 5	;RP0=0, select bank0
  2413  173C  1303               	bcf	status, 6	;RP1=0, select bank0
  2414  173D  0845               	movf	(0+(?___ftdiv)),w
  2415  173E  1683               	bsf	status, 5	;RP0=1, select bank1
  2416  173F  1303               	bcf	status, 6	;RP1=0, select bank1
  2417  1740  00BF               	movwf	(_a)^080h
  2418  1741  1283               	bcf	status, 5	;RP0=0, select bank0
  2419  1742  1303               	bcf	status, 6	;RP1=0, select bank0
  2420  1743  0846               	movf	(1+(?___ftdiv)),w
  2421  1744  1683               	bsf	status, 5	;RP0=1, select bank1
  2422  1745  1303               	bcf	status, 6	;RP1=0, select bank1
  2423  1746  00C0               	movwf	(_a+1)^080h
  2424  1747  1283               	bcf	status, 5	;RP0=0, select bank0
  2425  1748  1303               	bcf	status, 6	;RP1=0, select bank0
  2426  1749  0847               	movf	(2+(?___ftdiv)),w
  2427  174A  1683               	bsf	status, 5	;RP0=1, select bank1
  2428  174B  1303               	bcf	status, 6	;RP1=0, select bank1
  2429  174C  00C1               	movwf	(_a+2)^080h
  2430                           	line	85
  2431                           	
  2432  174D                     l10542:	
  2433                           ;main.c: 85: b=(float)input;
  2434  174D  084C               	movf	(_input+1)^080h,w
  2435  174E  01F9               	clrf	(?___lwtoft+1)
  2436  174F  07F9               	addwf	(?___lwtoft+1)
  2437  1750  084B               	movf	(_input)^080h,w
  2438  1751  01F8               	clrf	(?___lwtoft)
  2439  1752  07F8               	addwf	(?___lwtoft)
  2440                           
  2441  1753  160A  158A  2445   	fcall	___lwtoft
              160A  118A         
  2442  1758  0878               	movf	(0+(?___lwtoft)),w
  2443  1759  1683               	bsf	status, 5	;RP0=1, select bank1
  2444  175A  1303               	bcf	status, 6	;RP1=0, select bank1
  2445  175B  00C2               	movwf	(_b)^080h
  2446  175C  0879               	movf	(1+(?___lwtoft)),w
  2447  175D  00C3               	movwf	(_b+1)^080h
  2448  175E  087A               	movf	(2+(?___lwtoft)),w
  2449  175F  00C4               	movwf	(_b+2)^080h
  2450                           	line	86
  2451                           	
  2452  1760                     l10544:	
  2453                           ;main.c: 86: lcd_clear();
  2454  1760  160A  158A  2407   	fcall	_lcd_clear
              160A  118A         
  2455                           	line	87
  2456                           	
  2457  1765                     l10546:	
  2458                           ;main.c: 87: lcd_goto(0);
  2459  1765  3000               	movlw	(0)
  2460  1766  160A  158A  23DA   	fcall	_lcd_goto
              160A  118A         
  2461                           	line	88
  2462                           	
  2463  176B                     l10548:	
  2464                           ;main.c: 88: sprintf(str,"Tmp=%.1f",a);
  2465  176B  30BA               	movlw	((STR_8-__stringbase))&0ffh
  2466  176C  1683               	bsf	status, 5	;RP0=1, select bank1
  2467  176D  1303               	bcf	status, 6	;RP1=0, select bank1
  2468  176E  00BC               	movwf	(??_main+0)^080h+0
  2469  176F  083C               	movf	(??_main+0)^080h+0,w
  2470  1770  1283               	bcf	status, 5	;RP0=0, select bank0
  2471  1771  1303               	bcf	status, 6	;RP1=0, select bank0
  2472  1772  00EA               	movwf	(?_sprintf)
  2473  1773  1683               	bsf	status, 5	;RP0=1, select bank1
  2474  1774  1303               	bcf	status, 6	;RP1=0, select bank1
  2475  1775  083F               	movf	(_a)^080h,w
  2476  1776  1283               	bcf	status, 5	;RP0=0, select bank0
  2477  1777  1303               	bcf	status, 6	;RP1=0, select bank0
  2478  1778  00EB               	movwf	0+(?_sprintf)+01h
  2479  1779  1683               	bsf	status, 5	;RP0=1, select bank1
  2480  177A  1303               	bcf	status, 6	;RP1=0, select bank1
  2481  177B  0840               	movf	(_a+1)^080h,w
  2482  177C  1283               	bcf	status, 5	;RP0=0, select bank0
  2483  177D  1303               	bcf	status, 6	;RP1=0, select bank0
  2484  177E  00EC               	movwf	1+(?_sprintf)+01h
  2485  177F  1683               	bsf	status, 5	;RP0=1, select bank1
  2486  1780  1303               	bcf	status, 6	;RP1=0, select bank1
  2487  1781  0841               	movf	(_a+2)^080h,w
  2488  1782  1283               	bcf	status, 5	;RP0=0, select bank0
  2489  1783  1303               	bcf	status, 6	;RP1=0, select bank0
  2490  1784  00ED               	movwf	2+(?_sprintf)+01h
  2491  1785  3090               	movlw	(_str)&0ffh
  2492  1786  120A  158A  2003   	fcall	_sprintf
              160A  118A         
  2493                           	line	89
  2494                           	
  2495  178B                     l10550:	
  2496                           ;main.c: 89: lcd_puts(str);
  2497  178B  3090               	movlw	(_str&0ffh)
  2498  178C  00F6               	movwf	(?_lcd_puts)
  2499  178D  3001               	movlw	(0x3/2)
  2500  178E  00F7               	movwf	(?_lcd_puts+1)
  2501  178F  160A  158A  24E6   	fcall	_lcd_puts
              160A  118A         
  2502                           	line	90
  2503                           	
  2504  1794                     l10552:	
  2505                           ;main.c: 90: lcd_goto(0x40);
  2506  1794  3040               	movlw	(040h)
  2507  1795  160A  158A  23DA   	fcall	_lcd_goto
              160A  118A         
  2508                           	line	91
  2509                           	
  2510  179A                     l10554:	
  2511                           ;main.c: 91: sprintf(str,"Tmpobj=%i%.1f",input,b);
  2512  179A  3095               	movlw	((STR_9-__stringbase))&0ffh
  2513  179B  1683               	bsf	status, 5	;RP0=1, select bank1
  2514  179C  1303               	bcf	status, 6	;RP1=0, select bank1
  2515  179D  00BC               	movwf	(??_main+0)^080h+0
  2516  179E  083C               	movf	(??_main+0)^080h+0,w
  2517  179F  1283               	bcf	status, 5	;RP0=0, select bank0
  2518  17A0  1303               	bcf	status, 6	;RP1=0, select bank0
  2519  17A1  00EA               	movwf	(?_sprintf)
  2520  17A2  1683               	bsf	status, 5	;RP0=1, select bank1
  2521  17A3  1303               	bcf	status, 6	;RP1=0, select bank1
  2522  17A4  084C               	movf	(_input+1)^080h,w
  2523  17A5  1283               	bcf	status, 5	;RP0=0, select bank0
  2524  17A6  1303               	bcf	status, 6	;RP1=0, select bank0
  2525  17A7  01EC               	clrf	1+(?_sprintf)+01h
  2526  17A8  07EC               	addwf	1+(?_sprintf)+01h
  2527  17A9  1683               	bsf	status, 5	;RP0=1, select bank1
  2528  17AA  1303               	bcf	status, 6	;RP1=0, select bank1
  2529  17AB  084B               	movf	(_input)^080h,w
  2530  17AC  1283               	bcf	status, 5	;RP0=0, select bank0
  2531  17AD  1303               	bcf	status, 6	;RP1=0, select bank0
  2532  17AE  01EB               	clrf	0+(?_sprintf)+01h
  2533  17AF  07EB               	addwf	0+(?_sprintf)+01h
  2534                           
  2535  17B0  1683               	bsf	status, 5	;RP0=1, select bank1
  2536  17B1  1303               	bcf	status, 6	;RP1=0, select bank1
  2537  17B2  0842               	movf	(_b)^080h,w
  2538  17B3  1283               	bcf	status, 5	;RP0=0, select bank0
  2539  17B4  1303               	bcf	status, 6	;RP1=0, select bank0
  2540  17B5  00ED               	movwf	0+(?_sprintf)+03h
  2541  17B6  1683               	bsf	status, 5	;RP0=1, select bank1
  2542  17B7  1303               	bcf	status, 6	;RP1=0, select bank1
  2543  17B8  0843               	movf	(_b+1)^080h,w
  2544  17B9  1283               	bcf	status, 5	;RP0=0, select bank0
  2545  17BA  1303               	bcf	status, 6	;RP1=0, select bank0
  2546  17BB  00EE               	movwf	1+(?_sprintf)+03h
  2547  17BC  1683               	bsf	status, 5	;RP0=1, select bank1
  2548  17BD  1303               	bcf	status, 6	;RP1=0, select bank1
  2549  17BE  0844               	movf	(_b+2)^080h,w
  2550  17BF  1283               	bcf	status, 5	;RP0=0, select bank0
  2551  17C0  1303               	bcf	status, 6	;RP1=0, select bank0
  2552  17C1  00EF               	movwf	2+(?_sprintf)+03h
  2553  17C2  3090               	movlw	(_str)&0ffh
  2554  17C3  120A  158A  2003   	fcall	_sprintf
              160A  118A         
  2555                           	line	92
  2556                           	
  2557  17C8                     l10556:	
  2558                           ;main.c: 92: lcd_puts(str);
  2559  17C8  3090               	movlw	(_str&0ffh)
  2560  17C9  00F6               	movwf	(?_lcd_puts)
  2561  17CA  3001               	movlw	(0x3/2)
  2562  17CB  00F7               	movwf	(?_lcd_puts+1)
  2563  17CC  160A  158A  24E6   	fcall	_lcd_puts
              160A  118A         
  2564                           	line	95
  2565                           	
  2566  17D1                     l10558:	
  2567                           ;main.c: 95: if(a>=b)
  2568  17D1  1683               	bsf	status, 5	;RP0=1, select bank1
  2569  17D2  1303               	bcf	status, 6	;RP1=0, select bank1
  2570  17D3  083F               	movf	(_a)^080h,w
  2571  17D4  00F0               	movwf	(?___ftge)
  2572  17D5  0840               	movf	(_a+1)^080h,w
  2573  17D6  00F1               	movwf	(?___ftge+1)
  2574  17D7  0841               	movf	(_a+2)^080h,w
  2575  17D8  00F2               	movwf	(?___ftge+2)
  2576  17D9  0842               	movf	(_b)^080h,w
  2577  17DA  00F3               	movwf	0+(?___ftge)+03h
  2578  17DB  0843               	movf	(_b+1)^080h,w
  2579  17DC  00F4               	movwf	1+(?___ftge)+03h
  2580  17DD  0844               	movf	(_b+2)^080h,w
  2581  17DE  00F5               	movwf	2+(?___ftge)+03h
  2582  17DF  160A  158A  2635   	fcall	___ftge
              160A  118A         
  2583  17E4  1C03               	btfss	status,0
  2584  17E5  2FE7               	goto	u5431
  2585  17E6  2FE8               	goto	u5430
  2586  17E7                     u5431:
  2587  17E7  2FEE               	goto	l1064
  2588  17E8                     u5430:
  2589                           	line	97
  2590                           	
  2591  17E8                     l10560:	
  2592                           ;main.c: 96: {
  2593                           ;main.c: 97: RB0=0;
  2594  17E8  1283               	bcf	status, 5	;RP0=0, select bank0
  2595  17E9  1303               	bcf	status, 6	;RP1=0, select bank0
  2596  17EA  1006               	bcf	(48/8),(48)&7
  2597                           	line	98
  2598                           	
  2599  17EB                     l10562:	
  2600                           ;main.c: 98: CCPR2L=0x00;
  2601  17EB  019B               	clrf	(27)	;volatile
  2602                           	line	99
  2603                           ;main.c: 99: CCPR1L=0x00;
  2604  17EC  0195               	clrf	(21)	;volatile
  2605                           	line	101
  2606                           ;main.c: 101: }
  2607  17ED  2FF7               	goto	l1065
  2608                           	line	102
  2609                           	
  2610  17EE                     l1064:	
  2611                           	line	104
  2612                           ;main.c: 102: else
  2613                           ;main.c: 103: {
  2614                           ;main.c: 104: RB0=1;
  2615  17EE  1283               	bcf	status, 5	;RP0=0, select bank0
  2616  17EF  1303               	bcf	status, 6	;RP1=0, select bank0
  2617  17F0  1406               	bsf	(48/8),(48)&7
  2618                           	line	105
  2619                           	
  2620  17F1                     l10564:	
  2621                           ;main.c: 105: CCPR2L=input;
  2622  17F1  1683               	bsf	status, 5	;RP0=1, select bank1
  2623  17F2  1303               	bcf	status, 6	;RP1=0, select bank1
  2624  17F3  084B               	movf	(_input)^080h,w
  2625  17F4  1283               	bcf	status, 5	;RP0=0, select bank0
  2626  17F5  1303               	bcf	status, 6	;RP1=0, select bank0
  2627  17F6  009B               	movwf	(27)	;volatile
  2628                           	line	106
  2629                           	
  2630  17F7                     l1065:	
  2631                           	line	108
  2632                           ;main.c: 106: }
  2633                           ;main.c: 108: CCP1CON=0x0C;
  2634  17F7  300C               	movlw	(0Ch)
  2635  17F8  0097               	movwf	(23)	;volatile
  2636                           	line	110
  2637                           ;main.c: 110: CCP2CON=0x0C;
  2638  17F9  300C               	movlw	(0Ch)
  2639  17FA  009D               	movwf	(29)	;volatile
  2640  17FB  2EA8               	goto	l10524
  2641                           	line	113
  2642                           	
  2643  17FC                     l1066:	
  2644                           	line	69
  2645  17FC  2EA8               	goto	l10524
  2646                           	
  2647  17FD                     l1067:	
  2648                           	line	115
  2649                           	
  2650  17FD                     l1068:	
  2651                           	global	start
  2652  17FD  120A  118A  2800   	ljmp	start
  2653                           	opt stack 0
  2654                           GLOBAL	__end_of_main
  2655  1800                     	__end_of_main:
  2656 ;; =============== function _main ends ============
  2657                           
  2658                           	signat	_main,88
  2659                           	global	_sprintf
  2660                           psect	text719,local,class=CODE,delta=2
  2661                           global __ptext719
  2662  0803                     __ptext719:
  2663                           
  2664 ;; *************** function _sprintf *****************
  2665 ;; Defined at:
  2666 ;;		line 14 in file "C:\Program Files (x86)\HI-TECH Software\PICC\9.82\sources\sprintf.c"
  2667 ;; Parameters:    Size  Location     Type
  2668 ;;  wh              1    wreg     PTR unsigned char 
  2669 ;;		 -> str(80), 
  2670 ;;  f               1   74[BANK0 ] PTR const unsigned char 
  2671 ;;		 -> STR_9(14), STR_8(9), 
  2672 ;; Auto vars:     Size  Location     Type
  2673 ;;  wh              1   24[BANK1 ] PTR unsigned char 
  2674 ;;		 -> str(80), 
  2675 ;;  pb              2   26[BANK1 ] struct __prbuf
  2676 ;;  ap              1   25[BANK1 ] PTR void [1]
  2677 ;;		 -> ?_sprintf(2), ?_printf(2), 
  2678 ;; Return value:  Size  Location     Type
  2679 ;;                  2   74[BANK0 ] int 
  2680 ;; Registers used:
  2681 ;;		wreg, fsr0l, fsr0h, status,2, status,0, btemp+1, pclath, cstack
  2682 ;; Tracked objects:
  2683 ;;		On entry : 0/0
  2684 ;;		On exit  : 0/0
  2685 ;;		Unchanged: 0/0
  2686 ;; Data sizes:     COMMON   BANK0   BANK1   BANK3   BANK2
  2687 ;;      Params:         0       6       0       0       0
  2688 ;;      Locals:         0       0       4       0       0
  2689 ;;      Temps:          0       0       2       0       0
  2690 ;;      Totals:         0       6       6       0       0
  2691 ;;Total ram usage:       12 bytes
  2692 ;; Hardware stack levels used:    1
  2693 ;; Hardware stack levels required when called:    4
  2694 ;; This function calls:
  2695 ;;		__doprnt
  2696 ;; This function is called by:
  2697 ;;		_main
  2698 ;; This function uses a non-reentrant model
  2699 ;;
  2700                           psect	text719
  2701                           	file	"C:\Program Files (x86)\HI-TECH Software\PICC\9.82\sources\sprintf.c"
  2702                           	line	14
  2703                           	global	__size_of_sprintf
  2704  002C                     	__size_of_sprintf	equ	__end_of_sprintf-_sprintf
  2705                           	
  2706  0803                     _sprintf:	
  2707                           	opt	stack 3
  2708                           ; Regs used in _sprintf: [wreg-fsr0h+status,2+status,0+btemp+1+pclath+cstack]
  2709                           ;sprintf@wh stored from wreg
  2710                           	line	31
  2711  0803  1683               	bsf	status, 5	;RP0=1, select bank1
  2712  0804  1303               	bcf	status, 6	;RP1=0, select bank1
  2713  0805  00B8               	movwf	(sprintf@wh)^080h
  2714                           	
  2715  0806                     l10444:	
  2716  0806  0838               	movf	(sprintf@wh)^080h,w
  2717  0807  00B6               	movwf	(??_sprintf+0)^080h+0
  2718  0808  0836               	movf	(??_sprintf+0)^080h+0,w
  2719  0809  00BA               	movwf	(sprintf@pb)^080h
  2720                           	line	32
  2721                           	
  2722  080A                     l10446:	
  2723  080A  01BB               	clrf	(0+sprintf@pb+01h)^080h
  2724                           	line	33
  2725  080B  306B               	movlw	(?_sprintf+01h)&0ffh
  2726  080C  00B6               	movwf	(??_sprintf+0)^080h+0
  2727  080D  0836               	movf	(??_sprintf+0)^080h+0,w
  2728  080E  00B9               	movwf	(sprintf@ap)^080h
  2729                           	line	34
  2730                           	
  2731  080F                     l10448:	
  2732  080F  1283               	bcf	status, 5	;RP0=0, select bank0
  2733  0810  1303               	bcf	status, 6	;RP1=0, select bank0
  2734  0811  086A               	movf	(sprintf@f),w
  2735  0812  1683               	bsf	status, 5	;RP0=1, select bank1
  2736  0813  1303               	bcf	status, 6	;RP1=0, select bank1
  2737  0814  00B6               	movwf	(??_sprintf+0)^080h+0
  2738  0815  0836               	movf	(??_sprintf+0)^080h+0,w
  2739  0816  1283               	bcf	status, 5	;RP0=0, select bank0
  2740  0817  1303               	bcf	status, 6	;RP1=0, select bank0
  2741  0818  00E2               	movwf	(?__doprnt)
  2742  0819  30B9               	movlw	(sprintf@ap)&0ffh
  2743  081A  1683               	bsf	status, 5	;RP0=1, select bank1
  2744  081B  1303               	bcf	status, 6	;RP1=0, select bank1
  2745  081C  00B7               	movwf	(??_sprintf+1)^080h+0
  2746  081D  0837               	movf	(??_sprintf+1)^080h+0,w
  2747  081E  1283               	bcf	status, 5	;RP0=0, select bank0
  2748  081F  1303               	bcf	status, 6	;RP1=0, select bank0
  2749  0820  00E3               	movwf	(0+?__doprnt+01h)
  2750  0821  30BA               	movlw	(sprintf@pb)&0ffh
  2751  0822  120A  118A  21FA   	fcall	__doprnt
              120A  158A         
  2752                           	line	35
  2753                           	
  2754  0827                     l10450:	
  2755  0827  1683               	bsf	status, 5	;RP0=1, select bank1
  2756  0828  1303               	bcf	status, 6	;RP1=0, select bank1
  2757  0829  083A               	movf	(sprintf@pb)^080h,w
  2758  082A  0084               	movwf	fsr0
  2759  082B  1783               	bsf	status, 7	;select IRP bank2
  2760  082C  0180               	clrf	indf
  2761  082D  282E               	goto	l5951
  2762                           	line	36
  2763                           	
  2764  082E                     l10452:	
  2765                           	line	38
  2766                           ;	Return value of _sprintf is never used
  2767                           	
  2768  082E                     l5951:	
  2769  082E  0008               	return
  2770                           	opt stack 0
  2771                           GLOBAL	__end_of_sprintf
  2772  082F                     	__end_of_sprintf:
  2773 ;; =============== function _sprintf ends ============
  2774                           
  2775                           	signat	_sprintf,4698
  2776                           	global	_printf
  2777                           psect	text720,local,class=CODE,delta=2
  2778                           global __ptext720
  2779  1C96                     __ptext720:
  2780                           
  2781 ;; *************** function _printf *****************
  2782 ;; Defined at:
  2783 ;;		line 14 in file "C:\Program Files (x86)\HI-TECH Software\PICC\9.82\sources\printf.c"
  2784 ;; Parameters:    Size  Location     Type
  2785 ;;  f               1    wreg     PTR const unsigned char 
  2786 ;;		 -> STR_7(5), 
  2787 ;; Auto vars:     Size  Location     Type
  2788 ;;  f               1   22[BANK1 ] PTR const unsigned char 
  2789 ;;		 -> STR_7(5), 
  2790 ;;  pb              2   24[BANK1 ] struct __prbuf
  2791 ;;  ap              1   23[BANK1 ] PTR void [1]
  2792 ;;		 -> ?_sprintf(2), ?_printf(2), 
  2793 ;; Return value:  Size  Location     Type
  2794 ;;                  2   74[BANK0 ] int 
  2795 ;; Registers used:
  2796 ;;		wreg, fsr0l, fsr0h, status,2, status,0, btemp+1, pclath, cstack
  2797 ;; Tracked objects:
  2798 ;;		On entry : 0/0
  2799 ;;		On exit  : 0/0
  2800 ;;		Unchanged: 0/0
  2801 ;; Data sizes:     COMMON   BANK0   BANK1   BANK3   BANK2
  2802 ;;      Params:         0       2       0       0       0
  2803 ;;      Locals:         0       0       4       0       0
  2804 ;;      Temps:          0       2       0       0       0
  2805 ;;      Totals:         0       4       4       0       0
  2806 ;;Total ram usage:        8 bytes
  2807 ;; Hardware stack levels used:    1
  2808 ;; Hardware stack levels required when called:    4
  2809 ;; This function calls:
  2810 ;;		__doprnt
  2811 ;; This function is called by:
  2812 ;;		_main
  2813 ;; This function uses a non-reentrant model
  2814 ;;
  2815                           psect	text720
  2816                           	file	"C:\Program Files (x86)\HI-TECH Software\PICC\9.82\sources\printf.c"
  2817                           	line	14
  2818                           	global	__size_of_printf
  2819  0026                     	__size_of_printf	equ	__end_of_printf-_printf
  2820                           	
  2821  1C96                     _printf:	
  2822                           	opt	stack 3
  2823                           ; Regs used in _printf: [wreg-fsr0h+status,2+status,0+btemp+1+pclath+cstack]
  2824                           ;printf@f stored from wreg
  2825                           	line	23
  2826  1C96  1683               	bsf	status, 5	;RP0=1, select bank1
  2827  1C97  1303               	bcf	status, 6	;RP1=0, select bank1
  2828  1C98  00B6               	movwf	(printf@f)^080h
  2829                           	
  2830  1C99                     l10436:	
  2831  1C99  01B8               	clrf	(printf@pb)^080h
  2832                           	line	24
  2833                           	
  2834  1C9A                     l10438:	
  2835  1C9A  3001               	movlw	((fp__putch-fpbase))&0ffh
  2836  1C9B  1283               	bcf	status, 5	;RP0=0, select bank0
  2837  1C9C  1303               	bcf	status, 6	;RP1=0, select bank0
  2838  1C9D  00EC               	movwf	(??_printf+0)+0
  2839  1C9E  086C               	movf	(??_printf+0)+0,w
  2840  1C9F  1683               	bsf	status, 5	;RP0=1, select bank1
  2841  1CA0  1303               	bcf	status, 6	;RP1=0, select bank1
  2842  1CA1  00B9               	movwf	(0+printf@pb+01h)^080h
  2843                           	line	25
  2844  1CA2  306A               	movlw	(?_printf)&0ffh
  2845  1CA3  1283               	bcf	status, 5	;RP0=0, select bank0
  2846  1CA4  1303               	bcf	status, 6	;RP1=0, select bank0
  2847  1CA5  00EC               	movwf	(??_printf+0)+0
  2848  1CA6  086C               	movf	(??_printf+0)+0,w
  2849  1CA7  1683               	bsf	status, 5	;RP0=1, select bank1
  2850  1CA8  1303               	bcf	status, 6	;RP1=0, select bank1
  2851  1CA9  00B7               	movwf	(printf@ap)^080h
  2852                           	line	26
  2853                           	
  2854  1CAA                     l10440:	
  2855                           ;	Return value of _printf is never used
  2856  1CAA  0836               	movf	(printf@f)^080h,w
  2857  1CAB  1283               	bcf	status, 5	;RP0=0, select bank0
  2858  1CAC  1303               	bcf	status, 6	;RP1=0, select bank0
  2859  1CAD  00EC               	movwf	(??_printf+0)+0
  2860  1CAE  086C               	movf	(??_printf+0)+0,w
  2861  1CAF  00E2               	movwf	(?__doprnt)
  2862  1CB0  30B7               	movlw	(printf@ap)&0ffh
  2863  1CB1  00ED               	movwf	(??_printf+1)+0
  2864  1CB2  086D               	movf	(??_printf+1)+0,w
  2865  1CB3  00E3               	movwf	(0+?__doprnt+01h)
  2866  1CB4  30B8               	movlw	(printf@pb)&0ffh
  2867  1CB5  120A  118A  21FA   	fcall	__doprnt
              160A  158A         
  2868  1CBA  2CBB               	goto	l5944
  2869                           	
  2870  1CBB                     l10442:	
  2871                           	line	28
  2872                           	
  2873  1CBB                     l5944:	
  2874  1CBB  0008               	return
  2875                           	opt stack 0
  2876                           GLOBAL	__end_of_printf
  2877  1CBC                     	__end_of_printf:
  2878 ;; =============== function _printf ends ============
  2879                           
  2880                           	signat	_printf,602
  2881                           	global	_lcd_init
  2882                           psect	text721,local,class=CODE,delta=2
  2883                           global __ptext721
  2884  1D6F                     __ptext721:
  2885                           
  2886 ;; *************** function _lcd_init *****************
  2887 ;; Defined at:
  2888 ;;		line 89 in file "C:\PIC_PROGS\ProyectoMicros\PIC\lcd.c"
  2889 ;; Parameters:    Size  Location     Type
  2890 ;;		None
  2891 ;; Auto vars:     Size  Location     Type
  2892 ;;  init_value      1    7[COMMON] unsigned char 
  2893 ;; Return value:  Size  Location     Type
  2894 ;;		None               void
  2895 ;; Registers used:
  2896 ;;		wreg, status,2, status,0, pclath, cstack
  2897 ;; Tracked objects:
  2898 ;;		On entry : 0/0
  2899 ;;		On exit  : 0/0
  2900 ;;		Unchanged: 0/0
  2901 ;; Data sizes:     COMMON   BANK0   BANK1   BANK3   BANK2
  2902 ;;      Params:         0       0       0       0       0
  2903 ;;      Locals:         1       0       0       0       0
  2904 ;;      Temps:          1       0       0       0       0
  2905 ;;      Totals:         2       0       0       0       0
  2906 ;;Total ram usage:        2 bytes
  2907 ;; Hardware stack levels used:    1
  2908 ;; Hardware stack levels required when called:    4
  2909 ;; This function calls:
  2910 ;;		_pause
  2911 ;;		_lcd_write
  2912 ;;		_lcd_clear
  2913 ;; This function is called by:
  2914 ;;		_main
  2915 ;; This function uses a non-reentrant model
  2916 ;;
  2917                           psect	text721
  2918                           	file	"C:\PIC_PROGS\ProyectoMicros\PIC\lcd.c"
  2919                           	line	89
  2920                           	global	__size_of_lcd_init
  2921  0060                     	__size_of_lcd_init	equ	__end_of_lcd_init-_lcd_init
  2922                           	
  2923  1D6F                     _lcd_init:	
  2924                           	opt	stack 3
  2925                           ; Regs used in _lcd_init: [wreg+status,2+status,0+pclath+cstack]
  2926                           	line	92
  2927                           	
  2928  1D6F                     l10386:	
  2929                           ;lcd.c: 90: char init_value;
  2930                           ;lcd.c: 92: ANSEL = 0;
  2931  1D6F  1683               	bsf	status, 5	;RP0=1, select bank3
  2932  1D70  1703               	bsf	status, 6	;RP1=1, select bank3
  2933  1D71  0188               	clrf	(392)^0180h	;volatile
  2934                           	line	94
  2935                           	
  2936  1D72                     l10388:	
  2937                           ;lcd.c: 94: init_value = 0x3;
  2938  1D72  3003               	movlw	(03h)
  2939  1D73  00F6               	movwf	(??_lcd_init+0)+0
  2940  1D74  0876               	movf	(??_lcd_init+0)+0,w
  2941  1D75  00F7               	movwf	(lcd_init@init_value)
  2942                           	line	95
  2943                           	
  2944  1D76                     l10390:	
  2945                           ;lcd.c: 95: TRISA=0;
  2946  1D76  1683               	bsf	status, 5	;RP0=1, select bank1
  2947  1D77  1303               	bcf	status, 6	;RP1=0, select bank1
  2948  1D78  0185               	clrf	(133)^080h	;volatile
  2949                           	line	96
  2950                           	
  2951  1D79                     l10392:	
  2952                           ;lcd.c: 96: TRISD=0;
  2953  1D79  0188               	clrf	(136)^080h	;volatile
  2954                           	line	97
  2955                           	
  2956  1D7A                     l10394:	
  2957                           ;lcd.c: 97: RA2 = 0;
  2958  1D7A  1283               	bcf	status, 5	;RP0=0, select bank0
  2959  1D7B  1303               	bcf	status, 6	;RP1=0, select bank0
  2960  1D7C  1105               	bcf	(42/8),(42)&7
  2961                           	line	98
  2962                           	
  2963  1D7D                     l10396:	
  2964                           ;lcd.c: 98: RA1 = 0;
  2965  1D7D  1085               	bcf	(41/8),(41)&7
  2966                           	line	99
  2967                           	
  2968  1D7E                     l10398:	
  2969                           ;lcd.c: 99: RA4 = 0;
  2970  1D7E  1205               	bcf	(44/8),(44)&7
  2971                           	line	101
  2972                           	
  2973  1D7F                     l10400:	
  2974                           ;lcd.c: 101: pause (15);
  2975  1D7F  300F               	movlw	low(0Fh)
  2976  1D80  00F0               	movwf	(?_pause)
  2977  1D81  3000               	movlw	high(0Fh)
  2978  1D82  00F1               	movwf	((?_pause))+1
  2979  1D83  160A  158A  245C   	fcall	_pause
              160A  158A         
  2980                           	line	102
  2981                           	
  2982  1D88                     l10402:	
  2983                           ;lcd.c: 102: PORTD = init_value;
  2984  1D88  0877               	movf	(lcd_init@init_value),w
  2985  1D89  1283               	bcf	status, 5	;RP0=0, select bank0
  2986  1D8A  1303               	bcf	status, 6	;RP1=0, select bank0
  2987  1D8B  0088               	movwf	(8)	;volatile
  2988                           	line	103
  2989                           	
  2990  1D8C                     l10404:	
  2991                           ;lcd.c: 103: ((RA1 = 1),(RA1=0));
  2992  1D8C  1485               	bsf	(41/8),(41)&7
  2993                           	
  2994  1D8D                     l10406:	
  2995  1D8D  1085               	bcf	(41/8),(41)&7
  2996                           	line	104
  2997                           	
  2998  1D8E                     l10408:	
  2999                           ;lcd.c: 104: pause(10);
  3000  1D8E  300A               	movlw	low(0Ah)
  3001  1D8F  00F0               	movwf	(?_pause)
  3002  1D90  3000               	movlw	high(0Ah)
  3003  1D91  00F1               	movwf	((?_pause))+1
  3004  1D92  160A  158A  245C   	fcall	_pause
              160A  158A         
  3005                           	line	105
  3006                           	
  3007  1D97                     l10410:	
  3008                           ;lcd.c: 105: ((RA1 = 1),(RA1=0));
  3009  1D97  1283               	bcf	status, 5	;RP0=0, select bank0
  3010  1D98  1303               	bcf	status, 6	;RP1=0, select bank0
  3011  1D99  1485               	bsf	(41/8),(41)&7
  3012                           	
  3013  1D9A                     l10412:	
  3014  1D9A  1085               	bcf	(41/8),(41)&7
  3015                           	line	106
  3016                           	
  3017  1D9B                     l10414:	
  3018                           ;lcd.c: 106: pause(10);
  3019  1D9B  300A               	movlw	low(0Ah)
  3020  1D9C  00F0               	movwf	(?_pause)
  3021  1D9D  3000               	movlw	high(0Ah)
  3022  1D9E  00F1               	movwf	((?_pause))+1
  3023  1D9F  160A  158A  245C   	fcall	_pause
              160A  158A         
  3024                           	line	107
  3025                           	
  3026  1DA4                     l10416:	
  3027                           ;lcd.c: 107: ((RA1 = 1),(RA1=0));
  3028  1DA4  1283               	bcf	status, 5	;RP0=0, select bank0
  3029  1DA5  1303               	bcf	status, 6	;RP1=0, select bank0
  3030  1DA6  1485               	bsf	(41/8),(41)&7
  3031                           	
  3032  1DA7                     l10418:	
  3033  1DA7  1085               	bcf	(41/8),(41)&7
  3034                           	line	108
  3035                           	
  3036  1DA8                     l10420:	
  3037                           ;lcd.c: 108: pause(10);
  3038  1DA8  300A               	movlw	low(0Ah)
  3039  1DA9  00F0               	movwf	(?_pause)
  3040  1DAA  3000               	movlw	high(0Ah)
  3041  1DAB  00F1               	movwf	((?_pause))+1
  3042  1DAC  160A  158A  245C   	fcall	_pause
              160A  158A         
  3043                           	line	109
  3044                           	
  3045  1DB1                     l10422:	
  3046                           ;lcd.c: 109: PORTD = 2;
  3047  1DB1  3002               	movlw	(02h)
  3048  1DB2  1283               	bcf	status, 5	;RP0=0, select bank0
  3049  1DB3  1303               	bcf	status, 6	;RP1=0, select bank0
  3050  1DB4  0088               	movwf	(8)	;volatile
  3051                           	line	110
  3052                           	
  3053  1DB5                     l10424:	
  3054                           ;lcd.c: 110: ((RA1 = 1),(RA1=0));
  3055  1DB5  1485               	bsf	(41/8),(41)&7
  3056                           	
  3057  1DB6                     l10426:	
  3058  1DB6  1085               	bcf	(41/8),(41)&7
  3059                           	line	112
  3060                           	
  3061  1DB7                     l10428:	
  3062                           ;lcd.c: 112: lcd_write(0x28);
  3063  1DB7  3028               	movlw	(028h)
  3064  1DB8  160A  158A  2477   	fcall	_lcd_write
              160A  158A         
  3065                           	line	113
  3066                           	
  3067  1DBD                     l10430:	
  3068                           ;lcd.c: 113: lcd_write(0xC);
  3069  1DBD  300C               	movlw	(0Ch)
  3070  1DBE  160A  158A  2477   	fcall	_lcd_write
              160A  158A         
  3071                           	line	115
  3072                           	
  3073  1DC3                     l10432:	
  3074                           ;lcd.c: 115: lcd_clear();
  3075  1DC3  160A  158A  2407   	fcall	_lcd_clear
              160A  158A         
  3076                           	line	116
  3077                           	
  3078  1DC8                     l10434:	
  3079                           ;lcd.c: 116: lcd_write(0x6);
  3080  1DC8  3006               	movlw	(06h)
  3081  1DC9  160A  158A  2477   	fcall	_lcd_write
              160A  158A         
  3082                           	line	117
  3083                           	
  3084  1DCE                     l1923:	
  3085  1DCE  0008               	return
  3086                           	opt stack 0
  3087                           GLOBAL	__end_of_lcd_init
  3088  1DCF                     	__end_of_lcd_init:
  3089 ;; =============== function _lcd_init ends ============
  3090                           
  3091                           	signat	_lcd_init,88
  3092                           	global	__doprnt
  3093                           psect	text722,local,class=CODE,delta=2
  3094                           global __ptext722
  3095  01FA                     __ptext722:
  3096                           
  3097 ;; *************** function __doprnt *****************
  3098 ;; Defined at:
  3099 ;;		line 455 in file "C:\Program Files (x86)\HI-TECH Software\PICC\9.82\lib\doprnt.c"
  3100 ;; Parameters:    Size  Location     Type
  3101 ;;  pb              1    wreg     PTR struct __prbuf
  3102 ;;		 -> sprintf@pb(2), printf@pb(2), 
  3103 ;;  f               1   66[BANK0 ] PTR const unsigned char 
  3104 ;;		 -> STR_9(14), STR_8(9), STR_7(5), 
  3105 ;;  ap              1   67[BANK0 ] PTR PTR void 
  3106 ;;		 -> sprintf@ap(1), printf@ap(1), 
  3107 ;; Auto vars:     Size  Location     Type
  3108 ;;  pb              1   21[BANK1 ] PTR struct __prbuf
  3109 ;;		 -> sprintf@pb(2), printf@pb(2), 
  3110 ;;  _val            4   11[BANK1 ] struct .
  3111 ;;  fval            3   17[BANK1 ] struct .
  3112 ;;  integ           3    6[BANK1 ] struct .
  3113 ;;  ival            3    0        struct .
  3114 ;;  prec            2   15[BANK1 ] int 
  3115 ;;  exp             2    9[BANK1 ] int 
  3116 ;;  flag            2    4[BANK1 ] unsigned short 
  3117 ;;  width           2    0        int 
  3118 ;;  c               1   20[BANK1 ] char 
  3119 ;;  d               1    0        unsigned char 
  3120 ;; Return value:  Size  Location     Type
  3121 ;;                  2   66[BANK0 ] int 
  3122 ;; Registers used:
  3123 ;;		wreg, fsr0l, fsr0h, status,2, status,0, btemp+1, pclath, cstack
  3124 ;; Tracked objects:
  3125 ;;		On entry : 0/0
  3126 ;;		On exit  : 0/0
  3127 ;;		Unchanged: 0/0
  3128 ;; Data sizes:     COMMON   BANK0   BANK1   BANK3   BANK2
  3129 ;;      Params:         0       2       0       0       0
  3130 ;;      Locals:         0       0      22       0       0
  3131 ;;      Temps:          0       6       0       0       0
  3132 ;;      Totals:         0       8      22       0       0
  3133 ;;Total ram usage:       30 bytes
  3134 ;; Hardware stack levels used:    1
  3135 ;; Hardware stack levels required when called:    3
  3136 ;; This function calls:
  3137 ;;		Absolute function
  3138 ;;		_putch
  3139 ;;		___wmul
  3140 ;;		_isdigit
  3141 ;;		___ftge
  3142 ;;		___ftneg
  3143 ;;		___awdiv
  3144 ;;		_scale
  3145 ;;		___ftmul
  3146 ;;		_fround
  3147 ;;		___ftadd
  3148 ;;		___fttol
  3149 ;;		__div_to_l_
  3150 ;;		__tdiv_to_l_
  3151 ;;		___lltoft
  3152 ;;		___ftsub
  3153 ;;		___lldiv
  3154 ;;		___llmod
  3155 ;; This function is called by:
  3156 ;;		_printf
  3157 ;;		_sprintf
  3158 ;; This function uses a non-reentrant model
  3159 ;;
  3160                           psect	text722
  3161                           	file	"C:\Program Files (x86)\HI-TECH Software\PICC\9.82\sources\doprnt.c"
  3162                           	line	455
  3163                           	global	__size_of__doprnt
  3164  0E06                     	__size_of__doprnt	equ	__end_of__doprnt-__doprnt
  3165                           	
  3166  01FA                     __doprnt:	
  3167                           	opt	stack 3
  3168                           ; Regs used in __doprnt: [wreg-fsr0h+status,2+status,0+btemp+1+pclath+cstack]
  3169                           ;__doprnt@pb stored from wreg
  3170  01FA  1683               	bsf	status, 5	;RP0=1, select bank1
  3171  01FB  1303               	bcf	status, 6	;RP1=0, select bank1
  3172  01FC  00B5               	movwf	(__doprnt@pb)^080h
  3173                           	line	540
  3174                           	
  3175  01FD                     l10126:	
  3176  01FD  120A  158A  2FE0   	goto	l10380
  3177                           	
  3178  0200                     l4862:	
  3179                           	line	542
  3180                           	
  3181  0200                     l10128:	
  3182  0200  0834               	movf	(__doprnt@c)^080h,w
  3183  0201  3A25               	xorlw	025h
  3184  0202  1903               	skipnz
  3185  0203  2A05               	goto	u4841
  3186  0204  2A06               	goto	u4840
  3187  0205                     u4841:
  3188  0205  2A40               	goto	l10138
  3189  0206                     u4840:
  3190                           	line	545
  3191                           	
  3192  0206                     l10130:	
  3193  0206  0835               	movf	(__doprnt@pb)^080h,w
  3194  0207  3E01               	addlw	01h
  3195  0208  0084               	movwf	fsr0
  3196  0209  1383               	bcf	status, 7	;select IRP bank0
  3197  020A  0880               	movf	indf
  3198  020B  1903               	skipnz
  3199  020C  2A0E               	goto	u4851
  3200  020D  2A0F               	goto	u4850
  3201  020E                     u4851:
  3202  020E  2A21               	goto	l10134
  3203  020F                     u4850:
  3204                           	
  3205  020F                     l10132:	
  3206  020F  0834               	movf	(__doprnt@c)^080h,w
  3207  0210  1283               	bcf	status, 5	;RP0=0, select bank0
  3208  0211  1303               	bcf	status, 6	;RP1=0, select bank0
  3209  0212  00E4               	movwf	(??__doprnt+0)+0
  3210  0213  0864               	movf	(??__doprnt+0)+0,w
  3211  0214  00AA               	movwf	(?_putch)
  3212  0215  1683               	bsf	status, 5	;RP0=1, select bank1
  3213  0216  1303               	bcf	status, 6	;RP1=0, select bank1
  3214  0217  0835               	movf	(__doprnt@pb)^080h,w
  3215  0218  3E01               	addlw	01h
  3216  0219  0084               	movwf	fsr0
  3217  021A  0800               	movf	indf,w
  3218  021B  120A  118A  2700   	fcall	fptable
              120A  118A         
  3219  0220  29FD               	goto	l10380
  3220                           	
  3221  0221                     l4864:	
  3222                           	
  3223  0221                     l10134:	
  3224  0221  1683               	bsf	status, 5	;RP0=1, select bank1
  3225  0222  1303               	bcf	status, 6	;RP1=0, select bank1
  3226  0223  0834               	movf	(__doprnt@c)^080h,w
  3227  0224  1283               	bcf	status, 5	;RP0=0, select bank0
  3228  0225  1303               	bcf	status, 6	;RP1=0, select bank0
  3229  0226  00E4               	movwf	(??__doprnt+0)+0
  3230  0227  1683               	bsf	status, 5	;RP0=1, select bank1
  3231  0228  1303               	bcf	status, 6	;RP1=0, select bank1
  3232  0229  0835               	movf	(__doprnt@pb)^080h,w
  3233  022A  0084               	movwf	fsr0
  3234  022B  1383               	bcf	status, 7	;select IRP bank0
  3235  022C  0800               	movf	indf,w
  3236  022D  0084               	movwf	fsr0
  3237  022E  1283               	bcf	status, 5	;RP0=0, select bank0
  3238  022F  1303               	bcf	status, 6	;RP1=0, select bank0
  3239  0230  0864               	movf	(??__doprnt+0)+0,w
  3240  0231  1783               	bsf	status, 7	;select IRP bank2
  3241  0232  0080               	movwf	indf
  3242                           	
  3243  0233                     l10136:	
  3244  0233  3001               	movlw	(01h)
  3245  0234  00E4               	movwf	(??__doprnt+0)+0
  3246  0235  1683               	bsf	status, 5	;RP0=1, select bank1
  3247  0236  1303               	bcf	status, 6	;RP1=0, select bank1
  3248  0237  0835               	movf	(__doprnt@pb)^080h,w
  3249  0238  0084               	movwf	fsr0
  3250  0239  1283               	bcf	status, 5	;RP0=0, select bank0
  3251  023A  1303               	bcf	status, 6	;RP1=0, select bank0
  3252  023B  0864               	movf	(??__doprnt+0)+0,w
  3253  023C  1383               	bcf	status, 7	;select IRP bank0
  3254  023D  0780               	addwf	indf,f
  3255  023E  29FD               	goto	l10380
  3256                           	
  3257  023F                     l4865:	
  3258                           	line	546
  3259  023F  29FD               	goto	l10380
  3260                           	line	547
  3261                           	
  3262  0240                     l4863:	
  3263                           	line	552
  3264                           	
  3265  0240                     l10138:	
  3266  0240  1683               	bsf	status, 5	;RP0=1, select bank1
  3267  0241  1303               	bcf	status, 6	;RP1=0, select bank1
  3268  0242  01A4               	clrf	(__doprnt@flag)^080h
  3269  0243  01A5               	clrf	(__doprnt@flag+1)^080h
  3270                           	line	614
  3271                           	
  3272  0244                     l10140:	
  3273  0244  1283               	bcf	status, 5	;RP0=0, select bank0
  3274  0245  1303               	bcf	status, 6	;RP1=0, select bank0
  3275  0246  0862               	movf	(__doprnt@f),w
  3276  0247  0084               	movwf	fsr0
  3277  0248  160A  118A  200A   	fcall	stringdir
              120A  118A         
  3278  024D  3A2E               	xorlw	02Eh
  3279  024E  1D03               	skipz
  3280  024F  2A51               	goto	u4861
  3281  0250  2A52               	goto	u4860
  3282  0251                     u4861:
  3283  0251  2AA9               	goto	l10154
  3284  0252                     u4860:
  3285                           	line	615
  3286                           	
  3287  0252                     l10142:	
  3288  0252  1683               	bsf	status, 5	;RP0=1, select bank1
  3289  0253  1303               	bcf	status, 6	;RP1=0, select bank1
  3290  0254  1725               	bsf	(__doprnt@flag)^080h+(14/8),(14)&7
  3291                           	line	616
  3292                           	
  3293  0255                     l10144:	
  3294  0255  3001               	movlw	(01h)
  3295  0256  1283               	bcf	status, 5	;RP0=0, select bank0
  3296  0257  1303               	bcf	status, 6	;RP1=0, select bank0
  3297  0258  00E4               	movwf	(??__doprnt+0)+0
  3298  0259  0864               	movf	(??__doprnt+0)+0,w
  3299  025A  07E2               	addwf	(__doprnt@f),f
  3300                           	line	624
  3301                           	
  3302  025B                     l10146:	
  3303  025B  1683               	bsf	status, 5	;RP0=1, select bank1
  3304  025C  1303               	bcf	status, 6	;RP1=0, select bank1
  3305  025D  01AF               	clrf	(__doprnt@prec)^080h
  3306  025E  01B0               	clrf	(__doprnt@prec+1)^080h
  3307                           	line	625
  3308  025F  2A96               	goto	l10152
  3309                           	
  3310  0260                     l4868:	
  3311                           	line	626
  3312                           	
  3313  0260                     l10148:	
  3314  0260  1683               	bsf	status, 5	;RP0=1, select bank1
  3315  0261  1303               	bcf	status, 6	;RP1=0, select bank1
  3316  0262  0830               	movf	(__doprnt@prec+1)^080h,w
  3317  0263  01F1               	clrf	(?___wmul+1)
  3318  0264  07F1               	addwf	(?___wmul+1)
  3319  0265  082F               	movf	(__doprnt@prec)^080h,w
  3320  0266  01F0               	clrf	(?___wmul)
  3321  0267  07F0               	addwf	(?___wmul)
  3322                           
  3323  0268  300A               	movlw	low(0Ah)
  3324  0269  00F2               	movwf	0+(?___wmul)+02h
  3325  026A  3000               	movlw	high(0Ah)
  3326  026B  00F3               	movwf	(0+(?___wmul)+02h)+1
  3327  026C  160A  158A  24BC   	fcall	___wmul
              120A  118A         
  3328  0271  1283               	bcf	status, 5	;RP0=0, select bank0
  3329  0272  1303               	bcf	status, 6	;RP1=0, select bank0
  3330  0273  0862               	movf	(__doprnt@f),w
  3331  0274  0084               	movwf	fsr0
  3332  0275  160A  118A  200A   	fcall	stringdir
              120A  118A         
  3333  027A  0770               	addwf	(0+(?___wmul)),w
  3334  027B  00E4               	movwf	(??__doprnt+0)+0
  3335  027C  3000               	movlw	0
  3336  027D  1803               	skipnc
  3337  027E  3001               	movlw	1
  3338  027F  0771               	addwf	(1+(?___wmul)),w
  3339  0280  00E5               	movwf	1+(??__doprnt+0)+0
  3340  0281  0864               	movf	0+(??__doprnt+0)+0,w
  3341  0282  3ED0               	addlw	low(0FFD0h)
  3342  0283  1683               	bsf	status, 5	;RP0=1, select bank1
  3343  0284  1303               	bcf	status, 6	;RP1=0, select bank1
  3344  0285  00AF               	movwf	(__doprnt@prec)^080h
  3345  0286  1283               	bcf	status, 5	;RP0=0, select bank0
  3346  0287  1303               	bcf	status, 6	;RP1=0, select bank0
  3347  0288  0865               	movf	1+(??__doprnt+0)+0,w
  3348  0289  1803               	skipnc
  3349  028A  3E01               	addlw	1
  3350  028B  3EFF               	addlw	high(0FFD0h)
  3351  028C  1683               	bsf	status, 5	;RP0=1, select bank1
  3352  028D  1303               	bcf	status, 6	;RP1=0, select bank1
  3353  028E  00B0               	movwf	1+(__doprnt@prec)^080h
  3354                           	
  3355  028F                     l10150:	
  3356  028F  3001               	movlw	(01h)
  3357  0290  1283               	bcf	status, 5	;RP0=0, select bank0
  3358  0291  1303               	bcf	status, 6	;RP1=0, select bank0
  3359  0292  00E4               	movwf	(??__doprnt+0)+0
  3360  0293  0864               	movf	(??__doprnt+0)+0,w
  3361  0294  07E2               	addwf	(__doprnt@f),f
  3362  0295  2A96               	goto	l10152
  3363                           	
  3364  0296                     l4867:	
  3365                           	line	625
  3366                           	
  3367  0296                     l10152:	
  3368  0296  1283               	bcf	status, 5	;RP0=0, select bank0
  3369  0297  0862               	movf	(__doprnt@f),w
  3370  0298  0084               	movwf	fsr0
  3371  0299  160A  118A  200A   	fcall	stringdir
              120A  118A         
  3372  029E  160A  158A  241A   	fcall	_isdigit
              120A  118A         
  3373  02A3  1803               	btfsc	status,0
  3374  02A4  2AA6               	goto	u4871
  3375  02A5  2AA7               	goto	u4870
  3376  02A6                     u4871:
  3377  02A6  2A60               	goto	l10148
  3378  02A7                     u4870:
  3379  02A7  2AB9               	goto	l10160
  3380                           	
  3381  02A8                     l4869:	
  3382                           	line	628
  3383  02A8  2AB9               	goto	l10160
  3384                           	
  3385  02A9                     l4866:	
  3386                           	line	629
  3387                           	
  3388  02A9                     l10154:	
  3389  02A9  1683               	bsf	status, 5	;RP0=1, select bank1
  3390  02AA  1303               	bcf	status, 6	;RP1=0, select bank1
  3391  02AB  01AF               	clrf	(__doprnt@prec)^080h
  3392  02AC  01B0               	clrf	(__doprnt@prec+1)^080h
  3393                           	line	631
  3394                           	
  3395  02AD                     l10156:	
  3396  02AD  1625               	bsf	(__doprnt@flag)^080h+(12/8),(12)&7
  3397  02AE  2AB9               	goto	l10160
  3398                           	line	633
  3399                           	
  3400  02AF                     l4870:	
  3401                           	line	638
  3402  02AF  2AB9               	goto	l10160
  3403                           	line	640
  3404                           	
  3405  02B0                     l4872:	
  3406                           	line	641
  3407  02B0  120A  158A  2FFA   	goto	l10382
  3408                           	line	665
  3409                           	
  3410  02B3                     l4874:	
  3411                           	line	666
  3412  02B3  1525               	bsf	(__doprnt@flag)^080h+(10/8),(10)&7
  3413                           	line	667
  3414  02B4  2AD5               	goto	l10162
  3415                           	line	700
  3416                           	
  3417  02B5                     l4876:	
  3418  02B5  2AD5               	goto	l10162
  3419                           	line	701
  3420                           	
  3421  02B6                     l4877:	
  3422                           	line	702
  3423  02B6  2AD5               	goto	l10162
  3424                           	line	805
  3425                           	
  3426  02B7                     l4878:	
  3427                           	line	816
  3428  02B7  29FD               	goto	l10380
  3429                           	line	825
  3430                           	
  3431  02B8                     l10158:	
  3432  02B8  2AD5               	goto	l10162
  3433                           	line	638
  3434                           	
  3435  02B9                     l4871:	
  3436                           	
  3437  02B9                     l10160:	
  3438  02B9  3001               	movlw	01h
  3439  02BA  1283               	bcf	status, 5	;RP0=0, select bank0
  3440  02BB  1303               	bcf	status, 6	;RP1=0, select bank0
  3441  02BC  07E2               	addwf	(__doprnt@f),f
  3442  02BD  30FF               	movlw	-01h
  3443  02BE  0762               	addwf	(__doprnt@f),w
  3444  02BF  0084               	movwf	fsr0
  3445  02C0  160A  118A  200A   	fcall	stringdir
              120A  118A         
  3446  02C5  1683               	bsf	status, 5	;RP0=1, select bank1
  3447  02C6  1303               	bcf	status, 6	;RP1=0, select bank1
  3448  02C7  00B4               	movwf	(__doprnt@c)^080h
  3449                           	; Switch size 1, requested type "space"
  3450                           ; Number of cases is 4, Range of values is 0 to 105
  3451                           ; switch strategies available:
  3452                           ; Name         Instructions Cycles
  3453                           ; simple_byte           13     7 (average)
  3454                           ; jumptable            260     6 (fixed)
  3455                           ; rangetable           110     6 (fixed)
  3456                           ; spacedrange          218     9 (fixed)
  3457                           ; locatedrange         106     3 (fixed)
  3458                           ;	Chosen strategy is simple_byte
  3459                           
  3460                           	opt asmopt_off
  3461  02C8  3A00               	xorlw	0^0	; case 0
  3462  02C9  1903               	skipnz
  3463  02CA  2AB0               	goto	l10382
  3464  02CB  3A64               	xorlw	100^0	; case 100
  3465  02CC  1903               	skipnz
  3466  02CD  2AD5               	goto	l10162
  3467  02CE  3A02               	xorlw	102^100	; case 102
  3468  02CF  1903               	skipnz
  3469  02D0  2AB3               	goto	l4874
  3470  02D1  3A0F               	xorlw	105^102	; case 105
  3471  02D2  1903               	skipnz
  3472  02D3  2AD5               	goto	l10162
  3473  02D4  29FD               	goto	l10380
  3474                           	opt asmopt_on
  3475                           
  3476                           	line	825
  3477                           	
  3478  02D5                     l4875:	
  3479                           	line	828
  3480                           	
  3481  02D5                     l10162:	
  3482  02D5  3000               	movlw	low(0700h)
  3483  02D6  0524               	andwf	(__doprnt@flag)^080h,w
  3484  02D7  1283               	bcf	status, 5	;RP0=0, select bank0
  3485  02D8  1303               	bcf	status, 6	;RP1=0, select bank0
  3486  02D9  00E4               	movwf	(??__doprnt+0)+0
  3487  02DA  3007               	movlw	high(0700h)
  3488  02DB  1683               	bsf	status, 5	;RP0=1, select bank1
  3489  02DC  1303               	bcf	status, 6	;RP1=0, select bank1
  3490  02DD  0525               	andwf	(__doprnt@flag+1)^080h,w
  3491  02DE  1283               	bcf	status, 5	;RP0=0, select bank0
  3492  02DF  1303               	bcf	status, 6	;RP1=0, select bank0
  3493  02E0  00E5               	movwf	1+(??__doprnt+0)+0
  3494  02E1  0865               	movf	1+(??__doprnt+0)+0,w
  3495  02E2  0464               	iorwf	0+(??__doprnt+0)+0,w
  3496  02E3  1903               	skipnz
  3497  02E4  2AE6               	goto	u4881
  3498  02E5  2AE9               	goto	u4880
  3499  02E6                     u4881:
  3500  02E6  120A  158A  2DF4   	goto	l10322
  3501  02E9                     u4880:
  3502                           	line	830
  3503                           	
  3504  02E9                     l10164:	
  3505  02E9  1683               	bsf	status, 5	;RP0=1, select bank1
  3506  02EA  1303               	bcf	status, 6	;RP1=0, select bank1
  3507  02EB  1E25               	btfss	(__doprnt@flag+1)^080h,(12)&7
  3508  02EC  2AEE               	goto	u4891
  3509  02ED  2AEF               	goto	u4890
  3510  02EE                     u4891:
  3511  02EE  2AF4               	goto	l10168
  3512  02EF                     u4890:
  3513                           	line	832
  3514                           	
  3515  02EF                     l10166:	
  3516  02EF  3006               	movlw	low(06h)
  3517  02F0  00AF               	movwf	(__doprnt@prec)^080h
  3518  02F1  3000               	movlw	high(06h)
  3519  02F2  00B0               	movwf	((__doprnt@prec)^080h)+1
  3520  02F3  2AF4               	goto	l10168
  3521                           	
  3522  02F4                     l4880:	
  3523                           	line	833
  3524                           	
  3525  02F4                     l10168:	
  3526  02F4  1283               	bcf	status, 5	;RP0=0, select bank0
  3527  02F5  1303               	bcf	status, 6	;RP1=0, select bank0
  3528  02F6  0863               	movf	(__doprnt@ap),w
  3529  02F7  0084               	movwf	fsr0
  3530  02F8  1383               	bcf	status, 7	;select IRP bank0
  3531  02F9  0800               	movf	indf,w
  3532  02FA  00E4               	movwf	((??__doprnt+0)+0)
  3533  02FB  3003               	movlw	03h
  3534  02FC  0780               	addwf	indf,f
  3535  02FD  0864               	movf	((??__doprnt+0)+0),w
  3536  02FE  0084               	movwf	fsr0
  3537  02FF  0800               	movf	indf,w
  3538  0300  1683               	bsf	status, 5	;RP0=1, select bank1
  3539  0301  1303               	bcf	status, 6	;RP1=0, select bank1
  3540  0302  00B1               	movwf	(__doprnt@fval)^080h
  3541  0303  0A84               	incf	fsr0,f
  3542  0304  0800               	movf	indf,w
  3543  0305  00B2               	movwf	(__doprnt@fval+1)^080h
  3544  0306  0A84               	incf	fsr0,f
  3545  0307  0800               	movf	indf,w
  3546  0308  00B3               	movwf	(__doprnt@fval+2)^080h
  3547                           	line	834
  3548                           	
  3549  0309                     l10170:	
  3550  0309  0831               	movf	(__doprnt@fval)^080h,w
  3551  030A  00F0               	movwf	(?___ftge)
  3552  030B  0832               	movf	(__doprnt@fval+1)^080h,w
  3553  030C  00F1               	movwf	(?___ftge+1)
  3554  030D  0833               	movf	(__doprnt@fval+2)^080h,w
  3555  030E  00F2               	movwf	(?___ftge+2)
  3556  030F  3000               	movlw	0x0
  3557  0310  00F3               	movwf	0+(?___ftge)+03h
  3558  0311  3000               	movlw	0x0
  3559  0312  00F4               	movwf	1+(?___ftge)+03h
  3560  0313  3000               	movlw	0x0
  3561  0314  00F5               	movwf	2+(?___ftge)+03h
  3562  0315  160A  158A  2635   	fcall	___ftge
              120A  118A         
  3563  031A  1803               	btfsc	status,0
  3564  031B  2B1D               	goto	u4901
  3565  031C  2B1E               	goto	u4900
  3566  031D                     u4901:
  3567  031D  2B38               	goto	l10176
  3568  031E                     u4900:
  3569                           	line	835
  3570                           	
  3571  031E                     l10172:	
  3572  031E  1683               	bsf	status, 5	;RP0=1, select bank1
  3573  031F  1303               	bcf	status, 6	;RP1=0, select bank1
  3574  0320  0831               	movf	(__doprnt@fval)^080h,w
  3575  0321  00F0               	movwf	(?___ftneg)
  3576  0322  0832               	movf	(__doprnt@fval+1)^080h,w
  3577  0323  00F1               	movwf	(?___ftneg+1)
  3578  0324  0833               	movf	(__doprnt@fval+2)^080h,w
  3579  0325  00F2               	movwf	(?___ftneg+2)
  3580  0326  160A  158A  23CE   	fcall	___ftneg
              120A  118A         
  3581  032B  0870               	movf	(0+(?___ftneg)),w
  3582  032C  1683               	bsf	status, 5	;RP0=1, select bank1
  3583  032D  1303               	bcf	status, 6	;RP1=0, select bank1
  3584  032E  00B1               	movwf	(__doprnt@fval)^080h
  3585  032F  0871               	movf	(1+(?___ftneg)),w
  3586  0330  00B2               	movwf	(__doprnt@fval+1)^080h
  3587  0331  0872               	movf	(2+(?___ftneg)),w
  3588  0332  00B3               	movwf	(__doprnt@fval+2)^080h
  3589                           	line	836
  3590                           	
  3591  0333                     l10174:	
  3592  0333  3003               	movlw	low(03h)
  3593  0334  04A4               	iorwf	(__doprnt@flag)^080h,f
  3594  0335  3000               	movlw	high(03h)
  3595  0336  04A5               	iorwf	(__doprnt@flag+1)^080h,f
  3596  0337  2B38               	goto	l10176
  3597                           	line	837
  3598                           	
  3599  0338                     l4881:	
  3600                           	line	838
  3601                           	
  3602  0338                     l10176:	
  3603  0338  1683               	bsf	status, 5	;RP0=1, select bank1
  3604  0339  1303               	bcf	status, 6	;RP1=0, select bank1
  3605  033A  01A9               	clrf	(__doprnt@exp)^080h
  3606  033B  01AA               	clrf	(__doprnt@exp+1)^080h
  3607                           	line	839
  3608                           	
  3609  033C                     l10178:	
  3610  033C  0833               	movf	(__doprnt@fval+2)^080h,w
  3611  033D  0432               	iorwf	(__doprnt@fval+1)^080h,w
  3612  033E  0431               	iorwf	(__doprnt@fval)^080h,w
  3613  033F  1903               	skipnz
  3614  0340  2B42               	goto	u4911
  3615  0341  2B45               	goto	u4910
  3616  0342                     u4911:
  3617  0342  120A  158A  2831   	goto	l10204
  3618  0345                     u4910:
  3619                           	line	840
  3620                           	
  3621  0345                     l10180:	
  3622  0345  30B1               	movlw	low(__doprnt@fval)
  3623  0346  0084               	movwf	fsr0
  3624  0347  1383               	bcf	status, 7	;select IRP bank1
  3625  0348  0800               	movf	indf,w
  3626  0349  1283               	bcf	status, 5	;RP0=0, select bank0
  3627  034A  1303               	bcf	status, 6	;RP1=0, select bank0
  3628  034B  00E4               	movwf	(??__doprnt+0)+0+0
  3629  034C  0A84               	incf	fsr0,f
  3630  034D  0800               	movf	indf,w
  3631  034E  00E5               	movwf	(??__doprnt+0)+0+1
  3632  034F  0A84               	incf	fsr0,f
  3633  0350  0800               	movf	indf,w
  3634  0351  00E6               	movwf	(??__doprnt+0)+0+2
  3635  0352  0A84               	incf	fsr0,f
  3636  0353  0800               	movf	indf,w
  3637  0354  00E7               	movwf	(??__doprnt+0)+0+3
  3638  0355  300F               	movlw	0Fh
  3639  0356                     u4925:
  3640  0356  1003               	clrc
  3641  0357  0CE7               	rrf	(??__doprnt+0)+3,f
  3642  0358  0CE6               	rrf	(??__doprnt+0)+2,f
  3643  0359  0CE5               	rrf	(??__doprnt+0)+1,f
  3644  035A  0CE4               	rrf	(??__doprnt+0)+0,f
  3645  035B                     u4920:
  3646  035B  3EFF               	addlw	-1
  3647  035C  1D03               	skipz
  3648  035D  2B56               	goto	u4925
  3649  035E  30FF               	movlw	low(0FFh)
  3650  035F  0564               	andwf	0+(??__doprnt+0)+0,w
  3651  0360  00E8               	movwf	(??__doprnt+4)+0
  3652  0361  3000               	movlw	high(0FFh)
  3653  0362  0565               	andwf	1+(??__doprnt+0)+0,w
  3654  0363  00E9               	movwf	1+(??__doprnt+4)+0
  3655  0364  0868               	movf	0+(??__doprnt+4)+0,w
  3656  0365  3E82               	addlw	low(-126)
  3657  0366  1683               	bsf	status, 5	;RP0=1, select bank1
  3658  0367  1303               	bcf	status, 6	;RP1=0, select bank1
  3659  0368  00A9               	movwf	(__doprnt@exp)^080h
  3660  0369  1283               	bcf	status, 5	;RP0=0, select bank0
  3661  036A  1303               	bcf	status, 6	;RP1=0, select bank0
  3662  036B  0869               	movf	1+(??__doprnt+4)+0,w
  3663  036C  1803               	skipnc
  3664  036D  3E01               	addlw	1
  3665  036E  3EFF               	addlw	high(-126)
  3666  036F  1683               	bsf	status, 5	;RP0=1, select bank1
  3667  0370  1303               	bcf	status, 6	;RP1=0, select bank1
  3668  0371  00AA               	movwf	1+(__doprnt@exp)^080h
  3669                           	line	841
  3670                           	
  3671  0372                     l10182:	
  3672  0372  30FF               	movlw	low(-1)
  3673  0373  07A9               	addwf	(__doprnt@exp)^080h,f
  3674  0374  1803               	skipnc
  3675  0375  0AAA               	incf	(__doprnt@exp+1)^080h,f
  3676  0376  30FF               	movlw	high(-1)
  3677  0377  07AA               	addwf	(__doprnt@exp+1)^080h,f
  3678                           	line	842
  3679                           	
  3680  0378                     l10184:	
  3681  0378  3003               	movlw	low(03h)
  3682  0379  00F0               	movwf	(?___wmul)
  3683  037A  3000               	movlw	high(03h)
  3684  037B  00F1               	movwf	((?___wmul))+1
  3685  037C  082A               	movf	(__doprnt@exp+1)^080h,w
  3686  037D  01F3               	clrf	1+(?___wmul)+02h
  3687  037E  07F3               	addwf	1+(?___wmul)+02h
  3688  037F  0829               	movf	(__doprnt@exp)^080h,w
  3689  0380  01F2               	clrf	0+(?___wmul)+02h
  3690  0381  07F2               	addwf	0+(?___wmul)+02h
  3691                           
  3692  0382  160A  158A  24BC   	fcall	___wmul
              120A  118A         
  3693  0387  0871               	movf	(1+(?___wmul)),w
  3694  0388  1683               	bsf	status, 5	;RP0=1, select bank1
  3695  0389  1303               	bcf	status, 6	;RP1=0, select bank1
  3696  038A  01AA               	clrf	(__doprnt@exp+1)^080h
  3697  038B  07AA               	addwf	(__doprnt@exp+1)^080h
  3698  038C  0870               	movf	(0+(?___wmul)),w
  3699  038D  01A9               	clrf	(__doprnt@exp)^080h
  3700  038E  07A9               	addwf	(__doprnt@exp)^080h
  3701                           
  3702                           	line	843
  3703                           	
  3704  038F                     l10186:	
  3705  038F  300A               	movlw	low(0Ah)
  3706  0390  00F7               	movwf	(?___awdiv)
  3707  0391  3000               	movlw	high(0Ah)
  3708  0392  00F8               	movwf	((?___awdiv))+1
  3709  0393  082A               	movf	(__doprnt@exp+1)^080h,w
  3710  0394  01FA               	clrf	1+(?___awdiv)+02h
  3711  0395  07FA               	addwf	1+(?___awdiv)+02h
  3712  0396  0829               	movf	(__doprnt@exp)^080h,w
  3713  0397  01F9               	clrf	0+(?___awdiv)+02h
  3714  0398  07F9               	addwf	0+(?___awdiv)+02h
  3715                           
  3716  0399  160A  158A  270F   	fcall	___awdiv
              120A  118A         
  3717  039E  0878               	movf	(1+(?___awdiv)),w
  3718  039F  1683               	bsf	status, 5	;RP0=1, select bank1
  3719  03A0  1303               	bcf	status, 6	;RP1=0, select bank1
  3720  03A1  01AA               	clrf	(__doprnt@exp+1)^080h
  3721  03A2  07AA               	addwf	(__doprnt@exp+1)^080h
  3722  03A3  0877               	movf	(0+(?___awdiv)),w
  3723  03A4  01A9               	clrf	(__doprnt@exp)^080h
  3724  03A5  07A9               	addwf	(__doprnt@exp)^080h
  3725                           
  3726                           	line	844
  3727                           	
  3728  03A6                     l10188:	
  3729  03A6  1FAA               	btfss	(__doprnt@exp+1)^080h,7
  3730  03A7  2BA9               	goto	u4931
  3731  03A8  2BAA               	goto	u4930
  3732  03A9                     u4931:
  3733  03A9  2BB1               	goto	l10192
  3734  03AA                     u4930:
  3735                           	line	845
  3736                           	
  3737  03AA                     l10190:	
  3738  03AA  30FF               	movlw	low(-1)
  3739  03AB  07A9               	addwf	(__doprnt@exp)^080h,f
  3740  03AC  1803               	skipnc
  3741  03AD  0AAA               	incf	(__doprnt@exp+1)^080h,f
  3742  03AE  30FF               	movlw	high(-1)
  3743  03AF  07AA               	addwf	(__doprnt@exp+1)^080h,f
  3744  03B0  2BB1               	goto	l10192
  3745                           	
  3746  03B1                     l4883:	
  3747                           	line	849
  3748                           	
  3749  03B1                     l10192:	
  3750  03B1  0329               	decf	(__doprnt@exp)^080h,w
  3751  03B2  3AFF               	xorlw	0ffh
  3752  03B3  120A  118A  2441   	fcall	_scale
              120A  118A         
  3753  03B8  1283               	bcf	status, 5	;RP0=0, select bank0
  3754  03B9  1303               	bcf	status, 6	;RP1=0, select bank0
  3755  03BA  0845               	movf	(0+(?_scale)),w
  3756  03BB  1683               	bsf	status, 5	;RP0=1, select bank1
  3757  03BC  1303               	bcf	status, 6	;RP1=0, select bank1
  3758  03BD  00A6               	movwf	(__doprnt@integ)^080h
  3759  03BE  1283               	bcf	status, 5	;RP0=0, select bank0
  3760  03BF  1303               	bcf	status, 6	;RP1=0, select bank0
  3761  03C0  0846               	movf	(1+(?_scale)),w
  3762  03C1  1683               	bsf	status, 5	;RP0=1, select bank1
  3763  03C2  1303               	bcf	status, 6	;RP1=0, select bank1
  3764  03C3  00A7               	movwf	(__doprnt@integ+1)^080h
  3765  03C4  1283               	bcf	status, 5	;RP0=0, select bank0
  3766  03C5  1303               	bcf	status, 6	;RP1=0, select bank0
  3767  03C6  0847               	movf	(2+(?_scale)),w
  3768  03C7  1683               	bsf	status, 5	;RP0=1, select bank1
  3769  03C8  1303               	bcf	status, 6	;RP1=0, select bank1
  3770  03C9  00A8               	movwf	(__doprnt@integ+2)^080h
  3771                           	line	850
  3772                           	
  3773  03CA                     l10194:	
  3774  03CA  0831               	movf	(__doprnt@fval)^080h,w
  3775  03CB  1283               	bcf	status, 5	;RP0=0, select bank0
  3776  03CC  1303               	bcf	status, 6	;RP1=0, select bank0
  3777  03CD  00B5               	movwf	(?___ftmul)
  3778  03CE  1683               	bsf	status, 5	;RP0=1, select bank1
  3779  03CF  1303               	bcf	status, 6	;RP1=0, select bank1
  3780  03D0  0832               	movf	(__doprnt@fval+1)^080h,w
  3781  03D1  1283               	bcf	status, 5	;RP0=0, select bank0
  3782  03D2  1303               	bcf	status, 6	;RP1=0, select bank0
  3783  03D3  00B6               	movwf	(?___ftmul+1)
  3784  03D4  1683               	bsf	status, 5	;RP0=1, select bank1
  3785  03D5  1303               	bcf	status, 6	;RP1=0, select bank1
  3786  03D6  0833               	movf	(__doprnt@fval+2)^080h,w
  3787  03D7  1283               	bcf	status, 5	;RP0=0, select bank0
  3788  03D8  1303               	bcf	status, 6	;RP1=0, select bank0
  3789  03D9  00B7               	movwf	(?___ftmul+2)
  3790  03DA  1683               	bsf	status, 5	;RP0=1, select bank1
  3791  03DB  1303               	bcf	status, 6	;RP1=0, select bank1
  3792  03DC  0826               	movf	(__doprnt@integ)^080h,w
  3793  03DD  1283               	bcf	status, 5	;RP0=0, select bank0
  3794  03DE  1303               	bcf	status, 6	;RP1=0, select bank0
  3795  03DF  00B8               	movwf	0+(?___ftmul)+03h
  3796  03E0  1683               	bsf	status, 5	;RP0=1, select bank1
  3797  03E1  1303               	bcf	status, 6	;RP1=0, select bank1
  3798  03E2  0827               	movf	(__doprnt@integ+1)^080h,w
  3799  03E3  1283               	bcf	status, 5	;RP0=0, select bank0
  3800  03E4  1303               	bcf	status, 6	;RP1=0, select bank0
  3801  03E5  00B9               	movwf	1+(?___ftmul)+03h
  3802  03E6  1683               	bsf	status, 5	;RP0=1, select bank1
  3803  03E7  1303               	bcf	status, 6	;RP1=0, select bank1
  3804  03E8  0828               	movf	(__doprnt@integ+2)^080h,w
  3805  03E9  1283               	bcf	status, 5	;RP0=0, select bank0
  3806  03EA  1303               	bcf	status, 6	;RP1=0, select bank0
  3807  03EB  00BA               	movwf	2+(?___ftmul)+03h
  3808  03EC  120A  118A  2709   	fcall	___ftmul
              120A  118A         
  3809  03F1  1283               	bcf	status, 5	;RP0=0, select bank0
  3810  03F2  1303               	bcf	status, 6	;RP1=0, select bank0
  3811  03F3  0835               	movf	(0+(?___ftmul)),w
  3812  03F4  1683               	bsf	status, 5	;RP0=1, select bank1
  3813  03F5  1303               	bcf	status, 6	;RP1=0, select bank1
  3814  03F6  00A6               	movwf	(__doprnt@integ)^080h
  3815  03F7  1283               	bcf	status, 5	;RP0=0, select bank0
  3816  03F8  1303               	bcf	status, 6	;RP1=0, select bank0
  3817  03F9  0836               	movf	(1+(?___ftmul)),w
  3818  03FA  1683               	bsf	status, 5	;RP0=1, select bank1
  3819  03FB  1303               	bcf	status, 6	;RP1=0, select bank1
  3820  03FC  00A7               	movwf	(__doprnt@integ+1)^080h
  3821  03FD  1283               	bcf	status, 5	;RP0=0, select bank0
  3822  03FE  1303               	bcf	status, 6	;RP1=0, select bank0
  3823  03FF  0837               	movf	(2+(?___ftmul)),w
  3824  0400  1683               	bsf	status, 5	;RP0=1, select bank1
  3825  0401  1303               	bcf	status, 6	;RP1=0, select bank1
  3826  0402  00A8               	movwf	(__doprnt@integ+2)^080h
  3827                           	line	851
  3828                           	
  3829  0403                     l10196:	
  3830  0403  0826               	movf	(__doprnt@integ)^080h,w
  3831  0404  00F0               	movwf	(?___ftge)
  3832  0405  0827               	movf	(__doprnt@integ+1)^080h,w
  3833  0406  00F1               	movwf	(?___ftge+1)
  3834  0407  0828               	movf	(__doprnt@integ+2)^080h,w
  3835  0408  00F2               	movwf	(?___ftge+2)
  3836  0409  3000               	movlw	0x0
  3837  040A  00F3               	movwf	0+(?___ftge)+03h
  3838  040B  3080               	movlw	0x80
  3839  040C  00F4               	movwf	1+(?___ftge)+03h
  3840  040D  303F               	movlw	0x3f
  3841  040E  00F5               	movwf	2+(?___ftge)+03h
  3842  040F  160A  158A  2635   	fcall	___ftge
              120A  118A         
  3843  0414  1803               	btfsc	status,0
  3844  0415  2C17               	goto	u4941
  3845  0416  2C18               	goto	u4940
  3846  0417                     u4941:
  3847  0417  2C21               	goto	l10200
  3848  0418                     u4940:
  3849                           	line	852
  3850                           	
  3851  0418                     l10198:	
  3852  0418  30FF               	movlw	low(-1)
  3853  0419  1683               	bsf	status, 5	;RP0=1, select bank1
  3854  041A  1303               	bcf	status, 6	;RP1=0, select bank1
  3855  041B  07A9               	addwf	(__doprnt@exp)^080h,f
  3856  041C  1803               	skipnc
  3857  041D  0AAA               	incf	(__doprnt@exp+1)^080h,f
  3858  041E  30FF               	movlw	high(-1)
  3859  041F  07AA               	addwf	(__doprnt@exp+1)^080h,f
  3860  0420  2B42               	goto	l10204
  3861                           	line	853
  3862                           	
  3863  0421                     l4884:	
  3864                           	
  3865  0421                     l10200:	
  3866  0421  1683               	bsf	status, 5	;RP0=1, select bank1
  3867  0422  1303               	bcf	status, 6	;RP1=0, select bank1
  3868  0423  0826               	movf	(__doprnt@integ)^080h,w
  3869  0424  00F0               	movwf	(?___ftge)
  3870  0425  0827               	movf	(__doprnt@integ+1)^080h,w
  3871  0426  00F1               	movwf	(?___ftge+1)
  3872  0427  0828               	movf	(__doprnt@integ+2)^080h,w
  3873  0428  00F2               	movwf	(?___ftge+2)
  3874  0429  3000               	movlw	0x0
  3875  042A  00F3               	movwf	0+(?___ftge)+03h
  3876  042B  3020               	movlw	0x20
  3877  042C  00F4               	movwf	1+(?___ftge)+03h
  3878  042D  3041               	movlw	0x41
  3879  042E  00F5               	movwf	2+(?___ftge)+03h
  3880  042F  160A  158A  2635   	fcall	___ftge
              120A  118A         
  3881  0434  1C03               	btfss	status,0
  3882  0435  2C37               	goto	u4951
  3883  0436  2C38               	goto	u4950
  3884  0437                     u4951:
  3885  0437  2B42               	goto	l10204
  3886  0438                     u4950:
  3887                           	line	854
  3888                           	
  3889  0438                     l10202:	
  3890  0438  3001               	movlw	low(01h)
  3891  0439  1683               	bsf	status, 5	;RP0=1, select bank1
  3892  043A  1303               	bcf	status, 6	;RP1=0, select bank1
  3893  043B  07A9               	addwf	(__doprnt@exp)^080h,f
  3894  043C  1803               	skipnc
  3895  043D  0AAA               	incf	(__doprnt@exp+1)^080h,f
  3896  043E  3000               	movlw	high(01h)
  3897  043F  07AA               	addwf	(__doprnt@exp+1)^080h,f
  3898  0440  2B42               	goto	l10204
  3899                           	
  3900  082F                     l4886:	
  3901  082F  2831               	goto	l10204
  3902                           	line	855
  3903                           	
  3904  0830                     l4885:	
  3905  0830  2831               	goto	l10204
  3906                           	
  3907  0831                     l4882:	
  3908                           	line	1115
  3909                           	
  3910  0831                     l10204:	
  3911  0831  1683               	bsf	status, 5	;RP0=1, select bank1
  3912  0832  1303               	bcf	status, 6	;RP1=0, select bank1
  3913  0833  0830               	movf	(__doprnt@prec+1)^080h,w
  3914  0834  3A80               	xorlw	80h
  3915  0835  00FF               	movwf	btemp+1
  3916  0836  3080               	movlw	(high(0Dh))^80h
  3917  0837  027F               	subwf	btemp+1,w
  3918  0838  1D03               	skipz
  3919  0839  283C               	goto	u4965
  3920  083A  300D               	movlw	low(0Dh)
  3921  083B  022F               	subwf	(__doprnt@prec)^080h,w
  3922  083C                     u4965:
  3923                           
  3924  083C  1803               	skipnc
  3925  083D  283F               	goto	u4961
  3926  083E  2840               	goto	u4960
  3927  083F                     u4961:
  3928  083F  287A               	goto	l10208
  3929  0840                     u4960:
  3930                           	line	1116
  3931                           	
  3932  0840                     l10206:	
  3933  0840  1683               	bsf	status, 5	;RP0=1, select bank1
  3934  0841  1303               	bcf	status, 6	;RP1=0, select bank1
  3935  0842  082F               	movf	(__doprnt@prec)^080h,w
  3936  0843  120A  118A  204F   	fcall	_fround
              120A  158A         
  3937  0848  1283               	bcf	status, 5	;RP0=0, select bank0
  3938  0849  1303               	bcf	status, 6	;RP1=0, select bank0
  3939  084A  0852               	movf	(0+(?_fround)),w
  3940  084B  00C5               	movwf	(?___ftadd)
  3941  084C  0853               	movf	(1+(?_fround)),w
  3942  084D  00C6               	movwf	(?___ftadd+1)
  3943  084E  0854               	movf	(2+(?_fround)),w
  3944  084F  00C7               	movwf	(?___ftadd+2)
  3945  0850  1683               	bsf	status, 5	;RP0=1, select bank1
  3946  0851  1303               	bcf	status, 6	;RP1=0, select bank1
  3947  0852  0831               	movf	(__doprnt@fval)^080h,w
  3948  0853  1283               	bcf	status, 5	;RP0=0, select bank0
  3949  0854  1303               	bcf	status, 6	;RP1=0, select bank0
  3950  0855  00C8               	movwf	0+(?___ftadd)+03h
  3951  0856  1683               	bsf	status, 5	;RP0=1, select bank1
  3952  0857  1303               	bcf	status, 6	;RP1=0, select bank1
  3953  0858  0832               	movf	(__doprnt@fval+1)^080h,w
  3954  0859  1283               	bcf	status, 5	;RP0=0, select bank0
  3955  085A  1303               	bcf	status, 6	;RP1=0, select bank0
  3956  085B  00C9               	movwf	1+(?___ftadd)+03h
  3957  085C  1683               	bsf	status, 5	;RP0=1, select bank1
  3958  085D  1303               	bcf	status, 6	;RP1=0, select bank1
  3959  085E  0833               	movf	(__doprnt@fval+2)^080h,w
  3960  085F  1283               	bcf	status, 5	;RP0=0, select bank0
  3961  0860  1303               	bcf	status, 6	;RP1=0, select bank0
  3962  0861  00CA               	movwf	2+(?___ftadd)+03h
  3963  0862  160A  118A  2351   	fcall	___ftadd
              120A  158A         
  3964  0867  1283               	bcf	status, 5	;RP0=0, select bank0
  3965  0868  1303               	bcf	status, 6	;RP1=0, select bank0
  3966  0869  0845               	movf	(0+(?___ftadd)),w
  3967  086A  1683               	bsf	status, 5	;RP0=1, select bank1
  3968  086B  1303               	bcf	status, 6	;RP1=0, select bank1
  3969  086C  00B1               	movwf	(__doprnt@fval)^080h
  3970  086D  1283               	bcf	status, 5	;RP0=0, select bank0
  3971  086E  1303               	bcf	status, 6	;RP1=0, select bank0
  3972  086F  0846               	movf	(1+(?___ftadd)),w
  3973  0870  1683               	bsf	status, 5	;RP0=1, select bank1
  3974  0871  1303               	bcf	status, 6	;RP1=0, select bank1
  3975  0872  00B2               	movwf	(__doprnt@fval+1)^080h
  3976  0873  1283               	bcf	status, 5	;RP0=0, select bank0
  3977  0874  1303               	bcf	status, 6	;RP1=0, select bank0
  3978  0875  0847               	movf	(2+(?___ftadd)),w
  3979  0876  1683               	bsf	status, 5	;RP0=1, select bank1
  3980  0877  1303               	bcf	status, 6	;RP1=0, select bank1
  3981  0878  00B3               	movwf	(__doprnt@fval+2)^080h
  3982  0879  287A               	goto	l10208
  3983                           	
  3984  087A                     l4887:	
  3985                           	line	1119
  3986                           	
  3987  087A                     l10208:	
  3988  087A  1683               	bsf	status, 5	;RP0=1, select bank1
  3989  087B  1303               	bcf	status, 6	;RP1=0, select bank1
  3990  087C  082A               	movf	(__doprnt@exp+1)^080h,w
  3991  087D  3A80               	xorlw	80h
  3992  087E  00FF               	movwf	btemp+1
  3993  087F  3080               	movlw	(high(0Ah))^80h
  3994  0880  027F               	subwf	btemp+1,w
  3995  0881  1D03               	skipz
  3996  0882  2885               	goto	u4975
  3997  0883  300A               	movlw	low(0Ah)
  3998  0884  0229               	subwf	(__doprnt@exp)^080h,w
  3999  0885                     u4975:
  4000                           
  4001  0885  1803               	skipnc
  4002  0886  2888               	goto	u4971
  4003  0887  2889               	goto	u4970
  4004  0888                     u4971:
  4005  0888  28C1               	goto	l10216
  4006  0889                     u4970:
  4007                           	
  4008  0889                     l10210:	
  4009  0889  1683               	bsf	status, 5	;RP0=1, select bank1
  4010  088A  1303               	bcf	status, 6	;RP1=0, select bank1
  4011  088B  0833               	movf	(__doprnt@fval+2)^080h,w
  4012  088C  0432               	iorwf	(__doprnt@fval+1)^080h,w
  4013  088D  0431               	iorwf	(__doprnt@fval)^080h,w
  4014  088E  1903               	skipnz
  4015  088F  2891               	goto	u4981
  4016  0890  2892               	goto	u4980
  4017  0891                     u4981:
  4018  0891  294A               	goto	l10232
  4019  0892                     u4980:
  4020                           	
  4021  0892                     l10212:	
  4022  0892  0831               	movf	(__doprnt@fval)^080h,w
  4023  0893  1283               	bcf	status, 5	;RP0=0, select bank0
  4024  0894  1303               	bcf	status, 6	;RP1=0, select bank0
  4025  0895  00A7               	movwf	(?___fttol)
  4026  0896  1683               	bsf	status, 5	;RP0=1, select bank1
  4027  0897  1303               	bcf	status, 6	;RP1=0, select bank1
  4028  0898  0832               	movf	(__doprnt@fval+1)^080h,w
  4029  0899  1283               	bcf	status, 5	;RP0=0, select bank0
  4030  089A  1303               	bcf	status, 6	;RP1=0, select bank0
  4031  089B  00A8               	movwf	(?___fttol+1)
  4032  089C  1683               	bsf	status, 5	;RP0=1, select bank1
  4033  089D  1303               	bcf	status, 6	;RP1=0, select bank1
  4034  089E  0833               	movf	(__doprnt@fval+2)^080h,w
  4035  089F  1283               	bcf	status, 5	;RP0=0, select bank0
  4036  08A0  1303               	bcf	status, 6	;RP1=0, select bank0
  4037  08A1  00A9               	movwf	(?___fttol+2)
  4038  08A2  160A  118A  2101   	fcall	___fttol
              120A  158A         
  4039  08A7  1283               	bcf	status, 5	;RP0=0, select bank0
  4040  08A8  1303               	bcf	status, 6	;RP1=0, select bank0
  4041  08A9  082A               	movf	(3+(?___fttol)),w
  4042  08AA  0429               	iorwf	(2+(?___fttol)),w
  4043  08AB  0428               	iorwf	(1+(?___fttol)),w
  4044  08AC  0427               	iorwf	(0+(?___fttol)),w
  4045  08AD  1D03               	skipz
  4046  08AE  28B0               	goto	u4991
  4047  08AF  28B1               	goto	u4990
  4048  08B0                     u4991:
  4049  08B0  294A               	goto	l10232
  4050  08B1                     u4990:
  4051                           	
  4052  08B1                     l10214:	
  4053  08B1  1683               	bsf	status, 5	;RP0=1, select bank1
  4054  08B2  1303               	bcf	status, 6	;RP1=0, select bank1
  4055  08B3  082A               	movf	(__doprnt@exp+1)^080h,w
  4056  08B4  3A80               	xorlw	80h
  4057  08B5  00FF               	movwf	btemp+1
  4058  08B6  3080               	movlw	(high(02h))^80h
  4059  08B7  027F               	subwf	btemp+1,w
  4060  08B8  1D03               	skipz
  4061  08B9  28BC               	goto	u5005
  4062  08BA  3002               	movlw	low(02h)
  4063  08BB  0229               	subwf	(__doprnt@exp)^080h,w
  4064  08BC                     u5005:
  4065                           
  4066  08BC  1C03               	skipc
  4067  08BD  28BF               	goto	u5001
  4068  08BE  28C0               	goto	u5000
  4069  08BF                     u5001:
  4070  08BF  294A               	goto	l10232
  4071  08C0                     u5000:
  4072  08C0  28C1               	goto	l10216
  4073                           	
  4074  08C1                     l4890:	
  4075                           	line	1123
  4076                           	
  4077  08C1                     l10216:	
  4078  08C1  1683               	bsf	status, 5	;RP0=1, select bank1
  4079  08C2  1303               	bcf	status, 6	;RP1=0, select bank1
  4080  08C3  0826               	movf	(__doprnt@integ)^080h,w
  4081  08C4  00F0               	movwf	(?___ftge)
  4082  08C5  0827               	movf	(__doprnt@integ+1)^080h,w
  4083  08C6  00F1               	movwf	(?___ftge+1)
  4084  08C7  0828               	movf	(__doprnt@integ+2)^080h,w
  4085  08C8  00F2               	movwf	(?___ftge+2)
  4086  08C9  3070               	movlw	0x70
  4087  08CA  00F3               	movwf	0+(?___ftge)+03h
  4088  08CB  3089               	movlw	0x89
  4089  08CC  00F4               	movwf	1+(?___ftge)+03h
  4090  08CD  3040               	movlw	0x40
  4091  08CE  00F5               	movwf	2+(?___ftge)+03h
  4092  08CF  160A  158A  2635   	fcall	___ftge
              120A  158A         
  4093  08D4  1803               	btfsc	status,0
  4094  08D5  28D7               	goto	u5011
  4095  08D6  28D8               	goto	u5010
  4096  08D7                     u5011:
  4097  08D7  28E1               	goto	l10220
  4098  08D8                     u5010:
  4099                           	line	1124
  4100                           	
  4101  08D8                     l10218:	
  4102  08D8  30F7               	movlw	low(-9)
  4103  08D9  1683               	bsf	status, 5	;RP0=1, select bank1
  4104  08DA  1303               	bcf	status, 6	;RP1=0, select bank1
  4105  08DB  07A9               	addwf	(__doprnt@exp)^080h,f
  4106  08DC  1803               	skipnc
  4107  08DD  0AAA               	incf	(__doprnt@exp+1)^080h,f
  4108  08DE  30FF               	movlw	high(-9)
  4109  08DF  07AA               	addwf	(__doprnt@exp+1)^080h,f
  4110                           	line	1125
  4111  08E0  28EA               	goto	l10222
  4112                           	
  4113  08E1                     l4891:	
  4114                           	line	1126
  4115                           	
  4116  08E1                     l10220:	
  4117  08E1  30F8               	movlw	low(-8)
  4118  08E2  1683               	bsf	status, 5	;RP0=1, select bank1
  4119  08E3  1303               	bcf	status, 6	;RP1=0, select bank1
  4120  08E4  07A9               	addwf	(__doprnt@exp)^080h,f
  4121  08E5  1803               	skipnc
  4122  08E6  0AAA               	incf	(__doprnt@exp+1)^080h,f
  4123  08E7  30FF               	movlw	high(-8)
  4124  08E8  07AA               	addwf	(__doprnt@exp+1)^080h,f
  4125  08E9  28EA               	goto	l10222
  4126                           	line	1127
  4127                           	
  4128  08EA                     l4892:	
  4129                           	line	1128
  4130                           	
  4131  08EA                     l10222:	
  4132  08EA  0829               	movf	(__doprnt@exp)^080h,w
  4133  08EB  120A  118A  2441   	fcall	_scale
              120A  158A         
  4134  08F0  1283               	bcf	status, 5	;RP0=0, select bank0
  4135  08F1  1303               	bcf	status, 6	;RP1=0, select bank0
  4136  08F2  0845               	movf	(0+(?_scale)),w
  4137  08F3  1683               	bsf	status, 5	;RP0=1, select bank1
  4138  08F4  1303               	bcf	status, 6	;RP1=0, select bank1
  4139  08F5  00A6               	movwf	(__doprnt@integ)^080h
  4140  08F6  1283               	bcf	status, 5	;RP0=0, select bank0
  4141  08F7  1303               	bcf	status, 6	;RP1=0, select bank0
  4142  08F8  0846               	movf	(1+(?_scale)),w
  4143  08F9  1683               	bsf	status, 5	;RP0=1, select bank1
  4144  08FA  1303               	bcf	status, 6	;RP1=0, select bank1
  4145  08FB  00A7               	movwf	(__doprnt@integ+1)^080h
  4146  08FC  1283               	bcf	status, 5	;RP0=0, select bank0
  4147  08FD  1303               	bcf	status, 6	;RP1=0, select bank0
  4148  08FE  0847               	movf	(2+(?_scale)),w
  4149  08FF  1683               	bsf	status, 5	;RP0=1, select bank1
  4150  0900  1303               	bcf	status, 6	;RP1=0, select bank1
  4151  0901  00A8               	movwf	(__doprnt@integ+2)^080h
  4152                           	line	1129
  4153  0902  291F               	goto	l10226
  4154                           	
  4155  0903                     l10224:	
  4156  0903  0831               	movf	(__doprnt@fval)^080h,w
  4157  0904  00F0               	movwf	(?__div_to_l_)
  4158  0905  0832               	movf	(__doprnt@fval+1)^080h,w
  4159  0906  00F1               	movwf	(?__div_to_l_+1)
  4160  0907  0833               	movf	(__doprnt@fval+2)^080h,w
  4161  0908  00F2               	movwf	(?__div_to_l_+2)
  4162  0909  0826               	movf	(__doprnt@integ)^080h,w
  4163  090A  00F3               	movwf	0+(?__div_to_l_)+03h
  4164  090B  0827               	movf	(__doprnt@integ+1)^080h,w
  4165  090C  00F4               	movwf	1+(?__div_to_l_)+03h
  4166  090D  0828               	movf	(__doprnt@integ+2)^080h,w
  4167  090E  00F5               	movwf	2+(?__div_to_l_)+03h
  4168  090F  160A  118A  2497   	fcall	__div_to_l_
              120A  158A         
  4169  0914  0873               	movf	(3+(?__div_to_l_)),w
  4170  0915  1683               	bsf	status, 5	;RP0=1, select bank1
  4171  0916  1303               	bcf	status, 6	;RP1=0, select bank1
  4172  0917  00A3               	movwf	(__doprnt$5168+3)^080h
  4173  0918  0872               	movf	(2+(?__div_to_l_)),w
  4174  0919  00A2               	movwf	(__doprnt$5168+2)^080h
  4175  091A  0871               	movf	(1+(?__div_to_l_)),w
  4176  091B  00A1               	movwf	(__doprnt$5168+1)^080h
  4177  091C  0870               	movf	(0+(?__div_to_l_)),w
  4178  091D  00A0               	movwf	(__doprnt$5168)^080h
  4179                           
  4180  091E  293B               	goto	l10228
  4181                           	
  4182  091F                     l4894:	
  4183                           	
  4184  091F                     l10226:	
  4185  091F  0831               	movf	(__doprnt@fval)^080h,w
  4186  0920  00F0               	movwf	(?__tdiv_to_l_)
  4187  0921  0832               	movf	(__doprnt@fval+1)^080h,w
  4188  0922  00F1               	movwf	(?__tdiv_to_l_+1)
  4189  0923  0833               	movf	(__doprnt@fval+2)^080h,w
  4190  0924  00F2               	movwf	(?__tdiv_to_l_+2)
  4191  0925  0826               	movf	(__doprnt@integ)^080h,w
  4192  0926  00F3               	movwf	0+(?__tdiv_to_l_)+03h
  4193  0927  0827               	movf	(__doprnt@integ+1)^080h,w
  4194  0928  00F4               	movwf	1+(?__tdiv_to_l_)+03h
  4195  0929  0828               	movf	(__doprnt@integ+2)^080h,w
  4196  092A  00F5               	movwf	2+(?__tdiv_to_l_)+03h
  4197  092B  160A  118A  226F   	fcall	__tdiv_to_l_
              120A  158A         
  4198  0930  0873               	movf	(3+(?__tdiv_to_l_)),w
  4199  0931  1683               	bsf	status, 5	;RP0=1, select bank1
  4200  0932  1303               	bcf	status, 6	;RP1=0, select bank1
  4201  0933  00A3               	movwf	(__doprnt$5168+3)^080h
  4202  0934  0872               	movf	(2+(?__tdiv_to_l_)),w
  4203  0935  00A2               	movwf	(__doprnt$5168+2)^080h
  4204  0936  0871               	movf	(1+(?__tdiv_to_l_)),w
  4205  0937  00A1               	movwf	(__doprnt$5168+1)^080h
  4206  0938  0870               	movf	(0+(?__tdiv_to_l_)),w
  4207  0939  00A0               	movwf	(__doprnt$5168)^080h
  4208                           
  4209  093A  293B               	goto	l10228
  4210                           	
  4211  093B                     l4896:	
  4212                           	
  4213  093B                     l10228:	
  4214  093B  0823               	movf	(__doprnt$5168+3)^080h,w
  4215  093C  00AE               	movwf	(__doprnt@_val+3)^080h
  4216  093D  0822               	movf	(__doprnt$5168+2)^080h,w
  4217  093E  00AD               	movwf	(__doprnt@_val+2)^080h
  4218  093F  0821               	movf	(__doprnt$5168+1)^080h,w
  4219  0940  00AC               	movwf	(__doprnt@_val+1)^080h
  4220  0941  0820               	movf	(__doprnt$5168)^080h,w
  4221  0942  00AB               	movwf	(__doprnt@_val)^080h
  4222                           
  4223                           	line	1132
  4224                           	
  4225  0943                     l10230:	
  4226  0943  3000               	movlw	0x0
  4227  0944  00B1               	movwf	(__doprnt@fval)^080h
  4228  0945  3000               	movlw	0x0
  4229  0946  00B2               	movwf	(__doprnt@fval+1)^080h
  4230  0947  3000               	movlw	0x0
  4231  0948  00B3               	movwf	(__doprnt@fval+2)^080h
  4232                           	line	1133
  4233  0949  29BA               	goto	l10236
  4234                           	
  4235  094A                     l4888:	
  4236                           	line	1134
  4237                           	
  4238  094A                     l10232:	
  4239  094A  1683               	bsf	status, 5	;RP0=1, select bank1
  4240  094B  1303               	bcf	status, 6	;RP1=0, select bank1
  4241  094C  0831               	movf	(__doprnt@fval)^080h,w
  4242  094D  1283               	bcf	status, 5	;RP0=0, select bank0
  4243  094E  1303               	bcf	status, 6	;RP1=0, select bank0
  4244  094F  00A7               	movwf	(?___fttol)
  4245  0950  1683               	bsf	status, 5	;RP0=1, select bank1
  4246  0951  1303               	bcf	status, 6	;RP1=0, select bank1
  4247  0952  0832               	movf	(__doprnt@fval+1)^080h,w
  4248  0953  1283               	bcf	status, 5	;RP0=0, select bank0
  4249  0954  1303               	bcf	status, 6	;RP1=0, select bank0
  4250  0955  00A8               	movwf	(?___fttol+1)
  4251  0956  1683               	bsf	status, 5	;RP0=1, select bank1
  4252  0957  1303               	bcf	status, 6	;RP1=0, select bank1
  4253  0958  0833               	movf	(__doprnt@fval+2)^080h,w
  4254  0959  1283               	bcf	status, 5	;RP0=0, select bank0
  4255  095A  1303               	bcf	status, 6	;RP1=0, select bank0
  4256  095B  00A9               	movwf	(?___fttol+2)
  4257  095C  160A  118A  2101   	fcall	___fttol
              120A  158A         
  4258  0961  1283               	bcf	status, 5	;RP0=0, select bank0
  4259  0962  1303               	bcf	status, 6	;RP1=0, select bank0
  4260  0963  082A               	movf	(3+(?___fttol)),w
  4261  0964  1683               	bsf	status, 5	;RP0=1, select bank1
  4262  0965  1303               	bcf	status, 6	;RP1=0, select bank1
  4263  0966  00AE               	movwf	(__doprnt@_val+3)^080h
  4264  0967  1283               	bcf	status, 5	;RP0=0, select bank0
  4265  0968  1303               	bcf	status, 6	;RP1=0, select bank0
  4266  0969  0829               	movf	(2+(?___fttol)),w
  4267  096A  1683               	bsf	status, 5	;RP0=1, select bank1
  4268  096B  1303               	bcf	status, 6	;RP1=0, select bank1
  4269  096C  00AD               	movwf	(__doprnt@_val+2)^080h
  4270  096D  1283               	bcf	status, 5	;RP0=0, select bank0
  4271  096E  1303               	bcf	status, 6	;RP1=0, select bank0
  4272  096F  0828               	movf	(1+(?___fttol)),w
  4273  0970  1683               	bsf	status, 5	;RP0=1, select bank1
  4274  0971  1303               	bcf	status, 6	;RP1=0, select bank1
  4275  0972  00AC               	movwf	(__doprnt@_val+1)^080h
  4276  0973  1283               	bcf	status, 5	;RP0=0, select bank0
  4277  0974  1303               	bcf	status, 6	;RP1=0, select bank0
  4278  0975  0827               	movf	(0+(?___fttol)),w
  4279  0976  1683               	bsf	status, 5	;RP0=1, select bank1
  4280  0977  1303               	bcf	status, 6	;RP1=0, select bank1
  4281  0978  00AB               	movwf	(__doprnt@_val)^080h
  4282                           
  4283                           	line	1135
  4284  0979  082E               	movf	(__doprnt@_val+3)^080h,w
  4285  097A  00FB               	movwf	(?___lltoft+3)
  4286  097B  082D               	movf	(__doprnt@_val+2)^080h,w
  4287  097C  00FA               	movwf	(?___lltoft+2)
  4288  097D  082C               	movf	(__doprnt@_val+1)^080h,w
  4289  097E  00F9               	movwf	(?___lltoft+1)
  4290  097F  082B               	movf	(__doprnt@_val)^080h,w
  4291  0980  00F8               	movwf	(?___lltoft)
  4292                           
  4293  0981  120A  118A  201D   	fcall	___lltoft
              120A  158A         
  4294  0986  0878               	movf	(0+(?___lltoft)),w
  4295  0987  1283               	bcf	status, 5	;RP0=0, select bank0
  4296  0988  1303               	bcf	status, 6	;RP1=0, select bank0
  4297  0989  00D2               	movwf	(?___ftsub)
  4298  098A  0879               	movf	(1+(?___lltoft)),w
  4299  098B  00D3               	movwf	(?___ftsub+1)
  4300  098C  087A               	movf	(2+(?___lltoft)),w
  4301  098D  00D4               	movwf	(?___ftsub+2)
  4302  098E  1683               	bsf	status, 5	;RP0=1, select bank1
  4303  098F  1303               	bcf	status, 6	;RP1=0, select bank1
  4304  0990  0831               	movf	(__doprnt@fval)^080h,w
  4305  0991  1283               	bcf	status, 5	;RP0=0, select bank0
  4306  0992  1303               	bcf	status, 6	;RP1=0, select bank0
  4307  0993  00D5               	movwf	0+(?___ftsub)+03h
  4308  0994  1683               	bsf	status, 5	;RP0=1, select bank1
  4309  0995  1303               	bcf	status, 6	;RP1=0, select bank1
  4310  0996  0832               	movf	(__doprnt@fval+1)^080h,w
  4311  0997  1283               	bcf	status, 5	;RP0=0, select bank0
  4312  0998  1303               	bcf	status, 6	;RP1=0, select bank0
  4313  0999  00D6               	movwf	1+(?___ftsub)+03h
  4314  099A  1683               	bsf	status, 5	;RP0=1, select bank1
  4315  099B  1303               	bcf	status, 6	;RP1=0, select bank1
  4316  099C  0833               	movf	(__doprnt@fval+2)^080h,w
  4317  099D  1283               	bcf	status, 5	;RP0=0, select bank0
  4318  099E  1303               	bcf	status, 6	;RP1=0, select bank0
  4319  099F  00D7               	movwf	2+(?___ftsub)+03h
  4320  09A0  160A  118A  20E2   	fcall	___ftsub
              120A  158A         
  4321  09A5  1283               	bcf	status, 5	;RP0=0, select bank0
  4322  09A6  1303               	bcf	status, 6	;RP1=0, select bank0
  4323  09A7  0852               	movf	(0+(?___ftsub)),w
  4324  09A8  1683               	bsf	status, 5	;RP0=1, select bank1
  4325  09A9  1303               	bcf	status, 6	;RP1=0, select bank1
  4326  09AA  00B1               	movwf	(__doprnt@fval)^080h
  4327  09AB  1283               	bcf	status, 5	;RP0=0, select bank0
  4328  09AC  1303               	bcf	status, 6	;RP1=0, select bank0
  4329  09AD  0853               	movf	(1+(?___ftsub)),w
  4330  09AE  1683               	bsf	status, 5	;RP0=1, select bank1
  4331  09AF  1303               	bcf	status, 6	;RP1=0, select bank1
  4332  09B0  00B2               	movwf	(__doprnt@fval+1)^080h
  4333  09B1  1283               	bcf	status, 5	;RP0=0, select bank0
  4334  09B2  1303               	bcf	status, 6	;RP1=0, select bank0
  4335  09B3  0854               	movf	(2+(?___ftsub)),w
  4336  09B4  1683               	bsf	status, 5	;RP0=1, select bank1
  4337  09B5  1303               	bcf	status, 6	;RP1=0, select bank1
  4338  09B6  00B3               	movwf	(__doprnt@fval+2)^080h
  4339                           	line	1136
  4340                           	
  4341  09B7                     l10234:	
  4342  09B7  01A9               	clrf	(__doprnt@exp)^080h
  4343  09B8  01AA               	clrf	(__doprnt@exp+1)^080h
  4344  09B9  29BA               	goto	l10236
  4345                           	line	1137
  4346                           	
  4347  09BA                     l4897:	
  4348                           	line	1139
  4349                           	
  4350  09BA                     l10236:	
  4351  09BA  01B4               	clrf	(__doprnt@c)^080h
  4352  09BB  1403               	bsf	status,0
  4353  09BC  0DB4               	rlf	(__doprnt@c)^080h,f
  4354                           	
  4355  09BD                     l10238:	
  4356  09BD  0834               	movf	(__doprnt@c)^080h,w
  4357  09BE  3A0A               	xorlw	0Ah
  4358  09BF  1D03               	skipz
  4359  09C0  29C2               	goto	u5021
  4360  09C1  29C3               	goto	u5020
  4361  09C2                     u5021:
  4362  09C2  29C5               	goto	l10242
  4363  09C3                     u5020:
  4364  09C3  2A1C               	goto	l10250
  4365                           	
  4366  09C4                     l10240:	
  4367  09C4  2A1C               	goto	l10250
  4368                           	line	1140
  4369                           	
  4370  09C5                     l4898:	
  4371                           	
  4372  09C5                     l10242:	
  4373  09C5  0834               	movf	(__doprnt@c)^080h,w
  4374  09C6  1283               	bcf	status, 5	;RP0=0, select bank0
  4375  09C7  1303               	bcf	status, 6	;RP1=0, select bank0
  4376  09C8  00E4               	movwf	(??__doprnt+0)+0
  4377  09C9  3001               	movlw	(02h)-1
  4378  09CA                     u5035:
  4379  09CA  1003               	clrc
  4380  09CB  0DE4               	rlf	(??__doprnt+0)+0,f
  4381  09CC  3EFF               	addlw	-1
  4382  09CD  1D03               	skipz
  4383  09CE  29CA               	goto	u5035
  4384  09CF  1003               	clrc
  4385  09D0  0D64               	rlf	(??__doprnt+0)+0,w
  4386  09D1  3E01               	addlw	low((_dpowers-__stringbase))
  4387  09D2  0084               	movwf	fsr0
  4388  09D3  160A  118A  200A   	fcall	stringdir
              120A  158A         
  4389  09D8  00E5               	movwf	((??__doprnt+1)+0)
  4390  09D9  160A  118A  200A   	fcall	stringdir
              120A  158A         
  4391  09DE  00E6               	movwf	((??__doprnt+1)+0+1)
  4392  09DF  160A  118A  200A   	fcall	stringdir
              120A  158A         
  4393  09E4  00E7               	movwf	((??__doprnt+1)+0+2)
  4394  09E5  160A  118A  200A   	fcall	stringdir
              120A  158A         
  4395  09EA  00E8               	movwf	((??__doprnt+1)+0+3)
  4396  09EB  0868               	movf	3+(??__doprnt+1)+0,w
  4397  09EC  1683               	bsf	status, 5	;RP0=1, select bank1
  4398  09ED  1303               	bcf	status, 6	;RP1=0, select bank1
  4399  09EE  022E               	subwf	(__doprnt@_val+3)^080h,w
  4400  09EF  1D03               	skipz
  4401  09F0  2A07               	goto	u5045
  4402  09F1  1283               	bcf	status, 5	;RP0=0, select bank0
  4403  09F2  1303               	bcf	status, 6	;RP1=0, select bank0
  4404  09F3  0867               	movf	2+(??__doprnt+1)+0,w
  4405  09F4  1683               	bsf	status, 5	;RP0=1, select bank1
  4406  09F5  1303               	bcf	status, 6	;RP1=0, select bank1
  4407  09F6  022D               	subwf	(__doprnt@_val+2)^080h,w
  4408  09F7  1D03               	skipz
  4409  09F8  2A07               	goto	u5045
  4410  09F9  1283               	bcf	status, 5	;RP0=0, select bank0
  4411  09FA  1303               	bcf	status, 6	;RP1=0, select bank0
  4412  09FB  0866               	movf	1+(??__doprnt+1)+0,w
  4413  09FC  1683               	bsf	status, 5	;RP0=1, select bank1
  4414  09FD  1303               	bcf	status, 6	;RP1=0, select bank1
  4415  09FE  022C               	subwf	(__doprnt@_val+1)^080h,w
  4416  09FF  1D03               	skipz
  4417  0A00  2A07               	goto	u5045
  4418  0A01  1283               	bcf	status, 5	;RP0=0, select bank0
  4419  0A02  1303               	bcf	status, 6	;RP1=0, select bank0
  4420  0A03  0865               	movf	0+(??__doprnt+1)+0,w
  4421  0A04  1683               	bsf	status, 5	;RP0=1, select bank1
  4422  0A05  1303               	bcf	status, 6	;RP1=0, select bank1
  4423  0A06  022B               	subwf	(__doprnt@_val)^080h,w
  4424  0A07                     u5045:
  4425  0A07  1803               	skipnc
  4426  0A08  2A0A               	goto	u5041
  4427  0A09  2A0B               	goto	u5040
  4428  0A0A                     u5041:
  4429  0A0A  2A0D               	goto	l10246
  4430  0A0B                     u5040:
  4431  0A0B  2A1C               	goto	l10250
  4432                           	line	1141
  4433                           	
  4434  0A0C                     l10244:	
  4435  0A0C  2A1C               	goto	l10250
  4436                           	
  4437  0A0D                     l4900:	
  4438                           	line	1139
  4439                           	
  4440  0A0D                     l10246:	
  4441  0A0D  3001               	movlw	(01h)
  4442  0A0E  1283               	bcf	status, 5	;RP0=0, select bank0
  4443  0A0F  1303               	bcf	status, 6	;RP1=0, select bank0
  4444  0A10  00E4               	movwf	(??__doprnt+0)+0
  4445  0A11  0864               	movf	(??__doprnt+0)+0,w
  4446  0A12  1683               	bsf	status, 5	;RP0=1, select bank1
  4447  0A13  1303               	bcf	status, 6	;RP1=0, select bank1
  4448  0A14  07B4               	addwf	(__doprnt@c)^080h,f
  4449                           	
  4450  0A15                     l10248:	
  4451  0A15  0834               	movf	(__doprnt@c)^080h,w
  4452  0A16  3A0A               	xorlw	0Ah
  4453  0A17  1D03               	skipz
  4454  0A18  2A1A               	goto	u5051
  4455  0A19  2A1B               	goto	u5050
  4456  0A1A                     u5051:
  4457  0A1A  29C5               	goto	l10242
  4458  0A1B                     u5050:
  4459  0A1B  2A1C               	goto	l10250
  4460                           	
  4461  0A1C                     l4899:	
  4462                           	line	1189
  4463                           	
  4464  0A1C                     l10250:	
  4465  0A1C  3003               	movlw	low(03h)
  4466  0A1D  0524               	andwf	(__doprnt@flag)^080h,w
  4467  0A1E  1283               	bcf	status, 5	;RP0=0, select bank0
  4468  0A1F  1303               	bcf	status, 6	;RP1=0, select bank0
  4469  0A20  00E4               	movwf	(??__doprnt+0)+0
  4470  0A21  3000               	movlw	high(03h)
  4471  0A22  1683               	bsf	status, 5	;RP0=1, select bank1
  4472  0A23  1303               	bcf	status, 6	;RP1=0, select bank1
  4473  0A24  0525               	andwf	(__doprnt@flag+1)^080h,w
  4474  0A25  1283               	bcf	status, 5	;RP0=0, select bank0
  4475  0A26  1303               	bcf	status, 6	;RP1=0, select bank0
  4476  0A27  00E5               	movwf	1+(??__doprnt+0)+0
  4477  0A28  0865               	movf	1+(??__doprnt+0)+0,w
  4478  0A29  0464               	iorwf	0+(??__doprnt+0)+0,w
  4479  0A2A  1903               	skipnz
  4480  0A2B  2A2D               	goto	u5061
  4481  0A2C  2A2E               	goto	u5060
  4482  0A2D                     u5061:
  4483  0A2D  2B46               	goto	l10268
  4484  0A2E                     u5060:
  4485                           	line	1191
  4486                           	
  4487  0A2E                     l10252:	
  4488  0A2E  1683               	bsf	status, 5	;RP0=1, select bank1
  4489  0A2F  1303               	bcf	status, 6	;RP1=0, select bank1
  4490  0A30  0835               	movf	(__doprnt@pb)^080h,w
  4491  0A31  3E01               	addlw	01h
  4492  0A32  0084               	movwf	fsr0
  4493  0A33  1383               	bcf	status, 7	;select IRP bank0
  4494  0A34  0880               	movf	indf
  4495  0A35  1903               	skipnz
  4496  0A36  2A38               	goto	u5071
  4497  0A37  2A39               	goto	u5070
  4498  0A38                     u5071:
  4499  0A38  2A4B               	goto	l10256
  4500  0A39                     u5070:
  4501                           	
  4502  0A39                     l10254:	
  4503  0A39  302D               	movlw	(02Dh)
  4504  0A3A  1283               	bcf	status, 5	;RP0=0, select bank0
  4505  0A3B  1303               	bcf	status, 6	;RP1=0, select bank0
  4506  0A3C  00E4               	movwf	(??__doprnt+0)+0
  4507  0A3D  0864               	movf	(??__doprnt+0)+0,w
  4508  0A3E  00AA               	movwf	(?_putch)
  4509  0A3F  1683               	bsf	status, 5	;RP0=1, select bank1
  4510  0A40  1303               	bcf	status, 6	;RP1=0, select bank1
  4511  0A41  0835               	movf	(__doprnt@pb)^080h,w
  4512  0A42  3E01               	addlw	01h
  4513  0A43  0084               	movwf	fsr0
  4514  0A44  0800               	movf	indf,w
  4515  0A45  120A  118A  2700   	fcall	fptable
              120A  158A         
  4516  0A4A  2B46               	goto	l10268
  4517                           	
  4518  0A4B                     l4902:	
  4519                           	
  4520  0A4B                     l10256:	
  4521  0A4B  302D               	movlw	(02Dh)
  4522  0A4C  1283               	bcf	status, 5	;RP0=0, select bank0
  4523  0A4D  1303               	bcf	status, 6	;RP1=0, select bank0
  4524  0A4E  00E4               	movwf	(??__doprnt+0)+0
  4525  0A4F  1683               	bsf	status, 5	;RP0=1, select bank1
  4526  0A50  1303               	bcf	status, 6	;RP1=0, select bank1
  4527  0A51  0835               	movf	(__doprnt@pb)^080h,w
  4528  0A52  0084               	movwf	fsr0
  4529  0A53  1383               	bcf	status, 7	;select IRP bank0
  4530  0A54  0800               	movf	indf,w
  4531  0A55  0084               	movwf	fsr0
  4532  0A56  1283               	bcf	status, 5	;RP0=0, select bank0
  4533  0A57  1303               	bcf	status, 6	;RP1=0, select bank0
  4534  0A58  0864               	movf	(??__doprnt+0)+0,w
  4535  0A59  1783               	bsf	status, 7	;select IRP bank2
  4536  0A5A  0080               	movwf	indf
  4537                           	
  4538  0A5B                     l10258:	
  4539  0A5B  3001               	movlw	(01h)
  4540  0A5C  00E4               	movwf	(??__doprnt+0)+0
  4541  0A5D  1683               	bsf	status, 5	;RP0=1, select bank1
  4542  0A5E  1303               	bcf	status, 6	;RP1=0, select bank1
  4543  0A5F  0835               	movf	(__doprnt@pb)^080h,w
  4544  0A60  0084               	movwf	fsr0
  4545  0A61  1283               	bcf	status, 5	;RP0=0, select bank0
  4546  0A62  1303               	bcf	status, 6	;RP1=0, select bank0
  4547  0A63  0864               	movf	(??__doprnt+0)+0,w
  4548  0A64  1383               	bcf	status, 7	;select IRP bank0
  4549  0A65  0780               	addwf	indf,f
  4550  0A66  2B46               	goto	l10268
  4551                           	
  4552  0A67                     l4903:	
  4553  0A67  2B46               	goto	l10268
  4554                           	
  4555  0A68                     l4901:	
  4556                           	line	1197
  4557  0A68  2B46               	goto	l10268
  4558                           	
  4559  0A69                     l4905:	
  4560                           	line	1201
  4561                           	
  4562  0A69                     l10260:	
  4563  0A69  1683               	bsf	status, 5	;RP0=1, select bank1
  4564  0A6A  1303               	bcf	status, 6	;RP1=0, select bank1
  4565  0A6B  0835               	movf	(__doprnt@pb)^080h,w
  4566  0A6C  3E01               	addlw	01h
  4567  0A6D  0084               	movwf	fsr0
  4568  0A6E  1383               	bcf	status, 7	;select IRP bank0
  4569  0A6F  0880               	movf	indf
  4570  0A70  1903               	skipnz
  4571  0A71  2A73               	goto	u5081
  4572  0A72  2A74               	goto	u5080
  4573  0A73                     u5081:
  4574  0A73  2AD8               	goto	l10264
  4575  0A74                     u5080:
  4576                           	
  4577  0A74                     l10262:	
  4578  0A74  3000               	movlw	0
  4579  0A75  1283               	bcf	status, 5	;RP0=0, select bank0
  4580  0A76  1303               	bcf	status, 6	;RP1=0, select bank0
  4581  0A77  00A3               	movwf	(?___llmod+3)
  4582  0A78  3000               	movlw	0
  4583  0A79  00A2               	movwf	(?___llmod+2)
  4584  0A7A  3000               	movlw	0
  4585  0A7B  00A1               	movwf	(?___llmod+1)
  4586  0A7C  300A               	movlw	0Ah
  4587  0A7D  00A0               	movwf	(?___llmod)
  4588                           
  4589  0A7E  1683               	bsf	status, 5	;RP0=1, select bank1
  4590  0A7F  1303               	bcf	status, 6	;RP1=0, select bank1
  4591  0A80  0834               	movf	(__doprnt@c)^080h,w
  4592  0A81  1283               	bcf	status, 5	;RP0=0, select bank0
  4593  0A82  1303               	bcf	status, 6	;RP1=0, select bank0
  4594  0A83  00E4               	movwf	(??__doprnt+0)+0
  4595  0A84  3001               	movlw	(02h)-1
  4596  0A85                     u5095:
  4597  0A85  1003               	clrc
  4598  0A86  0DE4               	rlf	(??__doprnt+0)+0,f
  4599  0A87  3EFF               	addlw	-1
  4600  0A88  1D03               	skipz
  4601  0A89  2A85               	goto	u5095
  4602  0A8A  1003               	clrc
  4603  0A8B  0D64               	rlf	(??__doprnt+0)+0,w
  4604  0A8C  3E01               	addlw	low((_dpowers-__stringbase))
  4605  0A8D  0084               	movwf	fsr0
  4606  0A8E  160A  118A  200A   	fcall	stringdir
              120A  158A         
  4607  0A93  00F0               	movwf	(?___lldiv)
  4608  0A94  160A  118A  200A   	fcall	stringdir
              120A  158A         
  4609  0A99  00F1               	movwf	(?___lldiv+1)
  4610  0A9A  160A  118A  200A   	fcall	stringdir
              120A  158A         
  4611  0A9F  00F2               	movwf	(?___lldiv+2)
  4612  0AA0  160A  118A  200A   	fcall	stringdir
              120A  158A         
  4613  0AA5  00F3               	movwf	(?___lldiv+3)
  4614  0AA6  1683               	bsf	status, 5	;RP0=1, select bank1
  4615  0AA7  1303               	bcf	status, 6	;RP1=0, select bank1
  4616  0AA8  082E               	movf	(__doprnt@_val+3)^080h,w
  4617  0AA9  00F7               	movwf	3+(?___lldiv)+04h
  4618  0AAA  082D               	movf	(__doprnt@_val+2)^080h,w
  4619  0AAB  00F6               	movwf	2+(?___lldiv)+04h
  4620  0AAC  082C               	movf	(__doprnt@_val+1)^080h,w
  4621  0AAD  00F5               	movwf	1+(?___lldiv)+04h
  4622  0AAE  082B               	movf	(__doprnt@_val)^080h,w
  4623  0AAF  00F4               	movwf	0+(?___lldiv)+04h
  4624                           
  4625  0AB0  160A  158A  26A1   	fcall	___lldiv
              120A  158A         
  4626  0AB5  0873               	movf	(3+(?___lldiv)),w
  4627  0AB6  1283               	bcf	status, 5	;RP0=0, select bank0
  4628  0AB7  1303               	bcf	status, 6	;RP1=0, select bank0
  4629  0AB8  00A7               	movwf	3+(?___llmod)+04h
  4630  0AB9  0872               	movf	(2+(?___lldiv)),w
  4631  0ABA  00A6               	movwf	2+(?___llmod)+04h
  4632  0ABB  0871               	movf	(1+(?___lldiv)),w
  4633  0ABC  00A5               	movwf	1+(?___llmod)+04h
  4634  0ABD  0870               	movf	(0+(?___lldiv)),w
  4635  0ABE  00A4               	movwf	0+(?___llmod)+04h
  4636                           
  4637  0ABF  160A  158A  2511   	fcall	___llmod
              120A  158A         
  4638  0AC4  1283               	bcf	status, 5	;RP0=0, select bank0
  4639  0AC5  1303               	bcf	status, 6	;RP1=0, select bank0
  4640  0AC6  0820               	movf	0+(((0+(?___llmod)))),w
  4641  0AC7  3E30               	addlw	030h
  4642  0AC8  00E5               	movwf	(??__doprnt+1)+0
  4643  0AC9  0865               	movf	(??__doprnt+1)+0,w
  4644  0ACA  00AA               	movwf	(?_putch)
  4645  0ACB  1683               	bsf	status, 5	;RP0=1, select bank1
  4646  0ACC  1303               	bcf	status, 6	;RP1=0, select bank1
  4647  0ACD  0835               	movf	(__doprnt@pb)^080h,w
  4648  0ACE  3E01               	addlw	01h
  4649  0ACF  0084               	movwf	fsr0
  4650  0AD0  1383               	bcf	status, 7	;select IRP bank0
  4651  0AD1  0800               	movf	indf,w
  4652  0AD2  120A  118A  2700   	fcall	fptable
              120A  158A         
  4653  0AD7  2B46               	goto	l10268
  4654                           	
  4655  0AD8                     l4906:	
  4656                           	
  4657  0AD8                     l10264:	
  4658  0AD8  3000               	movlw	0
  4659  0AD9  1283               	bcf	status, 5	;RP0=0, select bank0
  4660  0ADA  1303               	bcf	status, 6	;RP1=0, select bank0
  4661  0ADB  00A3               	movwf	(?___llmod+3)
  4662  0ADC  3000               	movlw	0
  4663  0ADD  00A2               	movwf	(?___llmod+2)
  4664  0ADE  3000               	movlw	0
  4665  0ADF  00A1               	movwf	(?___llmod+1)
  4666  0AE0  300A               	movlw	0Ah
  4667  0AE1  00A0               	movwf	(?___llmod)
  4668                           
  4669  0AE2  1683               	bsf	status, 5	;RP0=1, select bank1
  4670  0AE3  1303               	bcf	status, 6	;RP1=0, select bank1
  4671  0AE4  0834               	movf	(__doprnt@c)^080h,w
  4672  0AE5  1283               	bcf	status, 5	;RP0=0, select bank0
  4673  0AE6  1303               	bcf	status, 6	;RP1=0, select bank0
  4674  0AE7  00E4               	movwf	(??__doprnt+0)+0
  4675  0AE8  3001               	movlw	(02h)-1
  4676  0AE9                     u5105:
  4677  0AE9  1003               	clrc
  4678  0AEA  0DE4               	rlf	(??__doprnt+0)+0,f
  4679  0AEB  3EFF               	addlw	-1
  4680  0AEC  1D03               	skipz
  4681  0AED  2AE9               	goto	u5105
  4682  0AEE  1003               	clrc
  4683  0AEF  0D64               	rlf	(??__doprnt+0)+0,w
  4684  0AF0  3E01               	addlw	low((_dpowers-__stringbase))
  4685  0AF1  0084               	movwf	fsr0
  4686  0AF2  160A  118A  200A   	fcall	stringdir
              120A  158A         
  4687  0AF7  00F0               	movwf	(?___lldiv)
  4688  0AF8  160A  118A  200A   	fcall	stringdir
              120A  158A         
  4689  0AFD  00F1               	movwf	(?___lldiv+1)
  4690  0AFE  160A  118A  200A   	fcall	stringdir
              120A  158A         
  4691  0B03  00F2               	movwf	(?___lldiv+2)
  4692  0B04  160A  118A  200A   	fcall	stringdir
              120A  158A         
  4693  0B09  00F3               	movwf	(?___lldiv+3)
  4694  0B0A  1683               	bsf	status, 5	;RP0=1, select bank1
  4695  0B0B  1303               	bcf	status, 6	;RP1=0, select bank1
  4696  0B0C  082E               	movf	(__doprnt@_val+3)^080h,w
  4697  0B0D  00F7               	movwf	3+(?___lldiv)+04h
  4698  0B0E  082D               	movf	(__doprnt@_val+2)^080h,w
  4699  0B0F  00F6               	movwf	2+(?___lldiv)+04h
  4700  0B10  082C               	movf	(__doprnt@_val+1)^080h,w
  4701  0B11  00F5               	movwf	1+(?___lldiv)+04h
  4702  0B12  082B               	movf	(__doprnt@_val)^080h,w
  4703  0B13  00F4               	movwf	0+(?___lldiv)+04h
  4704                           
  4705  0B14  160A  158A  26A1   	fcall	___lldiv
              120A  158A         
  4706  0B19  0873               	movf	(3+(?___lldiv)),w
  4707  0B1A  1283               	bcf	status, 5	;RP0=0, select bank0
  4708  0B1B  1303               	bcf	status, 6	;RP1=0, select bank0
  4709  0B1C  00A7               	movwf	3+(?___llmod)+04h
  4710  0B1D  0872               	movf	(2+(?___lldiv)),w
  4711  0B1E  00A6               	movwf	2+(?___llmod)+04h
  4712  0B1F  0871               	movf	(1+(?___lldiv)),w
  4713  0B20  00A5               	movwf	1+(?___llmod)+04h
  4714  0B21  0870               	movf	(0+(?___lldiv)),w
  4715  0B22  00A4               	movwf	0+(?___llmod)+04h
  4716                           
  4717  0B23  160A  158A  2511   	fcall	___llmod
              120A  158A         
  4718  0B28  1283               	bcf	status, 5	;RP0=0, select bank0
  4719  0B29  1303               	bcf	status, 6	;RP1=0, select bank0
  4720  0B2A  0820               	movf	0+(((0+(?___llmod)))),w
  4721  0B2B  3E30               	addlw	030h
  4722  0B2C  00E5               	movwf	(??__doprnt+1)+0
  4723  0B2D  1683               	bsf	status, 5	;RP0=1, select bank1
  4724  0B2E  1303               	bcf	status, 6	;RP1=0, select bank1
  4725  0B2F  0835               	movf	(__doprnt@pb)^080h,w
  4726  0B30  0084               	movwf	fsr0
  4727  0B31  1383               	bcf	status, 7	;select IRP bank0
  4728  0B32  0800               	movf	indf,w
  4729  0B33  0084               	movwf	fsr0
  4730  0B34  1283               	bcf	status, 5	;RP0=0, select bank0
  4731  0B35  1303               	bcf	status, 6	;RP1=0, select bank0
  4732  0B36  0865               	movf	(??__doprnt+1)+0,w
  4733  0B37  1783               	bsf	status, 7	;select IRP bank2
  4734  0B38  0080               	movwf	indf
  4735                           	
  4736  0B39                     l10266:	
  4737  0B39  3001               	movlw	(01h)
  4738  0B3A  00E4               	movwf	(??__doprnt+0)+0
  4739  0B3B  1683               	bsf	status, 5	;RP0=1, select bank1
  4740  0B3C  1303               	bcf	status, 6	;RP1=0, select bank1
  4741  0B3D  0835               	movf	(__doprnt@pb)^080h,w
  4742  0B3E  0084               	movwf	fsr0
  4743  0B3F  1283               	bcf	status, 5	;RP0=0, select bank0
  4744  0B40  1303               	bcf	status, 6	;RP1=0, select bank0
  4745  0B41  0864               	movf	(??__doprnt+0)+0,w
  4746  0B42  1383               	bcf	status, 7	;select IRP bank0
  4747  0B43  0780               	addwf	indf,f
  4748  0B44  2B46               	goto	l10268
  4749                           	
  4750  0B45                     l4907:	
  4751  0B45  2B46               	goto	l10268
  4752                           	line	1203
  4753                           	
  4754  0B46                     l4904:	
  4755                           	line	1197
  4756                           	
  4757  0B46                     l10268:	
  4758  0B46  30FF               	movlw	(-1)
  4759  0B47  1283               	bcf	status, 5	;RP0=0, select bank0
  4760  0B48  1303               	bcf	status, 6	;RP1=0, select bank0
  4761  0B49  00E4               	movwf	(??__doprnt+0)+0
  4762  0B4A  0864               	movf	(??__doprnt+0)+0,w
  4763  0B4B  1683               	bsf	status, 5	;RP0=1, select bank1
  4764  0B4C  1303               	bcf	status, 6	;RP1=0, select bank1
  4765  0B4D  07B4               	addwf	(__doprnt@c)^080h,f
  4766  0B4E  0834               	movf	((__doprnt@c)^080h),w
  4767  0B4F  3AFF               	xorlw	-1
  4768  0B50  1D03               	skipz
  4769  0B51  2B53               	goto	u5111
  4770  0B52  2B54               	goto	u5110
  4771  0B53                     u5111:
  4772  0B53  2A69               	goto	l10260
  4773  0B54                     u5110:
  4774  0B54  2B98               	goto	l10280
  4775                           	
  4776  0B55                     l4908:	
  4777                           	line	1204
  4778  0B55  2B98               	goto	l10280
  4779                           	
  4780  0B56                     l4910:	
  4781                           	line	1205
  4782                           	
  4783  0B56                     l10270:	
  4784  0B56  1683               	bsf	status, 5	;RP0=1, select bank1
  4785  0B57  1303               	bcf	status, 6	;RP1=0, select bank1
  4786  0B58  0835               	movf	(__doprnt@pb)^080h,w
  4787  0B59  3E01               	addlw	01h
  4788  0B5A  0084               	movwf	fsr0
  4789  0B5B  1383               	bcf	status, 7	;select IRP bank0
  4790  0B5C  0880               	movf	indf
  4791  0B5D  1903               	skipnz
  4792  0B5E  2B60               	goto	u5121
  4793  0B5F  2B61               	goto	u5120
  4794  0B60                     u5121:
  4795  0B60  2B73               	goto	l10274
  4796  0B61                     u5120:
  4797                           	
  4798  0B61                     l10272:	
  4799  0B61  3030               	movlw	(030h)
  4800  0B62  1283               	bcf	status, 5	;RP0=0, select bank0
  4801  0B63  1303               	bcf	status, 6	;RP1=0, select bank0
  4802  0B64  00E4               	movwf	(??__doprnt+0)+0
  4803  0B65  0864               	movf	(??__doprnt+0)+0,w
  4804  0B66  00AA               	movwf	(?_putch)
  4805  0B67  1683               	bsf	status, 5	;RP0=1, select bank1
  4806  0B68  1303               	bcf	status, 6	;RP1=0, select bank1
  4807  0B69  0835               	movf	(__doprnt@pb)^080h,w
  4808  0B6A  3E01               	addlw	01h
  4809  0B6B  0084               	movwf	fsr0
  4810  0B6C  0800               	movf	indf,w
  4811  0B6D  120A  118A  2700   	fcall	fptable
              120A  158A         
  4812  0B72  2B8F               	goto	l10278
  4813                           	
  4814  0B73                     l4911:	
  4815                           	
  4816  0B73                     l10274:	
  4817  0B73  3030               	movlw	(030h)
  4818  0B74  1283               	bcf	status, 5	;RP0=0, select bank0
  4819  0B75  1303               	bcf	status, 6	;RP1=0, select bank0
  4820  0B76  00E4               	movwf	(??__doprnt+0)+0
  4821  0B77  1683               	bsf	status, 5	;RP0=1, select bank1
  4822  0B78  1303               	bcf	status, 6	;RP1=0, select bank1
  4823  0B79  0835               	movf	(__doprnt@pb)^080h,w
  4824  0B7A  0084               	movwf	fsr0
  4825  0B7B  1383               	bcf	status, 7	;select IRP bank0
  4826  0B7C  0800               	movf	indf,w
  4827  0B7D  0084               	movwf	fsr0
  4828  0B7E  1283               	bcf	status, 5	;RP0=0, select bank0
  4829  0B7F  1303               	bcf	status, 6	;RP1=0, select bank0
  4830  0B80  0864               	movf	(??__doprnt+0)+0,w
  4831  0B81  1783               	bsf	status, 7	;select IRP bank2
  4832  0B82  0080               	movwf	indf
  4833                           	
  4834  0B83                     l10276:	
  4835  0B83  3001               	movlw	(01h)
  4836  0B84  00E4               	movwf	(??__doprnt+0)+0
  4837  0B85  1683               	bsf	status, 5	;RP0=1, select bank1
  4838  0B86  1303               	bcf	status, 6	;RP1=0, select bank1
  4839  0B87  0835               	movf	(__doprnt@pb)^080h,w
  4840  0B88  0084               	movwf	fsr0
  4841  0B89  1283               	bcf	status, 5	;RP0=0, select bank0
  4842  0B8A  1303               	bcf	status, 6	;RP1=0, select bank0
  4843  0B8B  0864               	movf	(??__doprnt+0)+0,w
  4844  0B8C  1383               	bcf	status, 7	;select IRP bank0
  4845  0B8D  0780               	addwf	indf,f
  4846  0B8E  2B8F               	goto	l10278
  4847                           	
  4848  0B8F                     l4912:	
  4849                           	line	1206
  4850                           	
  4851  0B8F                     l10278:	
  4852  0B8F  30FF               	movlw	low(-1)
  4853  0B90  1683               	bsf	status, 5	;RP0=1, select bank1
  4854  0B91  1303               	bcf	status, 6	;RP1=0, select bank1
  4855  0B92  07A9               	addwf	(__doprnt@exp)^080h,f
  4856  0B93  1803               	skipnc
  4857  0B94  0AAA               	incf	(__doprnt@exp+1)^080h,f
  4858  0B95  30FF               	movlw	high(-1)
  4859  0B96  07AA               	addwf	(__doprnt@exp+1)^080h,f
  4860  0B97  2B98               	goto	l10280
  4861                           	line	1207
  4862                           	
  4863  0B98                     l4909:	
  4864                           	line	1204
  4865                           	
  4866  0B98                     l10280:	
  4867  0B98  082A               	movf	(__doprnt@exp+1)^080h,w
  4868  0B99  3A80               	xorlw	80h
  4869  0B9A  00FF               	movwf	btemp+1
  4870  0B9B  3080               	movlw	(high(01h))^80h
  4871  0B9C  027F               	subwf	btemp+1,w
  4872  0B9D  1D03               	skipz
  4873  0B9E  2BA1               	goto	u5135
  4874  0B9F  3001               	movlw	low(01h)
  4875  0BA0  0229               	subwf	(__doprnt@exp)^080h,w
  4876  0BA1                     u5135:
  4877                           
  4878  0BA1  1803               	skipnc
  4879  0BA2  2BA4               	goto	u5131
  4880  0BA3  2BA5               	goto	u5130
  4881  0BA4                     u5131:
  4882  0BA4  2B56               	goto	l10270
  4883  0BA5                     u5130:
  4884  0BA5  2BA6               	goto	l10282
  4885                           	
  4886  0BA6                     l4913:	
  4887                           	line	1208
  4888                           	
  4889  0BA6                     l10282:	
  4890  0BA6  1683               	bsf	status, 5	;RP0=1, select bank1
  4891  0BA7  1303               	bcf	status, 6	;RP1=0, select bank1
  4892  0BA8  0830               	movf	(__doprnt@prec+1)^080h,w
  4893  0BA9  3A80               	xorlw	80h
  4894  0BAA  00FF               	movwf	btemp+1
  4895  0BAB  3080               	movlw	(high(09h))^80h
  4896  0BAC  027F               	subwf	btemp+1,w
  4897  0BAD  1D03               	skipz
  4898  0BAE  2BB1               	goto	u5145
  4899  0BAF  3009               	movlw	low(09h)
  4900  0BB0  022F               	subwf	(__doprnt@prec)^080h,w
  4901  0BB1                     u5145:
  4902                           
  4903  0BB1  1C03               	skipc
  4904  0BB2  2BB4               	goto	u5141
  4905  0BB3  2BB5               	goto	u5140
  4906  0BB4                     u5141:
  4907  0BB4  2BBE               	goto	l10286
  4908  0BB5                     u5140:
  4909                           	line	1209
  4910                           	
  4911  0BB5                     l10284:	
  4912  0BB5  3008               	movlw	(08h)
  4913  0BB6  1283               	bcf	status, 5	;RP0=0, select bank0
  4914  0BB7  1303               	bcf	status, 6	;RP1=0, select bank0
  4915  0BB8  00E4               	movwf	(??__doprnt+0)+0
  4916  0BB9  0864               	movf	(??__doprnt+0)+0,w
  4917  0BBA  1683               	bsf	status, 5	;RP0=1, select bank1
  4918  0BBB  1303               	bcf	status, 6	;RP1=0, select bank1
  4919  0BBC  00B4               	movwf	(__doprnt@c)^080h
  4920  0BBD  2BC8               	goto	l4915
  4921                           	line	1210
  4922                           	
  4923  0BBE                     l4914:	
  4924                           	line	1211
  4925                           	
  4926  0BBE                     l10286:	
  4927  0BBE  1683               	bsf	status, 5	;RP0=1, select bank1
  4928  0BBF  1303               	bcf	status, 6	;RP1=0, select bank1
  4929  0BC0  082F               	movf	(__doprnt@prec)^080h,w
  4930  0BC1  1283               	bcf	status, 5	;RP0=0, select bank0
  4931  0BC2  1303               	bcf	status, 6	;RP1=0, select bank0
  4932  0BC3  00E4               	movwf	(??__doprnt+0)+0
  4933  0BC4  0864               	movf	(??__doprnt+0)+0,w
  4934  0BC5  1683               	bsf	status, 5	;RP0=1, select bank1
  4935  0BC6  1303               	bcf	status, 6	;RP1=0, select bank1
  4936  0BC7  00B4               	movwf	(__doprnt@c)^080h
  4937                           	
  4938  0BC8                     l4915:	
  4939                           	line	1212
  4940  0BC8  0834               	movf	(__doprnt@c)^080h,w
  4941  0BC9  1283               	bcf	status, 5	;RP0=0, select bank0
  4942  0BCA  1303               	bcf	status, 6	;RP1=0, select bank0
  4943  0BCB  00E4               	movwf	(??__doprnt+0)+0
  4944  0BCC  01E5               	clrf	(??__doprnt+0)+0+1
  4945  0BCD  1BE4               	btfsc	(??__doprnt+0)+0,7
  4946  0BCE  03E5               	decf	(??__doprnt+0)+0+1,f
  4947  0BCF  0864               	movf	0+(??__doprnt+0)+0,w
  4948  0BD0  1683               	bsf	status, 5	;RP0=1, select bank1
  4949  0BD1  1303               	bcf	status, 6	;RP1=0, select bank1
  4950  0BD2  02AF               	subwf	(__doprnt@prec)^080h,f
  4951  0BD3  1283               	bcf	status, 5	;RP0=0, select bank0
  4952  0BD4  1303               	bcf	status, 6	;RP1=0, select bank0
  4953  0BD5  0865               	movf	1+(??__doprnt+0)+0,w
  4954  0BD6  1683               	bsf	status, 5	;RP0=1, select bank1
  4955  0BD7  1303               	bcf	status, 6	;RP1=0, select bank1
  4956  0BD8  1C03               	skipc
  4957  0BD9  03B0               	decf	(__doprnt@prec+1)^080h,f
  4958  0BDA  02B0               	subwf	(__doprnt@prec+1)^080h,f
  4959                           	line	1216
  4960  0BDB  0834               	movf	(__doprnt@c)^080h,w
  4961  0BDC  1D03               	skipz
  4962  0BDD  2BDF               	goto	u5150
  4963  0BDE  2C17               	goto	l10296
  4964  0BDF                     u5150:
  4965                           	line	1218
  4966                           	
  4967  0BDF                     l10288:	
  4968  0BDF  0835               	movf	(__doprnt@pb)^080h,w
  4969  0BE0  3E01               	addlw	01h
  4970  0BE1  0084               	movwf	fsr0
  4971  0BE2  1383               	bcf	status, 7	;select IRP bank0
  4972  0BE3  0880               	movf	indf
  4973  0BE4  1903               	skipnz
  4974  0BE5  2BE7               	goto	u5161
  4975  0BE6  2BE8               	goto	u5160
  4976  0BE7                     u5161:
  4977  0BE7  2BFA               	goto	l10292
  4978  0BE8                     u5160:
  4979                           	
  4980  0BE8                     l10290:	
  4981  0BE8  302E               	movlw	(02Eh)
  4982  0BE9  1283               	bcf	status, 5	;RP0=0, select bank0
  4983  0BEA  1303               	bcf	status, 6	;RP1=0, select bank0
  4984  0BEB  00E4               	movwf	(??__doprnt+0)+0
  4985  0BEC  0864               	movf	(??__doprnt+0)+0,w
  4986  0BED  00AA               	movwf	(?_putch)
  4987  0BEE  1683               	bsf	status, 5	;RP0=1, select bank1
  4988  0BEF  1303               	bcf	status, 6	;RP1=0, select bank1
  4989  0BF0  0835               	movf	(__doprnt@pb)^080h,w
  4990  0BF1  3E01               	addlw	01h
  4991  0BF2  0084               	movwf	fsr0
  4992  0BF3  0800               	movf	indf,w
  4993  0BF4  120A  118A  2700   	fcall	fptable
              120A  158A         
  4994  0BF9  2C17               	goto	l10296
  4995                           	
  4996  0BFA                     l4917:	
  4997                           	
  4998  0BFA                     l10292:	
  4999  0BFA  302E               	movlw	(02Eh)
  5000  0BFB  1283               	bcf	status, 5	;RP0=0, select bank0
  5001  0BFC  1303               	bcf	status, 6	;RP1=0, select bank0
  5002  0BFD  00E4               	movwf	(??__doprnt+0)+0
  5003  0BFE  1683               	bsf	status, 5	;RP0=1, select bank1
  5004  0BFF  1303               	bcf	status, 6	;RP1=0, select bank1
  5005  0C00  0835               	movf	(__doprnt@pb)^080h,w
  5006  0C01  0084               	movwf	fsr0
  5007  0C02  1383               	bcf	status, 7	;select IRP bank0
  5008  0C03  0800               	movf	indf,w
  5009  0C04  0084               	movwf	fsr0
  5010  0C05  1283               	bcf	status, 5	;RP0=0, select bank0
  5011  0C06  1303               	bcf	status, 6	;RP1=0, select bank0
  5012  0C07  0864               	movf	(??__doprnt+0)+0,w
  5013  0C08  1783               	bsf	status, 7	;select IRP bank2
  5014  0C09  0080               	movwf	indf
  5015                           	
  5016  0C0A                     l10294:	
  5017  0C0A  3001               	movlw	(01h)
  5018  0C0B  00E4               	movwf	(??__doprnt+0)+0
  5019  0C0C  1683               	bsf	status, 5	;RP0=1, select bank1
  5020  0C0D  1303               	bcf	status, 6	;RP1=0, select bank1
  5021  0C0E  0835               	movf	(__doprnt@pb)^080h,w
  5022  0C0F  0084               	movwf	fsr0
  5023  0C10  1283               	bcf	status, 5	;RP0=0, select bank0
  5024  0C11  1303               	bcf	status, 6	;RP1=0, select bank0
  5025  0C12  0864               	movf	(??__doprnt+0)+0,w
  5026  0C13  1383               	bcf	status, 7	;select IRP bank0
  5027  0C14  0780               	addwf	indf,f
  5028  0C15  2C17               	goto	l10296
  5029                           	
  5030  0C16                     l4918:	
  5031  0C16  2C17               	goto	l10296
  5032                           	
  5033  0C17                     l4916:	
  5034                           	line	1224
  5035                           	
  5036  0C17                     l10296:	
  5037  0C17  1683               	bsf	status, 5	;RP0=1, select bank1
  5038  0C18  1303               	bcf	status, 6	;RP1=0, select bank1
  5039  0C19  0834               	movf	(__doprnt@c)^080h,w
  5040  0C1A  120A  118A  2441   	fcall	_scale
              120A  158A         
  5041  0C1F  1283               	bcf	status, 5	;RP0=0, select bank0
  5042  0C20  1303               	bcf	status, 6	;RP1=0, select bank0
  5043  0C21  0845               	movf	(0+(?_scale)),w
  5044  0C22  00B8               	movwf	0+(?___ftmul)+03h
  5045  0C23  0846               	movf	(1+(?_scale)),w
  5046  0C24  00B9               	movwf	1+(?___ftmul)+03h
  5047  0C25  0847               	movf	(2+(?_scale)),w
  5048  0C26  00BA               	movwf	2+(?___ftmul)+03h
  5049  0C27  1683               	bsf	status, 5	;RP0=1, select bank1
  5050  0C28  1303               	bcf	status, 6	;RP1=0, select bank1
  5051  0C29  0831               	movf	(__doprnt@fval)^080h,w
  5052  0C2A  1283               	bcf	status, 5	;RP0=0, select bank0
  5053  0C2B  1303               	bcf	status, 6	;RP1=0, select bank0
  5054  0C2C  00B5               	movwf	(?___ftmul)
  5055  0C2D  1683               	bsf	status, 5	;RP0=1, select bank1
  5056  0C2E  1303               	bcf	status, 6	;RP1=0, select bank1
  5057  0C2F  0832               	movf	(__doprnt@fval+1)^080h,w
  5058  0C30  1283               	bcf	status, 5	;RP0=0, select bank0
  5059  0C31  1303               	bcf	status, 6	;RP1=0, select bank0
  5060  0C32  00B6               	movwf	(?___ftmul+1)
  5061  0C33  1683               	bsf	status, 5	;RP0=1, select bank1
  5062  0C34  1303               	bcf	status, 6	;RP1=0, select bank1
  5063  0C35  0833               	movf	(__doprnt@fval+2)^080h,w
  5064  0C36  1283               	bcf	status, 5	;RP0=0, select bank0
  5065  0C37  1303               	bcf	status, 6	;RP1=0, select bank0
  5066  0C38  00B7               	movwf	(?___ftmul+2)
  5067  0C39  120A  118A  2709   	fcall	___ftmul
              120A  158A         
  5068  0C3E  1283               	bcf	status, 5	;RP0=0, select bank0
  5069  0C3F  1303               	bcf	status, 6	;RP1=0, select bank0
  5070  0C40  0835               	movf	(0+(?___ftmul)),w
  5071  0C41  00A7               	movwf	(?___fttol)
  5072  0C42  0836               	movf	(1+(?___ftmul)),w
  5073  0C43  00A8               	movwf	(?___fttol+1)
  5074  0C44  0837               	movf	(2+(?___ftmul)),w
  5075  0C45  00A9               	movwf	(?___fttol+2)
  5076  0C46  160A  118A  2101   	fcall	___fttol
              120A  158A         
  5077  0C4B  1283               	bcf	status, 5	;RP0=0, select bank0
  5078  0C4C  1303               	bcf	status, 6	;RP1=0, select bank0
  5079  0C4D  082A               	movf	(3+(?___fttol)),w
  5080  0C4E  1683               	bsf	status, 5	;RP0=1, select bank1
  5081  0C4F  1303               	bcf	status, 6	;RP1=0, select bank1
  5082  0C50  00AE               	movwf	(__doprnt@_val+3)^080h
  5083  0C51  1283               	bcf	status, 5	;RP0=0, select bank0
  5084  0C52  1303               	bcf	status, 6	;RP1=0, select bank0
  5085  0C53  0829               	movf	(2+(?___fttol)),w
  5086  0C54  1683               	bsf	status, 5	;RP0=1, select bank1
  5087  0C55  1303               	bcf	status, 6	;RP1=0, select bank1
  5088  0C56  00AD               	movwf	(__doprnt@_val+2)^080h
  5089  0C57  1283               	bcf	status, 5	;RP0=0, select bank0
  5090  0C58  1303               	bcf	status, 6	;RP1=0, select bank0
  5091  0C59  0828               	movf	(1+(?___fttol)),w
  5092  0C5A  1683               	bsf	status, 5	;RP0=1, select bank1
  5093  0C5B  1303               	bcf	status, 6	;RP1=0, select bank1
  5094  0C5C  00AC               	movwf	(__doprnt@_val+1)^080h
  5095  0C5D  1283               	bcf	status, 5	;RP0=0, select bank0
  5096  0C5E  1303               	bcf	status, 6	;RP1=0, select bank0
  5097  0C5F  0827               	movf	(0+(?___fttol)),w
  5098  0C60  1683               	bsf	status, 5	;RP0=1, select bank1
  5099  0C61  1303               	bcf	status, 6	;RP1=0, select bank1
  5100  0C62  00AB               	movwf	(__doprnt@_val)^080h
  5101                           
  5102                           	line	1225
  5103  0C63  2D9C               	goto	l10308
  5104                           	
  5105  0C64                     l4920:	
  5106                           	line	1226
  5107                           	
  5108  0C64                     l10298:	
  5109  0C64  0835               	movf	(__doprnt@pb)^080h,w
  5110  0C65  3E01               	addlw	01h
  5111  0C66  0084               	movwf	fsr0
  5112  0C67  1383               	bcf	status, 7	;select IRP bank0
  5113  0C68  0880               	movf	indf
  5114  0C69  1903               	skipnz
  5115  0C6A  2C6C               	goto	u5171
  5116  0C6B  2C6D               	goto	u5170
  5117  0C6C                     u5171:
  5118  0C6C  2CD1               	goto	l10302
  5119  0C6D                     u5170:
  5120                           	
  5121  0C6D                     l10300:	
  5122  0C6D  3000               	movlw	0
  5123  0C6E  1283               	bcf	status, 5	;RP0=0, select bank0
  5124  0C6F  1303               	bcf	status, 6	;RP1=0, select bank0
  5125  0C70  00A3               	movwf	(?___llmod+3)
  5126  0C71  3000               	movlw	0
  5127  0C72  00A2               	movwf	(?___llmod+2)
  5128  0C73  3000               	movlw	0
  5129  0C74  00A1               	movwf	(?___llmod+1)
  5130  0C75  300A               	movlw	0Ah
  5131  0C76  00A0               	movwf	(?___llmod)
  5132                           
  5133  0C77  1683               	bsf	status, 5	;RP0=1, select bank1
  5134  0C78  1303               	bcf	status, 6	;RP1=0, select bank1
  5135  0C79  0834               	movf	(__doprnt@c)^080h,w
  5136  0C7A  1283               	bcf	status, 5	;RP0=0, select bank0
  5137  0C7B  1303               	bcf	status, 6	;RP1=0, select bank0
  5138  0C7C  00E4               	movwf	(??__doprnt+0)+0
  5139  0C7D  3001               	movlw	(02h)-1
  5140  0C7E                     u5185:
  5141  0C7E  1003               	clrc
  5142  0C7F  0DE4               	rlf	(??__doprnt+0)+0,f
  5143  0C80  3EFF               	addlw	-1
  5144  0C81  1D03               	skipz
  5145  0C82  2C7E               	goto	u5185
  5146  0C83  1003               	clrc
  5147  0C84  0D64               	rlf	(??__doprnt+0)+0,w
  5148  0C85  3E01               	addlw	low((_dpowers-__stringbase))
  5149  0C86  0084               	movwf	fsr0
  5150  0C87  160A  118A  200A   	fcall	stringdir
              120A  158A         
  5151  0C8C  00F0               	movwf	(?___lldiv)
  5152  0C8D  160A  118A  200A   	fcall	stringdir
              120A  158A         
  5153  0C92  00F1               	movwf	(?___lldiv+1)
  5154  0C93  160A  118A  200A   	fcall	stringdir
              120A  158A         
  5155  0C98  00F2               	movwf	(?___lldiv+2)
  5156  0C99  160A  118A  200A   	fcall	stringdir
              120A  158A         
  5157  0C9E  00F3               	movwf	(?___lldiv+3)
  5158  0C9F  1683               	bsf	status, 5	;RP0=1, select bank1
  5159  0CA0  1303               	bcf	status, 6	;RP1=0, select bank1
  5160  0CA1  082E               	movf	(__doprnt@_val+3)^080h,w
  5161  0CA2  00F7               	movwf	3+(?___lldiv)+04h
  5162  0CA3  082D               	movf	(__doprnt@_val+2)^080h,w
  5163  0CA4  00F6               	movwf	2+(?___lldiv)+04h
  5164  0CA5  082C               	movf	(__doprnt@_val+1)^080h,w
  5165  0CA6  00F5               	movwf	1+(?___lldiv)+04h
  5166  0CA7  082B               	movf	(__doprnt@_val)^080h,w
  5167  0CA8  00F4               	movwf	0+(?___lldiv)+04h
  5168                           
  5169  0CA9  160A  158A  26A1   	fcall	___lldiv
              120A  158A         
  5170  0CAE  0873               	movf	(3+(?___lldiv)),w
  5171  0CAF  1283               	bcf	status, 5	;RP0=0, select bank0
  5172  0CB0  1303               	bcf	status, 6	;RP1=0, select bank0
  5173  0CB1  00A7               	movwf	3+(?___llmod)+04h
  5174  0CB2  0872               	movf	(2+(?___lldiv)),w
  5175  0CB3  00A6               	movwf	2+(?___llmod)+04h
  5176  0CB4  0871               	movf	(1+(?___lldiv)),w
  5177  0CB5  00A5               	movwf	1+(?___llmod)+04h
  5178  0CB6  0870               	movf	(0+(?___lldiv)),w
  5179  0CB7  00A4               	movwf	0+(?___llmod)+04h
  5180                           
  5181  0CB8  160A  158A  2511   	fcall	___llmod
              120A  158A         
  5182  0CBD  1283               	bcf	status, 5	;RP0=0, select bank0
  5183  0CBE  1303               	bcf	status, 6	;RP1=0, select bank0
  5184  0CBF  0820               	movf	0+(((0+(?___llmod)))),w
  5185  0CC0  3E30               	addlw	030h
  5186  0CC1  00E5               	movwf	(??__doprnt+1)+0
  5187  0CC2  0865               	movf	(??__doprnt+1)+0,w
  5188  0CC3  00AA               	movwf	(?_putch)
  5189  0CC4  1683               	bsf	status, 5	;RP0=1, select bank1
  5190  0CC5  1303               	bcf	status, 6	;RP1=0, select bank1
  5191  0CC6  0835               	movf	(__doprnt@pb)^080h,w
  5192  0CC7  3E01               	addlw	01h
  5193  0CC8  0084               	movwf	fsr0
  5194  0CC9  1383               	bcf	status, 7	;select IRP bank0
  5195  0CCA  0800               	movf	indf,w
  5196  0CCB  120A  118A  2700   	fcall	fptable
              120A  158A         
  5197  0CD0  2D3E               	goto	l10306
  5198                           	
  5199  0CD1                     l4921:	
  5200                           	
  5201  0CD1                     l10302:	
  5202  0CD1  3000               	movlw	0
  5203  0CD2  1283               	bcf	status, 5	;RP0=0, select bank0
  5204  0CD3  1303               	bcf	status, 6	;RP1=0, select bank0
  5205  0CD4  00A3               	movwf	(?___llmod+3)
  5206  0CD5  3000               	movlw	0
  5207  0CD6  00A2               	movwf	(?___llmod+2)
  5208  0CD7  3000               	movlw	0
  5209  0CD8  00A1               	movwf	(?___llmod+1)
  5210  0CD9  300A               	movlw	0Ah
  5211  0CDA  00A0               	movwf	(?___llmod)
  5212                           
  5213  0CDB  1683               	bsf	status, 5	;RP0=1, select bank1
  5214  0CDC  1303               	bcf	status, 6	;RP1=0, select bank1
  5215  0CDD  0834               	movf	(__doprnt@c)^080h,w
  5216  0CDE  1283               	bcf	status, 5	;RP0=0, select bank0
  5217  0CDF  1303               	bcf	status, 6	;RP1=0, select bank0
  5218  0CE0  00E4               	movwf	(??__doprnt+0)+0
  5219  0CE1  3001               	movlw	(02h)-1
  5220  0CE2                     u5195:
  5221  0CE2  1003               	clrc
  5222  0CE3  0DE4               	rlf	(??__doprnt+0)+0,f
  5223  0CE4  3EFF               	addlw	-1
  5224  0CE5  1D03               	skipz
  5225  0CE6  2CE2               	goto	u5195
  5226  0CE7  1003               	clrc
  5227  0CE8  0D64               	rlf	(??__doprnt+0)+0,w
  5228  0CE9  3E01               	addlw	low((_dpowers-__stringbase))
  5229  0CEA  0084               	movwf	fsr0
  5230  0CEB  160A  118A  200A   	fcall	stringdir
              120A  158A         
  5231  0CF0  00F0               	movwf	(?___lldiv)
  5232  0CF1  160A  118A  200A   	fcall	stringdir
              120A  158A         
  5233  0CF6  00F1               	movwf	(?___lldiv+1)
  5234  0CF7  160A  118A  200A   	fcall	stringdir
              120A  158A         
  5235  0CFC  00F2               	movwf	(?___lldiv+2)
  5236  0CFD  160A  118A  200A   	fcall	stringdir
              120A  158A         
  5237  0D02  00F3               	movwf	(?___lldiv+3)
  5238  0D03  1683               	bsf	status, 5	;RP0=1, select bank1
  5239  0D04  1303               	bcf	status, 6	;RP1=0, select bank1
  5240  0D05  082E               	movf	(__doprnt@_val+3)^080h,w
  5241  0D06  00F7               	movwf	3+(?___lldiv)+04h
  5242  0D07  082D               	movf	(__doprnt@_val+2)^080h,w
  5243  0D08  00F6               	movwf	2+(?___lldiv)+04h
  5244  0D09  082C               	movf	(__doprnt@_val+1)^080h,w
  5245  0D0A  00F5               	movwf	1+(?___lldiv)+04h
  5246  0D0B  082B               	movf	(__doprnt@_val)^080h,w
  5247  0D0C  00F4               	movwf	0+(?___lldiv)+04h
  5248                           
  5249  0D0D  160A  158A  26A1   	fcall	___lldiv
              120A  158A         
  5250  0D12  0873               	movf	(3+(?___lldiv)),w
  5251  0D13  1283               	bcf	status, 5	;RP0=0, select bank0
  5252  0D14  1303               	bcf	status, 6	;RP1=0, select bank0
  5253  0D15  00A7               	movwf	3+(?___llmod)+04h
  5254  0D16  0872               	movf	(2+(?___lldiv)),w
  5255  0D17  00A6               	movwf	2+(?___llmod)+04h
  5256  0D18  0871               	movf	(1+(?___lldiv)),w
  5257  0D19  00A5               	movwf	1+(?___llmod)+04h
  5258  0D1A  0870               	movf	(0+(?___lldiv)),w
  5259  0D1B  00A4               	movwf	0+(?___llmod)+04h
  5260                           
  5261  0D1C  160A  158A  2511   	fcall	___llmod
              120A  158A         
  5262  0D21  1283               	bcf	status, 5	;RP0=0, select bank0
  5263  0D22  1303               	bcf	status, 6	;RP1=0, select bank0
  5264  0D23  0820               	movf	0+(((0+(?___llmod)))),w
  5265  0D24  3E30               	addlw	030h
  5266  0D25  00E5               	movwf	(??__doprnt+1)+0
  5267  0D26  1683               	bsf	status, 5	;RP0=1, select bank1
  5268  0D27  1303               	bcf	status, 6	;RP1=0, select bank1
  5269  0D28  0835               	movf	(__doprnt@pb)^080h,w
  5270  0D29  0084               	movwf	fsr0
  5271  0D2A  1383               	bcf	status, 7	;select IRP bank0
  5272  0D2B  0800               	movf	indf,w
  5273  0D2C  0084               	movwf	fsr0
  5274  0D2D  1283               	bcf	status, 5	;RP0=0, select bank0
  5275  0D2E  1303               	bcf	status, 6	;RP1=0, select bank0
  5276  0D2F  0865               	movf	(??__doprnt+1)+0,w
  5277  0D30  1783               	bsf	status, 7	;select IRP bank2
  5278  0D31  0080               	movwf	indf
  5279                           	
  5280  0D32                     l10304:	
  5281  0D32  3001               	movlw	(01h)
  5282  0D33  00E4               	movwf	(??__doprnt+0)+0
  5283  0D34  1683               	bsf	status, 5	;RP0=1, select bank1
  5284  0D35  1303               	bcf	status, 6	;RP1=0, select bank1
  5285  0D36  0835               	movf	(__doprnt@pb)^080h,w
  5286  0D37  0084               	movwf	fsr0
  5287  0D38  1283               	bcf	status, 5	;RP0=0, select bank0
  5288  0D39  1303               	bcf	status, 6	;RP1=0, select bank0
  5289  0D3A  0864               	movf	(??__doprnt+0)+0,w
  5290  0D3B  1383               	bcf	status, 7	;select IRP bank0
  5291  0D3C  0780               	addwf	indf,f
  5292  0D3D  2D3E               	goto	l10306
  5293                           	
  5294  0D3E                     l4922:	
  5295                           	line	1227
  5296                           	
  5297  0D3E                     l10306:	
  5298  0D3E  1683               	bsf	status, 5	;RP0=1, select bank1
  5299  0D3F  1303               	bcf	status, 6	;RP1=0, select bank1
  5300  0D40  0834               	movf	(__doprnt@c)^080h,w
  5301  0D41  1283               	bcf	status, 5	;RP0=0, select bank0
  5302  0D42  1303               	bcf	status, 6	;RP1=0, select bank0
  5303  0D43  00E4               	movwf	(??__doprnt+0)+0
  5304  0D44  3001               	movlw	(02h)-1
  5305  0D45                     u5205:
  5306  0D45  1003               	clrc
  5307  0D46  0DE4               	rlf	(??__doprnt+0)+0,f
  5308  0D47  3EFF               	addlw	-1
  5309  0D48  1D03               	skipz
  5310  0D49  2D45               	goto	u5205
  5311  0D4A  1003               	clrc
  5312  0D4B  0D64               	rlf	(??__doprnt+0)+0,w
  5313  0D4C  3E01               	addlw	low((_dpowers-__stringbase))
  5314  0D4D  0084               	movwf	fsr0
  5315  0D4E  160A  118A  200A   	fcall	stringdir
              120A  158A         
  5316  0D53  00A0               	movwf	(?___llmod)
  5317  0D54  160A  118A  200A   	fcall	stringdir
              120A  158A         
  5318  0D59  00A1               	movwf	(?___llmod+1)
  5319  0D5A  160A  118A  200A   	fcall	stringdir
              120A  158A         
  5320  0D5F  00A2               	movwf	(?___llmod+2)
  5321  0D60  160A  118A  200A   	fcall	stringdir
              120A  158A         
  5322  0D65  00A3               	movwf	(?___llmod+3)
  5323  0D66  1683               	bsf	status, 5	;RP0=1, select bank1
  5324  0D67  1303               	bcf	status, 6	;RP1=0, select bank1
  5325  0D68  082E               	movf	(__doprnt@_val+3)^080h,w
  5326  0D69  1283               	bcf	status, 5	;RP0=0, select bank0
  5327  0D6A  1303               	bcf	status, 6	;RP1=0, select bank0
  5328  0D6B  00A7               	movwf	3+(?___llmod)+04h
  5329  0D6C  1683               	bsf	status, 5	;RP0=1, select bank1
  5330  0D6D  1303               	bcf	status, 6	;RP1=0, select bank1
  5331  0D6E  082D               	movf	(__doprnt@_val+2)^080h,w
  5332  0D6F  1283               	bcf	status, 5	;RP0=0, select bank0
  5333  0D70  1303               	bcf	status, 6	;RP1=0, select bank0
  5334  0D71  00A6               	movwf	2+(?___llmod)+04h
  5335  0D72  1683               	bsf	status, 5	;RP0=1, select bank1
  5336  0D73  1303               	bcf	status, 6	;RP1=0, select bank1
  5337  0D74  082C               	movf	(__doprnt@_val+1)^080h,w
  5338  0D75  1283               	bcf	status, 5	;RP0=0, select bank0
  5339  0D76  1303               	bcf	status, 6	;RP1=0, select bank0
  5340  0D77  00A5               	movwf	1+(?___llmod)+04h
  5341  0D78  1683               	bsf	status, 5	;RP0=1, select bank1
  5342  0D79  1303               	bcf	status, 6	;RP1=0, select bank1
  5343  0D7A  082B               	movf	(__doprnt@_val)^080h,w
  5344  0D7B  1283               	bcf	status, 5	;RP0=0, select bank0
  5345  0D7C  1303               	bcf	status, 6	;RP1=0, select bank0
  5346  0D7D  00A4               	movwf	0+(?___llmod)+04h
  5347                           
  5348  0D7E  160A  158A  2511   	fcall	___llmod
              120A  158A         
  5349  0D83  1283               	bcf	status, 5	;RP0=0, select bank0
  5350  0D84  1303               	bcf	status, 6	;RP1=0, select bank0
  5351  0D85  0823               	movf	(3+(?___llmod)),w
  5352  0D86  1683               	bsf	status, 5	;RP0=1, select bank1
  5353  0D87  1303               	bcf	status, 6	;RP1=0, select bank1
  5354  0D88  00AE               	movwf	(__doprnt@_val+3)^080h
  5355  0D89  1283               	bcf	status, 5	;RP0=0, select bank0
  5356  0D8A  1303               	bcf	status, 6	;RP1=0, select bank0
  5357  0D8B  0822               	movf	(2+(?___llmod)),w
  5358  0D8C  1683               	bsf	status, 5	;RP0=1, select bank1
  5359  0D8D  1303               	bcf	status, 6	;RP1=0, select bank1
  5360  0D8E  00AD               	movwf	(__doprnt@_val+2)^080h
  5361  0D8F  1283               	bcf	status, 5	;RP0=0, select bank0
  5362  0D90  1303               	bcf	status, 6	;RP1=0, select bank0
  5363  0D91  0821               	movf	(1+(?___llmod)),w
  5364  0D92  1683               	bsf	status, 5	;RP0=1, select bank1
  5365  0D93  1303               	bcf	status, 6	;RP1=0, select bank1
  5366  0D94  00AC               	movwf	(__doprnt@_val+1)^080h
  5367  0D95  1283               	bcf	status, 5	;RP0=0, select bank0
  5368  0D96  1303               	bcf	status, 6	;RP1=0, select bank0
  5369  0D97  0820               	movf	(0+(?___llmod)),w
  5370  0D98  1683               	bsf	status, 5	;RP0=1, select bank1
  5371  0D99  1303               	bcf	status, 6	;RP1=0, select bank1
  5372  0D9A  00AB               	movwf	(__doprnt@_val)^080h
  5373                           
  5374  0D9B  2D9C               	goto	l10308
  5375                           	line	1228
  5376                           	
  5377  0D9C                     l4919:	
  5378                           	line	1225
  5379                           	
  5380  0D9C                     l10308:	
  5381  0D9C  30FF               	movlw	(-1)
  5382  0D9D  1283               	bcf	status, 5	;RP0=0, select bank0
  5383  0D9E  1303               	bcf	status, 6	;RP1=0, select bank0
  5384  0D9F  00E4               	movwf	(??__doprnt+0)+0
  5385  0DA0  0864               	movf	(??__doprnt+0)+0,w
  5386  0DA1  1683               	bsf	status, 5	;RP0=1, select bank1
  5387  0DA2  1303               	bcf	status, 6	;RP1=0, select bank1
  5388  0DA3  07B4               	addwf	(__doprnt@c)^080h,f
  5389  0DA4  0834               	movf	((__doprnt@c)^080h),w
  5390  0DA5  3AFF               	xorlw	-1
  5391  0DA6  1D03               	skipz
  5392  0DA7  2DA9               	goto	u5211
  5393  0DA8  2DAA               	goto	u5210
  5394  0DA9                     u5211:
  5395  0DA9  2C64               	goto	l10298
  5396  0DAA                     u5210:
  5397  0DAA  2DEC               	goto	l10320
  5398                           	
  5399  0DAB                     l4923:	
  5400                           	line	1230
  5401  0DAB  2DEC               	goto	l10320
  5402                           	
  5403  0DAC                     l4925:	
  5404                           	line	1231
  5405                           	
  5406  0DAC                     l10310:	
  5407  0DAC  0835               	movf	(__doprnt@pb)^080h,w
  5408  0DAD  3E01               	addlw	01h
  5409  0DAE  0084               	movwf	fsr0
  5410  0DAF  1383               	bcf	status, 7	;select IRP bank0
  5411  0DB0  0880               	movf	indf
  5412  0DB1  1903               	skipnz
  5413  0DB2  2DB4               	goto	u5221
  5414  0DB3  2DB5               	goto	u5220
  5415  0DB4                     u5221:
  5416  0DB4  2DC7               	goto	l10314
  5417  0DB5                     u5220:
  5418                           	
  5419  0DB5                     l10312:	
  5420  0DB5  3030               	movlw	(030h)
  5421  0DB6  1283               	bcf	status, 5	;RP0=0, select bank0
  5422  0DB7  1303               	bcf	status, 6	;RP1=0, select bank0
  5423  0DB8  00E4               	movwf	(??__doprnt+0)+0
  5424  0DB9  0864               	movf	(??__doprnt+0)+0,w
  5425  0DBA  00AA               	movwf	(?_putch)
  5426  0DBB  1683               	bsf	status, 5	;RP0=1, select bank1
  5427  0DBC  1303               	bcf	status, 6	;RP1=0, select bank1
  5428  0DBD  0835               	movf	(__doprnt@pb)^080h,w
  5429  0DBE  3E01               	addlw	01h
  5430  0DBF  0084               	movwf	fsr0
  5431  0DC0  0800               	movf	indf,w
  5432  0DC1  120A  118A  2700   	fcall	fptable
              120A  158A         
  5433  0DC6  2DE3               	goto	l10318
  5434                           	
  5435  0DC7                     l4926:	
  5436                           	
  5437  0DC7                     l10314:	
  5438  0DC7  3030               	movlw	(030h)
  5439  0DC8  1283               	bcf	status, 5	;RP0=0, select bank0
  5440  0DC9  1303               	bcf	status, 6	;RP1=0, select bank0
  5441  0DCA  00E4               	movwf	(??__doprnt+0)+0
  5442  0DCB  1683               	bsf	status, 5	;RP0=1, select bank1
  5443  0DCC  1303               	bcf	status, 6	;RP1=0, select bank1
  5444  0DCD  0835               	movf	(__doprnt@pb)^080h,w
  5445  0DCE  0084               	movwf	fsr0
  5446  0DCF  1383               	bcf	status, 7	;select IRP bank0
  5447  0DD0  0800               	movf	indf,w
  5448  0DD1  0084               	movwf	fsr0
  5449  0DD2  1283               	bcf	status, 5	;RP0=0, select bank0
  5450  0DD3  1303               	bcf	status, 6	;RP1=0, select bank0
  5451  0DD4  0864               	movf	(??__doprnt+0)+0,w
  5452  0DD5  1783               	bsf	status, 7	;select IRP bank2
  5453  0DD6  0080               	movwf	indf
  5454                           	
  5455  0DD7                     l10316:	
  5456  0DD7  3001               	movlw	(01h)
  5457  0DD8  00E4               	movwf	(??__doprnt+0)+0
  5458  0DD9  1683               	bsf	status, 5	;RP0=1, select bank1
  5459  0DDA  1303               	bcf	status, 6	;RP1=0, select bank1
  5460  0DDB  0835               	movf	(__doprnt@pb)^080h,w
  5461  0DDC  0084               	movwf	fsr0
  5462  0DDD  1283               	bcf	status, 5	;RP0=0, select bank0
  5463  0DDE  1303               	bcf	status, 6	;RP1=0, select bank0
  5464  0DDF  0864               	movf	(??__doprnt+0)+0,w
  5465  0DE0  1383               	bcf	status, 7	;select IRP bank0
  5466  0DE1  0780               	addwf	indf,f
  5467  0DE2  2DE3               	goto	l10318
  5468                           	
  5469  0DE3                     l4927:	
  5470                           	line	1232
  5471                           	
  5472  0DE3                     l10318:	
  5473  0DE3  30FF               	movlw	low(-1)
  5474  0DE4  1683               	bsf	status, 5	;RP0=1, select bank1
  5475  0DE5  1303               	bcf	status, 6	;RP1=0, select bank1
  5476  0DE6  07AF               	addwf	(__doprnt@prec)^080h,f
  5477  0DE7  1803               	skipnc
  5478  0DE8  0AB0               	incf	(__doprnt@prec+1)^080h,f
  5479  0DE9  30FF               	movlw	high(-1)
  5480  0DEA  07B0               	addwf	(__doprnt@prec+1)^080h,f
  5481  0DEB  2DEC               	goto	l10320
  5482                           	line	1233
  5483                           	
  5484  0DEC                     l4924:	
  5485                           	line	1230
  5486                           	
  5487  0DEC                     l10320:	
  5488  0DEC  0830               	movf	((__doprnt@prec+1)^080h),w
  5489  0DED  042F               	iorwf	((__doprnt@prec)^080h),w
  5490  0DEE  1D03               	skipz
  5491  0DEF  2DF1               	goto	u5231
  5492  0DF0  2DF2               	goto	u5230
  5493  0DF1                     u5231:
  5494  0DF1  2DAC               	goto	l10310
  5495  0DF2                     u5230:
  5496  0DF2  2FE0               	goto	l10380
  5497                           	
  5498  0DF3                     l4928:	
  5499                           	line	1240
  5500  0DF3  2FE0               	goto	l10380
  5501                           	line	1241
  5502                           	
  5503  0DF4                     l4879:	
  5504                           	line	1254
  5505                           	
  5506  0DF4                     l10322:	
  5507  0DF4  1283               	bcf	status, 5	;RP0=0, select bank0
  5508  0DF5  0863               	movf	(__doprnt@ap),w
  5509  0DF6  0084               	movwf	fsr0
  5510  0DF7  1383               	bcf	status, 7	;select IRP bank0
  5511  0DF8  0800               	movf	indf,w
  5512  0DF9  00E4               	movwf	((??__doprnt+0)+0)
  5513  0DFA  3002               	movlw	02h
  5514  0DFB  0780               	addwf	indf,f
  5515  0DFC  0864               	movf	((??__doprnt+0)+0),w
  5516  0DFD  0084               	movwf	fsr0
  5517  0DFE  0800               	movf	indf,w
  5518  0DFF  00E5               	movwf	(??__doprnt+1)+0+0
  5519  0E00  0A84               	incf	fsr0,f
  5520  0E01  0800               	movf	indf,w
  5521  0E02  00E6               	movwf	(??__doprnt+1)+0+1
  5522  0E03  0865               	movf	0+(??__doprnt+1)+0,w
  5523  0E04  1683               	bsf	status, 5	;RP0=1, select bank1
  5524  0E05  1303               	bcf	status, 6	;RP1=0, select bank1
  5525  0E06  00AB               	movwf	(__doprnt@_val)^080h
  5526  0E07  1283               	bcf	status, 5	;RP0=0, select bank0
  5527  0E08  1303               	bcf	status, 6	;RP1=0, select bank0
  5528  0E09  0866               	movf	1+(??__doprnt+1)+0,w
  5529  0E0A  1683               	bsf	status, 5	;RP0=1, select bank1
  5530  0E0B  1303               	bcf	status, 6	;RP1=0, select bank1
  5531  0E0C  00AC               	movwf	(__doprnt@_val+1)^080h
  5532  0E0D  3000               	movlw	0
  5533  0E0E  1BAC               	btfsc	(__doprnt@_val+1)^080h,7
  5534  0E0F  30FF               	movlw	255
  5535  0E10  00AD               	movwf	(__doprnt@_val+2)^080h
  5536  0E11  00AE               	movwf	(__doprnt@_val+3)^080h
  5537                           	line	1256
  5538                           	
  5539  0E12                     l10324:	
  5540  0E12  1FAE               	btfss	(__doprnt@_val+3)^080h,7
  5541  0E13  2E15               	goto	u5241
  5542  0E14  2E16               	goto	u5240
  5543  0E15                     u5241:
  5544  0E15  2E26               	goto	l10330
  5545  0E16                     u5240:
  5546                           	line	1257
  5547                           	
  5548  0E16                     l10326:	
  5549  0E16  3003               	movlw	low(03h)
  5550  0E17  04A4               	iorwf	(__doprnt@flag)^080h,f
  5551  0E18  3000               	movlw	high(03h)
  5552  0E19  04A5               	iorwf	(__doprnt@flag+1)^080h,f
  5553                           	line	1258
  5554                           	
  5555  0E1A                     l10328:	
  5556  0E1A  09AB               	comf	(__doprnt@_val)^080h,f
  5557  0E1B  09AC               	comf	(__doprnt@_val+1)^080h,f
  5558  0E1C  09AD               	comf	(__doprnt@_val+2)^080h,f
  5559  0E1D  09AE               	comf	(__doprnt@_val+3)^080h,f
  5560  0E1E  0AAB               	incf	(__doprnt@_val)^080h,f
  5561  0E1F  1903               	skipnz
  5562  0E20  0AAC               	incf	(__doprnt@_val+1)^080h,f
  5563  0E21  1903               	skipnz
  5564  0E22  0AAD               	incf	(__doprnt@_val+2)^080h,f
  5565  0E23  1903               	skipnz
  5566  0E24  0AAE               	incf	(__doprnt@_val+3)^080h,f
  5567  0E25  2E26               	goto	l10330
  5568                           	line	1259
  5569                           	
  5570  0E26                     l4929:	
  5571                           	line	1285
  5572                           	
  5573  0E26                     l10330:	
  5574  0E26  0830               	movf	((__doprnt@prec+1)^080h),w
  5575  0E27  042F               	iorwf	((__doprnt@prec)^080h),w
  5576  0E28  1D03               	skipz
  5577  0E29  2E2B               	goto	u5251
  5578  0E2A  2E2C               	goto	u5250
  5579  0E2B                     u5251:
  5580  0E2B  2E3B               	goto	l10336
  5581  0E2C                     u5250:
  5582                           	
  5583  0E2C                     l10332:	
  5584  0E2C  082E               	movf	(__doprnt@_val+3)^080h,w
  5585  0E2D  042D               	iorwf	(__doprnt@_val+2)^080h,w
  5586  0E2E  042C               	iorwf	(__doprnt@_val+1)^080h,w
  5587  0E2F  042B               	iorwf	(__doprnt@_val)^080h,w
  5588  0E30  1D03               	skipz
  5589  0E31  2E33               	goto	u5261
  5590  0E32  2E34               	goto	u5260
  5591  0E33                     u5261:
  5592  0E33  2E3B               	goto	l10336
  5593  0E34                     u5260:
  5594                           	line	1286
  5595                           	
  5596  0E34                     l10334:	
  5597  0E34  3001               	movlw	low(01h)
  5598  0E35  07AF               	addwf	(__doprnt@prec)^080h,f
  5599  0E36  1803               	skipnc
  5600  0E37  0AB0               	incf	(__doprnt@prec+1)^080h,f
  5601  0E38  3000               	movlw	high(01h)
  5602  0E39  07B0               	addwf	(__doprnt@prec+1)^080h,f
  5603  0E3A  2E3B               	goto	l10336
  5604                           	
  5605  0E3B                     l4930:	
  5606                           	line	1300
  5607                           	
  5608  0E3B                     l10336:	
  5609  0E3B  01B4               	clrf	(__doprnt@c)^080h
  5610  0E3C  1403               	bsf	status,0
  5611  0E3D  0DB4               	rlf	(__doprnt@c)^080h,f
  5612                           	
  5613  0E3E                     l10338:	
  5614  0E3E  0834               	movf	(__doprnt@c)^080h,w
  5615  0E3F  3A0A               	xorlw	0Ah
  5616  0E40  1D03               	skipz
  5617  0E41  2E43               	goto	u5271
  5618  0E42  2E44               	goto	u5270
  5619  0E43                     u5271:
  5620  0E43  2E46               	goto	l10342
  5621  0E44                     u5270:
  5622  0E44  2E9D               	goto	l10350
  5623                           	
  5624  0E45                     l10340:	
  5625  0E45  2E9D               	goto	l10350
  5626                           	line	1301
  5627                           	
  5628  0E46                     l4931:	
  5629                           	
  5630  0E46                     l10342:	
  5631  0E46  0834               	movf	(__doprnt@c)^080h,w
  5632  0E47  1283               	bcf	status, 5	;RP0=0, select bank0
  5633  0E48  1303               	bcf	status, 6	;RP1=0, select bank0
  5634  0E49  00E4               	movwf	(??__doprnt+0)+0
  5635  0E4A  3001               	movlw	(02h)-1
  5636  0E4B                     u5285:
  5637  0E4B  1003               	clrc
  5638  0E4C  0DE4               	rlf	(??__doprnt+0)+0,f
  5639  0E4D  3EFF               	addlw	-1
  5640  0E4E  1D03               	skipz
  5641  0E4F  2E4B               	goto	u5285
  5642  0E50  1003               	clrc
  5643  0E51  0D64               	rlf	(??__doprnt+0)+0,w
  5644  0E52  3E01               	addlw	low((_dpowers-__stringbase))
  5645  0E53  0084               	movwf	fsr0
  5646  0E54  160A  118A  200A   	fcall	stringdir
              120A  158A         
  5647  0E59  00E5               	movwf	((??__doprnt+1)+0)
  5648  0E5A  160A  118A  200A   	fcall	stringdir
              120A  158A         
  5649  0E5F  00E6               	movwf	((??__doprnt+1)+0+1)
  5650  0E60  160A  118A  200A   	fcall	stringdir
              120A  158A         
  5651  0E65  00E7               	movwf	((??__doprnt+1)+0+2)
  5652  0E66  160A  118A  200A   	fcall	stringdir
              120A  158A         
  5653  0E6B  00E8               	movwf	((??__doprnt+1)+0+3)
  5654  0E6C  0868               	movf	3+(??__doprnt+1)+0,w
  5655  0E6D  1683               	bsf	status, 5	;RP0=1, select bank1
  5656  0E6E  1303               	bcf	status, 6	;RP1=0, select bank1
  5657  0E6F  022E               	subwf	(__doprnt@_val+3)^080h,w
  5658  0E70  1D03               	skipz
  5659  0E71  2E88               	goto	u5295
  5660  0E72  1283               	bcf	status, 5	;RP0=0, select bank0
  5661  0E73  1303               	bcf	status, 6	;RP1=0, select bank0
  5662  0E74  0867               	movf	2+(??__doprnt+1)+0,w
  5663  0E75  1683               	bsf	status, 5	;RP0=1, select bank1
  5664  0E76  1303               	bcf	status, 6	;RP1=0, select bank1
  5665  0E77  022D               	subwf	(__doprnt@_val+2)^080h,w
  5666  0E78  1D03               	skipz
  5667  0E79  2E88               	goto	u5295
  5668  0E7A  1283               	bcf	status, 5	;RP0=0, select bank0
  5669  0E7B  1303               	bcf	status, 6	;RP1=0, select bank0
  5670  0E7C  0866               	movf	1+(??__doprnt+1)+0,w
  5671  0E7D  1683               	bsf	status, 5	;RP0=1, select bank1
  5672  0E7E  1303               	bcf	status, 6	;RP1=0, select bank1
  5673  0E7F  022C               	subwf	(__doprnt@_val+1)^080h,w
  5674  0E80  1D03               	skipz
  5675  0E81  2E88               	goto	u5295
  5676  0E82  1283               	bcf	status, 5	;RP0=0, select bank0
  5677  0E83  1303               	bcf	status, 6	;RP1=0, select bank0
  5678  0E84  0865               	movf	0+(??__doprnt+1)+0,w
  5679  0E85  1683               	bsf	status, 5	;RP0=1, select bank1
  5680  0E86  1303               	bcf	status, 6	;RP1=0, select bank1
  5681  0E87  022B               	subwf	(__doprnt@_val)^080h,w
  5682  0E88                     u5295:
  5683  0E88  1803               	skipnc
  5684  0E89  2E8B               	goto	u5291
  5685  0E8A  2E8C               	goto	u5290
  5686  0E8B                     u5291:
  5687  0E8B  2E8E               	goto	l10346
  5688  0E8C                     u5290:
  5689  0E8C  2E9D               	goto	l10350
  5690                           	line	1302
  5691                           	
  5692  0E8D                     l10344:	
  5693  0E8D  2E9D               	goto	l10350
  5694                           	
  5695  0E8E                     l4933:	
  5696                           	line	1300
  5697                           	
  5698  0E8E                     l10346:	
  5699  0E8E  3001               	movlw	(01h)
  5700  0E8F  1283               	bcf	status, 5	;RP0=0, select bank0
  5701  0E90  1303               	bcf	status, 6	;RP1=0, select bank0
  5702  0E91  00E4               	movwf	(??__doprnt+0)+0
  5703  0E92  0864               	movf	(??__doprnt+0)+0,w
  5704  0E93  1683               	bsf	status, 5	;RP0=1, select bank1
  5705  0E94  1303               	bcf	status, 6	;RP1=0, select bank1
  5706  0E95  07B4               	addwf	(__doprnt@c)^080h,f
  5707                           	
  5708  0E96                     l10348:	
  5709  0E96  0834               	movf	(__doprnt@c)^080h,w
  5710  0E97  3A0A               	xorlw	0Ah
  5711  0E98  1D03               	skipz
  5712  0E99  2E9B               	goto	u5301
  5713  0E9A  2E9C               	goto	u5300
  5714  0E9B                     u5301:
  5715  0E9B  2E46               	goto	l10342
  5716  0E9C                     u5300:
  5717  0E9C  2E9D               	goto	l10350
  5718                           	
  5719  0E9D                     l4932:	
  5720                           	line	1334
  5721                           	
  5722  0E9D                     l10350:	
  5723  0E9D  0834               	movf	(__doprnt@c)^080h,w
  5724  0E9E  1283               	bcf	status, 5	;RP0=0, select bank0
  5725  0E9F  1303               	bcf	status, 6	;RP1=0, select bank0
  5726  0EA0  00E4               	movwf	(??__doprnt+0)+0
  5727  0EA1  01E5               	clrf	(??__doprnt+0)+0+1
  5728  0EA2  1BE4               	btfsc	(??__doprnt+0)+0,7
  5729  0EA3  03E5               	decf	(??__doprnt+0)+0+1,f
  5730  0EA4  0865               	movf	1+(??__doprnt+0)+0,w
  5731  0EA5  3A80               	xorlw	80h
  5732  0EA6  00E6               	movwf	(??__doprnt+2)+0
  5733  0EA7  1683               	bsf	status, 5	;RP0=1, select bank1
  5734  0EA8  1303               	bcf	status, 6	;RP1=0, select bank1
  5735  0EA9  0830               	movf	(__doprnt@prec+1)^080h,w
  5736  0EAA  3A80               	xorlw	80h
  5737  0EAB  1283               	bcf	status, 5	;RP0=0, select bank0
  5738  0EAC  1303               	bcf	status, 6	;RP1=0, select bank0
  5739  0EAD  0266               	subwf	(??__doprnt+2)+0,w
  5740  0EAE  1D03               	skipz
  5741  0EAF  2EB6               	goto	u5315
  5742  0EB0  1683               	bsf	status, 5	;RP0=1, select bank1
  5743  0EB1  1303               	bcf	status, 6	;RP1=0, select bank1
  5744  0EB2  082F               	movf	(__doprnt@prec)^080h,w
  5745  0EB3  1283               	bcf	status, 5	;RP0=0, select bank0
  5746  0EB4  1303               	bcf	status, 6	;RP1=0, select bank0
  5747  0EB5  0264               	subwf	0+(??__doprnt+0)+0,w
  5748  0EB6                     u5315:
  5749                           
  5750  0EB6  1803               	skipnc
  5751  0EB7  2EB9               	goto	u5311
  5752  0EB8  2EBA               	goto	u5310
  5753  0EB9                     u5311:
  5754  0EB9  2EC5               	goto	l10354
  5755  0EBA                     u5310:
  5756                           	line	1335
  5757                           	
  5758  0EBA                     l10352:	
  5759  0EBA  1683               	bsf	status, 5	;RP0=1, select bank1
  5760  0EBB  1303               	bcf	status, 6	;RP1=0, select bank1
  5761  0EBC  082F               	movf	(__doprnt@prec)^080h,w
  5762  0EBD  1283               	bcf	status, 5	;RP0=0, select bank0
  5763  0EBE  1303               	bcf	status, 6	;RP1=0, select bank0
  5764  0EBF  00E4               	movwf	(??__doprnt+0)+0
  5765  0EC0  0864               	movf	(??__doprnt+0)+0,w
  5766  0EC1  1683               	bsf	status, 5	;RP0=1, select bank1
  5767  0EC2  1303               	bcf	status, 6	;RP1=0, select bank1
  5768  0EC3  00B4               	movwf	(__doprnt@c)^080h
  5769  0EC4  2EEB               	goto	l10358
  5770                           	line	1336
  5771                           	
  5772  0EC5                     l4934:	
  5773                           	
  5774  0EC5                     l10354:	
  5775  0EC5  1683               	bsf	status, 5	;RP0=1, select bank1
  5776  0EC6  1303               	bcf	status, 6	;RP1=0, select bank1
  5777  0EC7  0834               	movf	(__doprnt@c)^080h,w
  5778  0EC8  1283               	bcf	status, 5	;RP0=0, select bank0
  5779  0EC9  1303               	bcf	status, 6	;RP1=0, select bank0
  5780  0ECA  00E4               	movwf	(??__doprnt+0)+0
  5781  0ECB  01E5               	clrf	(??__doprnt+0)+0+1
  5782  0ECC  1BE4               	btfsc	(??__doprnt+0)+0,7
  5783  0ECD  03E5               	decf	(??__doprnt+0)+0+1,f
  5784  0ECE  1683               	bsf	status, 5	;RP0=1, select bank1
  5785  0ECF  1303               	bcf	status, 6	;RP1=0, select bank1
  5786  0ED0  0830               	movf	(__doprnt@prec+1)^080h,w
  5787  0ED1  3A80               	xorlw	80h
  5788  0ED2  1283               	bcf	status, 5	;RP0=0, select bank0
  5789  0ED3  1303               	bcf	status, 6	;RP1=0, select bank0
  5790  0ED4  00E6               	movwf	(??__doprnt+2)+0
  5791  0ED5  0865               	movf	1+(??__doprnt+0)+0,w
  5792  0ED6  3A80               	xorlw	80h
  5793  0ED7  0266               	subwf	(??__doprnt+2)+0,w
  5794  0ED8  1D03               	skipz
  5795  0ED9  2EDE               	goto	u5325
  5796  0EDA  0864               	movf	0+(??__doprnt+0)+0,w
  5797  0EDB  1683               	bsf	status, 5	;RP0=1, select bank1
  5798  0EDC  1303               	bcf	status, 6	;RP1=0, select bank1
  5799  0EDD  022F               	subwf	(__doprnt@prec)^080h,w
  5800  0EDE                     u5325:
  5801                           
  5802  0EDE  1803               	skipnc
  5803  0EDF  2EE1               	goto	u5321
  5804  0EE0  2EE2               	goto	u5320
  5805  0EE1                     u5321:
  5806  0EE1  2EEB               	goto	l10358
  5807  0EE2                     u5320:
  5808                           	line	1337
  5809                           	
  5810  0EE2                     l10356:	
  5811  0EE2  1683               	bsf	status, 5	;RP0=1, select bank1
  5812  0EE3  1303               	bcf	status, 6	;RP1=0, select bank1
  5813  0EE4  0834               	movf	(__doprnt@c)^080h,w
  5814  0EE5  00AF               	movwf	(__doprnt@prec)^080h
  5815  0EE6  01B0               	clrf	(__doprnt@prec+1)^080h
  5816  0EE7  1BAF               	btfsc	(__doprnt@prec)^080h,7
  5817  0EE8  03B0               	decf	(__doprnt@prec+1)^080h,f
  5818  0EE9  2EEB               	goto	l10358
  5819                           	
  5820  0EEA                     l4936:	
  5821  0EEA  2EEB               	goto	l10358
  5822                           	line	1417
  5823                           	
  5824  0EEB                     l4935:	
  5825                           	line	1433
  5826                           	
  5827  0EEB                     l10358:	
  5828  0EEB  3003               	movlw	low(03h)
  5829  0EEC  1683               	bsf	status, 5	;RP0=1, select bank1
  5830  0EED  1303               	bcf	status, 6	;RP1=0, select bank1
  5831  0EEE  0524               	andwf	(__doprnt@flag)^080h,w
  5832  0EEF  1283               	bcf	status, 5	;RP0=0, select bank0
  5833  0EF0  1303               	bcf	status, 6	;RP1=0, select bank0
  5834  0EF1  00E4               	movwf	(??__doprnt+0)+0
  5835  0EF2  3000               	movlw	high(03h)
  5836  0EF3  1683               	bsf	status, 5	;RP0=1, select bank1
  5837  0EF4  1303               	bcf	status, 6	;RP1=0, select bank1
  5838  0EF5  0525               	andwf	(__doprnt@flag+1)^080h,w
  5839  0EF6  1283               	bcf	status, 5	;RP0=0, select bank0
  5840  0EF7  1303               	bcf	status, 6	;RP1=0, select bank0
  5841  0EF8  00E5               	movwf	1+(??__doprnt+0)+0
  5842  0EF9  0865               	movf	1+(??__doprnt+0)+0,w
  5843  0EFA  0464               	iorwf	0+(??__doprnt+0)+0,w
  5844  0EFB  1903               	skipnz
  5845  0EFC  2EFE               	goto	u5331
  5846  0EFD  2EFF               	goto	u5330
  5847  0EFE                     u5331:
  5848  0EFE  2FCC               	goto	l10378
  5849  0EFF                     u5330:
  5850                           	line	1434
  5851                           	
  5852  0EFF                     l10360:	
  5853  0EFF  1683               	bsf	status, 5	;RP0=1, select bank1
  5854  0F00  1303               	bcf	status, 6	;RP1=0, select bank1
  5855  0F01  0835               	movf	(__doprnt@pb)^080h,w
  5856  0F02  3E01               	addlw	01h
  5857  0F03  0084               	movwf	fsr0
  5858  0F04  1383               	bcf	status, 7	;select IRP bank0
  5859  0F05  0880               	movf	indf
  5860  0F06  1903               	skipnz
  5861  0F07  2F09               	goto	u5341
  5862  0F08  2F0A               	goto	u5340
  5863  0F09                     u5341:
  5864  0F09  2F1C               	goto	l10364
  5865  0F0A                     u5340:
  5866                           	
  5867  0F0A                     l10362:	
  5868  0F0A  302D               	movlw	(02Dh)
  5869  0F0B  1283               	bcf	status, 5	;RP0=0, select bank0
  5870  0F0C  1303               	bcf	status, 6	;RP1=0, select bank0
  5871  0F0D  00E4               	movwf	(??__doprnt+0)+0
  5872  0F0E  0864               	movf	(??__doprnt+0)+0,w
  5873  0F0F  00AA               	movwf	(?_putch)
  5874  0F10  1683               	bsf	status, 5	;RP0=1, select bank1
  5875  0F11  1303               	bcf	status, 6	;RP1=0, select bank1
  5876  0F12  0835               	movf	(__doprnt@pb)^080h,w
  5877  0F13  3E01               	addlw	01h
  5878  0F14  0084               	movwf	fsr0
  5879  0F15  0800               	movf	indf,w
  5880  0F16  120A  118A  2700   	fcall	fptable
              120A  158A         
  5881  0F1B  2FCC               	goto	l10378
  5882                           	
  5883  0F1C                     l4938:	
  5884                           	
  5885  0F1C                     l10364:	
  5886  0F1C  302D               	movlw	(02Dh)
  5887  0F1D  1283               	bcf	status, 5	;RP0=0, select bank0
  5888  0F1E  1303               	bcf	status, 6	;RP1=0, select bank0
  5889  0F1F  00E4               	movwf	(??__doprnt+0)+0
  5890  0F20  1683               	bsf	status, 5	;RP0=1, select bank1
  5891  0F21  1303               	bcf	status, 6	;RP1=0, select bank1
  5892  0F22  0835               	movf	(__doprnt@pb)^080h,w
  5893  0F23  0084               	movwf	fsr0
  5894  0F24  1383               	bcf	status, 7	;select IRP bank0
  5895  0F25  0800               	movf	indf,w
  5896  0F26  0084               	movwf	fsr0
  5897  0F27  1283               	bcf	status, 5	;RP0=0, select bank0
  5898  0F28  1303               	bcf	status, 6	;RP1=0, select bank0
  5899  0F29  0864               	movf	(??__doprnt+0)+0,w
  5900  0F2A  1783               	bsf	status, 7	;select IRP bank2
  5901  0F2B  0080               	movwf	indf
  5902                           	
  5903  0F2C                     l10366:	
  5904  0F2C  3001               	movlw	(01h)
  5905  0F2D  00E4               	movwf	(??__doprnt+0)+0
  5906  0F2E  1683               	bsf	status, 5	;RP0=1, select bank1
  5907  0F2F  1303               	bcf	status, 6	;RP1=0, select bank1
  5908  0F30  0835               	movf	(__doprnt@pb)^080h,w
  5909  0F31  0084               	movwf	fsr0
  5910  0F32  1283               	bcf	status, 5	;RP0=0, select bank0
  5911  0F33  1303               	bcf	status, 6	;RP1=0, select bank0
  5912  0F34  0864               	movf	(??__doprnt+0)+0,w
  5913  0F35  1383               	bcf	status, 7	;select IRP bank0
  5914  0F36  0780               	addwf	indf,f
  5915  0F37  2FCC               	goto	l10378
  5916                           	
  5917  0F38                     l4939:	
  5918  0F38  2FCC               	goto	l10378
  5919                           	
  5920  0F39                     l4937:	
  5921                           	line	1469
  5922  0F39  2FCC               	goto	l10378
  5923                           	
  5924  0F3A                     l4941:	
  5925                           	line	1484
  5926                           	
  5927  0F3A                     l10368:	
  5928  0F3A  3000               	movlw	0
  5929  0F3B  1283               	bcf	status, 5	;RP0=0, select bank0
  5930  0F3C  00A3               	movwf	(?___llmod+3)
  5931  0F3D  3000               	movlw	0
  5932  0F3E  00A2               	movwf	(?___llmod+2)
  5933  0F3F  3000               	movlw	0
  5934  0F40  00A1               	movwf	(?___llmod+1)
  5935  0F41  300A               	movlw	0Ah
  5936  0F42  00A0               	movwf	(?___llmod)
  5937                           
  5938  0F43  1683               	bsf	status, 5	;RP0=1, select bank1
  5939  0F44  1303               	bcf	status, 6	;RP1=0, select bank1
  5940  0F45  082F               	movf	(__doprnt@prec)^080h,w
  5941  0F46  1283               	bcf	status, 5	;RP0=0, select bank0
  5942  0F47  1303               	bcf	status, 6	;RP1=0, select bank0
  5943  0F48  00E4               	movwf	(??__doprnt+0)+0
  5944  0F49  3001               	movlw	(02h)-1
  5945  0F4A                     u5355:
  5946  0F4A  1003               	clrc
  5947  0F4B  0DE4               	rlf	(??__doprnt+0)+0,f
  5948  0F4C  3EFF               	addlw	-1
  5949  0F4D  1D03               	skipz
  5950  0F4E  2F4A               	goto	u5355
  5951  0F4F  1003               	clrc
  5952  0F50  0D64               	rlf	(??__doprnt+0)+0,w
  5953  0F51  3E01               	addlw	low((_dpowers-__stringbase))
  5954  0F52  0084               	movwf	fsr0
  5955  0F53  160A  118A  200A   	fcall	stringdir
              120A  158A         
  5956  0F58  00F0               	movwf	(?___lldiv)
  5957  0F59  160A  118A  200A   	fcall	stringdir
              120A  158A         
  5958  0F5E  00F1               	movwf	(?___lldiv+1)
  5959  0F5F  160A  118A  200A   	fcall	stringdir
              120A  158A         
  5960  0F64  00F2               	movwf	(?___lldiv+2)
  5961  0F65  160A  118A  200A   	fcall	stringdir
              120A  158A         
  5962  0F6A  00F3               	movwf	(?___lldiv+3)
  5963  0F6B  1683               	bsf	status, 5	;RP0=1, select bank1
  5964  0F6C  1303               	bcf	status, 6	;RP1=0, select bank1
  5965  0F6D  082E               	movf	(__doprnt@_val+3)^080h,w
  5966  0F6E  00F7               	movwf	3+(?___lldiv)+04h
  5967  0F6F  082D               	movf	(__doprnt@_val+2)^080h,w
  5968  0F70  00F6               	movwf	2+(?___lldiv)+04h
  5969  0F71  082C               	movf	(__doprnt@_val+1)^080h,w
  5970  0F72  00F5               	movwf	1+(?___lldiv)+04h
  5971  0F73  082B               	movf	(__doprnt@_val)^080h,w
  5972  0F74  00F4               	movwf	0+(?___lldiv)+04h
  5973                           
  5974  0F75  160A  158A  26A1   	fcall	___lldiv
              120A  158A         
  5975  0F7A  0873               	movf	(3+(?___lldiv)),w
  5976  0F7B  1283               	bcf	status, 5	;RP0=0, select bank0
  5977  0F7C  1303               	bcf	status, 6	;RP1=0, select bank0
  5978  0F7D  00A7               	movwf	3+(?___llmod)+04h
  5979  0F7E  0872               	movf	(2+(?___lldiv)),w
  5980  0F7F  00A6               	movwf	2+(?___llmod)+04h
  5981  0F80  0871               	movf	(1+(?___lldiv)),w
  5982  0F81  00A5               	movwf	1+(?___llmod)+04h
  5983  0F82  0870               	movf	(0+(?___lldiv)),w
  5984  0F83  00A4               	movwf	0+(?___llmod)+04h
  5985                           
  5986  0F84  160A  158A  2511   	fcall	___llmod
              120A  158A         
  5987  0F89  1283               	bcf	status, 5	;RP0=0, select bank0
  5988  0F8A  1303               	bcf	status, 6	;RP1=0, select bank0
  5989  0F8B  0820               	movf	0+(((0+(?___llmod)))),w
  5990  0F8C  3E30               	addlw	030h
  5991  0F8D  00E5               	movwf	(??__doprnt+1)+0
  5992  0F8E  0865               	movf	(??__doprnt+1)+0,w
  5993  0F8F  1683               	bsf	status, 5	;RP0=1, select bank1
  5994  0F90  1303               	bcf	status, 6	;RP1=0, select bank1
  5995  0F91  00B4               	movwf	(__doprnt@c)^080h
  5996                           	line	1516
  5997                           	
  5998  0F92                     l10370:	
  5999  0F92  0835               	movf	(__doprnt@pb)^080h,w
  6000  0F93  3E01               	addlw	01h
  6001  0F94  0084               	movwf	fsr0
  6002  0F95  1383               	bcf	status, 7	;select IRP bank0
  6003  0F96  0880               	movf	indf
  6004  0F97  1903               	skipnz
  6005  0F98  2F9A               	goto	u5361
  6006  0F99  2F9B               	goto	u5360
  6007  0F9A                     u5361:
  6008  0F9A  2FAD               	goto	l10374
  6009  0F9B                     u5360:
  6010                           	
  6011  0F9B                     l10372:	
  6012  0F9B  0834               	movf	(__doprnt@c)^080h,w
  6013  0F9C  1283               	bcf	status, 5	;RP0=0, select bank0
  6014  0F9D  1303               	bcf	status, 6	;RP1=0, select bank0
  6015  0F9E  00E4               	movwf	(??__doprnt+0)+0
  6016  0F9F  0864               	movf	(??__doprnt+0)+0,w
  6017  0FA0  00AA               	movwf	(?_putch)
  6018  0FA1  1683               	bsf	status, 5	;RP0=1, select bank1
  6019  0FA2  1303               	bcf	status, 6	;RP1=0, select bank1
  6020  0FA3  0835               	movf	(__doprnt@pb)^080h,w
  6021  0FA4  3E01               	addlw	01h
  6022  0FA5  0084               	movwf	fsr0
  6023  0FA6  0800               	movf	indf,w
  6024  0FA7  120A  118A  2700   	fcall	fptable
              120A  158A         
  6025  0FAC  2FCC               	goto	l10378
  6026                           	
  6027  0FAD                     l4942:	
  6028                           	
  6029  0FAD                     l10374:	
  6030  0FAD  1683               	bsf	status, 5	;RP0=1, select bank1
  6031  0FAE  1303               	bcf	status, 6	;RP1=0, select bank1
  6032  0FAF  0834               	movf	(__doprnt@c)^080h,w
  6033  0FB0  1283               	bcf	status, 5	;RP0=0, select bank0
  6034  0FB1  1303               	bcf	status, 6	;RP1=0, select bank0
  6035  0FB2  00E4               	movwf	(??__doprnt+0)+0
  6036  0FB3  1683               	bsf	status, 5	;RP0=1, select bank1
  6037  0FB4  1303               	bcf	status, 6	;RP1=0, select bank1
  6038  0FB5  0835               	movf	(__doprnt@pb)^080h,w
  6039  0FB6  0084               	movwf	fsr0
  6040  0FB7  1383               	bcf	status, 7	;select IRP bank0
  6041  0FB8  0800               	movf	indf,w
  6042  0FB9  0084               	movwf	fsr0
  6043  0FBA  1283               	bcf	status, 5	;RP0=0, select bank0
  6044  0FBB  1303               	bcf	status, 6	;RP1=0, select bank0
  6045  0FBC  0864               	movf	(??__doprnt+0)+0,w
  6046  0FBD  1783               	bsf	status, 7	;select IRP bank2
  6047  0FBE  0080               	movwf	indf
  6048                           	
  6049  0FBF                     l10376:	
  6050  0FBF  3001               	movlw	(01h)
  6051  0FC0  00E4               	movwf	(??__doprnt+0)+0
  6052  0FC1  1683               	bsf	status, 5	;RP0=1, select bank1
  6053  0FC2  1303               	bcf	status, 6	;RP1=0, select bank1
  6054  0FC3  0835               	movf	(__doprnt@pb)^080h,w
  6055  0FC4  0084               	movwf	fsr0
  6056  0FC5  1283               	bcf	status, 5	;RP0=0, select bank0
  6057  0FC6  1303               	bcf	status, 6	;RP1=0, select bank0
  6058  0FC7  0864               	movf	(??__doprnt+0)+0,w
  6059  0FC8  1383               	bcf	status, 7	;select IRP bank0
  6060  0FC9  0780               	addwf	indf,f
  6061  0FCA  2FCC               	goto	l10378
  6062                           	
  6063  0FCB                     l4943:	
  6064  0FCB  2FCC               	goto	l10378
  6065                           	line	1517
  6066                           	
  6067  0FCC                     l4940:	
  6068                           	line	1469
  6069                           	
  6070  0FCC                     l10378:	
  6071  0FCC  30FF               	movlw	low(-1)
  6072  0FCD  1683               	bsf	status, 5	;RP0=1, select bank1
  6073  0FCE  1303               	bcf	status, 6	;RP1=0, select bank1
  6074  0FCF  07AF               	addwf	(__doprnt@prec)^080h,f
  6075  0FD0  1803               	skipnc
  6076  0FD1  0AB0               	incf	(__doprnt@prec+1)^080h,f
  6077  0FD2  30FF               	movlw	high(-1)
  6078  0FD3  07B0               	addwf	(__doprnt@prec+1)^080h,f
  6079  0FD4  30FF               	movlw	high(-1)
  6080  0FD5  0630               	xorwf	((__doprnt@prec+1)^080h),w
  6081  0FD6  1D03               	skipz
  6082  0FD7  2FDA               	goto	u5375
  6083  0FD8  30FF               	movlw	low(-1)
  6084  0FD9  062F               	xorwf	((__doprnt@prec)^080h),w
  6085  0FDA                     u5375:
  6086                           
  6087  0FDA  1D03               	skipz
  6088  0FDB  2FDD               	goto	u5371
  6089  0FDC  2FDE               	goto	u5370
  6090  0FDD                     u5371:
  6091  0FDD  2F3A               	goto	l10368
  6092  0FDE                     u5370:
  6093  0FDE  2FE0               	goto	l10380
  6094                           	
  6095  0FDF                     l4944:	
  6096  0FDF  2FE0               	goto	l10380
  6097                           	line	1525
  6098                           	
  6099  0FE0                     l4861:	
  6100                           	line	540
  6101                           	
  6102  0FE0                     l10380:	
  6103  0FE0  3001               	movlw	01h
  6104  0FE1  1283               	bcf	status, 5	;RP0=0, select bank0
  6105  0FE2  1303               	bcf	status, 6	;RP1=0, select bank0
  6106  0FE3  07E2               	addwf	(__doprnt@f),f
  6107  0FE4  30FF               	movlw	-01h
  6108  0FE5  0762               	addwf	(__doprnt@f),w
  6109  0FE6  0084               	movwf	fsr0
  6110  0FE7  160A  118A  200A   	fcall	stringdir
              120A  158A         
  6111  0FEC  00E4               	movwf	(??__doprnt+0)+0
  6112  0FED  0864               	movf	(??__doprnt+0)+0,w
  6113  0FEE  1683               	bsf	status, 5	;RP0=1, select bank1
  6114  0FEF  1303               	bcf	status, 6	;RP1=0, select bank1
  6115  0FF0  00B4               	movwf	(__doprnt@c)^080h
  6116  0FF1  08B4               	movf	((__doprnt@c)^080h),f
  6117  0FF2  1D03               	skipz
  6118  0FF3  2FF5               	goto	u5381
  6119  0FF4  2FF8               	goto	u5380
  6120  0FF5                     u5381:
  6121  0FF5  120A  118A  2A00   	goto	l10128
  6122  0FF8                     u5380:
  6123  0FF8  2FFA               	goto	l10382
  6124                           	
  6125  0FF9                     l4945:	
  6126  0FF9  2FFA               	goto	l10382
  6127                           	line	1527
  6128                           	
  6129  0FFA                     l4873:	
  6130                           	line	1532
  6131                           	
  6132  0FFA                     l10382:	
  6133  0FFA  1283               	bcf	status, 5	;RP0=0, select bank0
  6134  0FFB  1303               	bcf	status, 6	;RP1=0, select bank0
  6135  0FFC  01E2               	clrf	(?__doprnt)
  6136  0FFD  01E3               	clrf	(?__doprnt+1)
  6137  0FFE  2FFF               	goto	l4946
  6138                           	
  6139  0FFF                     l10384:	
  6140                           	line	1533
  6141                           	
  6142  0FFF                     l4946:	
  6143  0FFF  0008               	return
  6144                           	opt stack 0
  6145                           GLOBAL	__end_of__doprnt
  6146  1000                     	__end_of__doprnt:
  6147 ;; =============== function __doprnt ends ============
  6148                           
  6149                           	signat	__doprnt,12410
  6150                           	global	_lcd_clear
  6151                           psect	text723,local,class=CODE,delta=2
  6152                           global __ptext723
  6153  1C07                     __ptext723:
  6154                           
  6155 ;; *************** function _lcd_clear *****************
  6156 ;; Defined at:
  6157 ;;		line 49 in file "C:\PIC_PROGS\ProyectoMicros\PIC\lcd.c"
  6158 ;; Parameters:    Size  Location     Type
  6159 ;;		None
  6160 ;; Auto vars:     Size  Location     Type
  6161 ;;		None
  6162 ;; Return value:  Size  Location     Type
  6163 ;;		None               void
  6164 ;; Registers used:
  6165 ;;		wreg, status,2, status,0, pclath, cstack
  6166 ;; Tracked objects:
  6167 ;;		On entry : 0/0
  6168 ;;		On exit  : 0/0
  6169 ;;		Unchanged: 0/0
  6170 ;; Data sizes:     COMMON   BANK0   BANK1   BANK3   BANK2
  6171 ;;      Params:         0       0       0       0       0
  6172 ;;      Locals:         0       0       0       0       0
  6173 ;;      Temps:          0       0       0       0       0
  6174 ;;      Totals:         0       0       0       0       0
  6175 ;;Total ram usage:        0 bytes
  6176 ;; Hardware stack levels used:    1
  6177 ;; Hardware stack levels required when called:    3
  6178 ;; This function calls:
  6179 ;;		_lcd_write
  6180 ;;		_pause
  6181 ;; This function is called by:
  6182 ;;		_main
  6183 ;;		_lcd_init
  6184 ;; This function uses a non-reentrant model
  6185 ;;
  6186                           psect	text723
  6187                           	file	"C:\PIC_PROGS\ProyectoMicros\PIC\lcd.c"
  6188                           	line	49
  6189                           	global	__size_of_lcd_clear
  6190  0013                     	__size_of_lcd_clear	equ	__end_of_lcd_clear-_lcd_clear
  6191                           	
  6192  1C07                     _lcd_clear:	
  6193                           	opt	stack 4
  6194                           ; Regs used in _lcd_clear: [wreg+status,2+status,0+pclath+cstack]
  6195                           	line	50
  6196                           	
  6197  1C07                     l10122:	
  6198                           ;lcd.c: 50: RA2 = 0;
  6199  1C07  1283               	bcf	status, 5	;RP0=0, select bank0
  6200  1C08  1303               	bcf	status, 6	;RP1=0, select bank0
  6201  1C09  1105               	bcf	(42/8),(42)&7
  6202                           	line	51
  6203                           	
  6204  1C0A                     l10124:	
  6205                           ;lcd.c: 51: lcd_write(0x1);
  6206  1C0A  3001               	movlw	(01h)
  6207  1C0B  160A  158A  2477   	fcall	_lcd_write
              160A  158A         
  6208                           	line	52
  6209                           ;lcd.c: 52: pause (2);
  6210  1C10  3002               	movlw	low(02h)
  6211  1C11  00F0               	movwf	(?_pause)
  6212  1C12  3000               	movlw	high(02h)
  6213  1C13  00F1               	movwf	((?_pause))+1
  6214  1C14  160A  158A  245C   	fcall	_pause
              160A  158A         
  6215                           	line	53
  6216                           	
  6217  1C19                     l1908:	
  6218  1C19  0008               	return
  6219                           	opt stack 0
  6220                           GLOBAL	__end_of_lcd_clear
  6221  1C1A                     	__end_of_lcd_clear:
  6222 ;; =============== function _lcd_clear ends ============
  6223                           
  6224                           	signat	_lcd_clear,88
  6225                           	global	_lcd_puts
  6226                           psect	text724,local,class=CODE,delta=2
  6227                           global __ptext724
  6228  1CE6                     __ptext724:
  6229                           
  6230 ;; *************** function _lcd_puts *****************
  6231 ;; Defined at:
  6232 ;;		line 59 in file "C:\PIC_PROGS\ProyectoMicros\PIC\lcd.c"
  6233 ;; Parameters:    Size  Location     Type
  6234 ;;  s               2    6[COMMON] PTR const unsigned char 
  6235 ;;		 -> str(80), STR_6(15), STR_5(10), STR_4(7), 
  6236 ;;		 -> STR_3(13), STR_2(15), STR_1(13), 
  6237 ;; Auto vars:     Size  Location     Type
  6238 ;;		None
  6239 ;; Return value:  Size  Location     Type
  6240 ;;		None               void
  6241 ;; Registers used:
  6242 ;;		wreg, fsr0l, fsr0h, status,2, status,0, btemp+1, pclath, cstack
  6243 ;; Tracked objects:
  6244 ;;		On entry : 0/0
  6245 ;;		On exit  : 0/0
  6246 ;;		Unchanged: 0/0
  6247 ;; Data sizes:     COMMON   BANK0   BANK1   BANK3   BANK2
  6248 ;;      Params:         2       0       0       0       0
  6249 ;;      Locals:         0       0       0       0       0
  6250 ;;      Temps:          0       0       0       0       0
  6251 ;;      Totals:         2       0       0       0       0
  6252 ;;Total ram usage:        2 bytes
  6253 ;; Hardware stack levels used:    1
  6254 ;; Hardware stack levels required when called:    3
  6255 ;; This function calls:
  6256 ;;		_lcd_write
  6257 ;; This function is called by:
  6258 ;;		_main
  6259 ;; This function uses a non-reentrant model
  6260 ;;
  6261                           psect	text724
  6262                           	file	"C:\PIC_PROGS\ProyectoMicros\PIC\lcd.c"
  6263                           	line	59
  6264                           	global	__size_of_lcd_puts
  6265  002B                     	__size_of_lcd_puts	equ	__end_of_lcd_puts-_lcd_puts
  6266                           	
  6267  1CE6                     _lcd_puts:	
  6268                           	opt	stack 4
  6269                           ; Regs used in _lcd_puts: [wreg-fsr0h+status,2+status,0+btemp+1+pclath+cstack]
  6270                           	line	60
  6271                           	
  6272  1CE6                     l10114:	
  6273                           ;lcd.c: 60: RA2 = 1;
  6274  1CE6  1283               	bcf	status, 5	;RP0=0, select bank0
  6275  1CE7  1303               	bcf	status, 6	;RP1=0, select bank0
  6276  1CE8  1505               	bsf	(42/8),(42)&7
  6277                           	line	61
  6278                           ;lcd.c: 61: while(*s)
  6279  1CE9  2CFF               	goto	l10120
  6280                           	
  6281  1CEA                     l1912:	
  6282                           	line	62
  6283                           	
  6284  1CEA                     l10116:	
  6285                           ;lcd.c: 62: lcd_write(*s++);
  6286  1CEA  0877               	movf	(lcd_puts@s+1),w
  6287  1CEB  00FF               	movwf	btemp+1
  6288  1CEC  0876               	movf	(lcd_puts@s),w
  6289  1CED  0084               	movwf	fsr0
  6290  1CEE  160A  118A  2000   	fcall	stringtab
              160A  158A         
  6291  1CF3  160A  158A  2477   	fcall	_lcd_write
              160A  158A         
  6292                           	
  6293  1CF8                     l10118:	
  6294  1CF8  3001               	movlw	low(01h)
  6295  1CF9  07F6               	addwf	(lcd_puts@s),f
  6296  1CFA  1803               	skipnc
  6297  1CFB  0AF7               	incf	(lcd_puts@s+1),f
  6298  1CFC  3000               	movlw	high(01h)
  6299  1CFD  07F7               	addwf	(lcd_puts@s+1),f
  6300  1CFE  2CFF               	goto	l10120
  6301                           	
  6302  1CFF                     l1911:	
  6303                           	line	61
  6304                           	
  6305  1CFF                     l10120:	
  6306  1CFF  0877               	movf	(lcd_puts@s+1),w
  6307  1D00  1283               	bcf	status, 5	;RP0=0, select bank0
  6308  1D01  1303               	bcf	status, 6	;RP1=0, select bank0
  6309  1D02  00FF               	movwf	btemp+1
  6310  1D03  0876               	movf	(lcd_puts@s),w
  6311  1D04  0084               	movwf	fsr0
  6312  1D05  160A  118A  2000   	fcall	stringtab
              160A  158A         
  6313  1D0A  3800               	iorlw	0
  6314  1D0B  1D03               	skipz
  6315  1D0C  2D0E               	goto	u4831
  6316  1D0D  2D0F               	goto	u4830
  6317  1D0E                     u4831:
  6318  1D0E  2CEA               	goto	l10116
  6319  1D0F                     u4830:
  6320  1D0F  2D10               	goto	l1914
  6321                           	
  6322  1D10                     l1913:	
  6323                           	line	63
  6324                           	
  6325  1D10                     l1914:	
  6326  1D10  0008               	return
  6327                           	opt stack 0
  6328                           GLOBAL	__end_of_lcd_puts
  6329  1D11                     	__end_of_lcd_puts:
  6330 ;; =============== function _lcd_puts ends ============
  6331                           
  6332                           	signat	_lcd_puts,4216
  6333                           	global	_lcd_goto
  6334                           psect	text725,local,class=CODE,delta=2
  6335                           global __ptext725
  6336  1BDA                     __ptext725:
  6337                           
  6338 ;; *************** function _lcd_goto *****************
  6339 ;; Defined at:
  6340 ;;		line 81 in file "C:\PIC_PROGS\ProyectoMicros\PIC\lcd.c"
  6341 ;; Parameters:    Size  Location     Type
  6342 ;;  pos             1    wreg     unsigned char 
  6343 ;; Auto vars:     Size  Location     Type
  6344 ;;  pos             1    6[COMMON] unsigned char 
  6345 ;; Return value:  Size  Location     Type
  6346 ;;		None               void
  6347 ;; Registers used:
  6348 ;;		wreg, status,2, status,0, pclath, cstack
  6349 ;; Tracked objects:
  6350 ;;		On entry : 0/0
  6351 ;;		On exit  : 0/0
  6352 ;;		Unchanged: 0/0
  6353 ;; Data sizes:     COMMON   BANK0   BANK1   BANK3   BANK2
  6354 ;;      Params:         0       0       0       0       0
  6355 ;;      Locals:         1       0       0       0       0
  6356 ;;      Temps:          0       0       0       0       0
  6357 ;;      Totals:         1       0       0       0       0
  6358 ;;Total ram usage:        1 bytes
  6359 ;; Hardware stack levels used:    1
  6360 ;; Hardware stack levels required when called:    3
  6361 ;; This function calls:
  6362 ;;		_lcd_write
  6363 ;; This function is called by:
  6364 ;;		_main
  6365 ;; This function uses a non-reentrant model
  6366 ;;
  6367                           psect	text725
  6368                           	file	"C:\PIC_PROGS\ProyectoMicros\PIC\lcd.c"
  6369                           	line	81
  6370                           	global	__size_of_lcd_goto
  6371  000C                     	__size_of_lcd_goto	equ	__end_of_lcd_goto-_lcd_goto
  6372                           	
  6373  1BDA                     _lcd_goto:	
  6374                           	opt	stack 4
  6375                           ; Regs used in _lcd_goto: [wreg+status,2+status,0+pclath+cstack]
  6376                           ;lcd_goto@pos stored from wreg
  6377  1BDA  00F6               	movwf	(lcd_goto@pos)
  6378                           	line	82
  6379                           	
  6380  1BDB                     l10110:	
  6381                           ;lcd.c: 82: RA2 = 0;
  6382  1BDB  1283               	bcf	status, 5	;RP0=0, select bank0
  6383  1BDC  1303               	bcf	status, 6	;RP1=0, select bank0
  6384  1BDD  1105               	bcf	(42/8),(42)&7
  6385                           	line	83
  6386                           	
  6387  1BDE                     l10112:	
  6388                           ;lcd.c: 83: lcd_write(0x80+pos);
  6389  1BDE  0876               	movf	(lcd_goto@pos),w
  6390  1BDF  3E80               	addlw	080h
  6391  1BE0  160A  158A  2477   	fcall	_lcd_write
              160A  158A         
  6392                           	line	84
  6393                           	
  6394  1BE5                     l1920:	
  6395  1BE5  0008               	return
  6396                           	opt stack 0
  6397                           GLOBAL	__end_of_lcd_goto
  6398  1BE6                     	__end_of_lcd_goto:
  6399 ;; =============== function _lcd_goto ends ============
  6400                           
  6401                           	signat	_lcd_goto,4216
  6402                           	global	___ftsub
  6403                           psect	text726,local,class=CODE,delta=2
  6404                           global __ptext726
  6405  10E2                     __ptext726:
  6406                           
  6407 ;; *************** function ___ftsub *****************
  6408 ;; Defined at:
  6409 ;;		line 17 in file "C:\Program Files (x86)\HI-TECH Software\PICC\9.82\sources\ftsub.c"
  6410 ;; Parameters:    Size  Location     Type
  6411 ;;  f2              3   50[BANK0 ] float 
  6412 ;;  f1              3   53[BANK0 ] float 
  6413 ;; Auto vars:     Size  Location     Type
  6414 ;;		None
  6415 ;; Return value:  Size  Location     Type
  6416 ;;                  3   50[BANK0 ] float 
  6417 ;; Registers used:
  6418 ;;		wreg, status,2, status,0, pclath, cstack
  6419 ;; Tracked objects:
  6420 ;;		On entry : 0/0
  6421 ;;		On exit  : 0/0
  6422 ;;		Unchanged: 0/0
  6423 ;; Data sizes:     COMMON   BANK0   BANK1   BANK3   BANK2
  6424 ;;      Params:         0       6       0       0       0
  6425 ;;      Locals:         0       0       0       0       0
  6426 ;;      Temps:          0       0       0       0       0
  6427 ;;      Totals:         0       6       0       0       0
  6428 ;;Total ram usage:        6 bytes
  6429 ;; Hardware stack levels used:    1
  6430 ;; Hardware stack levels required when called:    2
  6431 ;; This function calls:
  6432 ;;		___ftadd
  6433 ;; This function is called by:
  6434 ;;		__doprnt
  6435 ;; This function uses a non-reentrant model
  6436 ;;
  6437                           psect	text726
  6438                           	file	"C:\Program Files (x86)\HI-TECH Software\PICC\9.82\sources\ftsub.c"
  6439                           	line	17
  6440                           	global	__size_of___ftsub
  6441  001F                     	__size_of___ftsub	equ	__end_of___ftsub-___ftsub
  6442                           	
  6443  10E2                     ___ftsub:	
  6444                           	opt	stack 3
  6445                           ; Regs used in ___ftsub: [wreg+status,2+status,0+pclath+cstack]
  6446                           	line	18
  6447                           	
  6448  10E2                     l10104:	
  6449  10E2  3080               	movlw	080h
  6450  10E3  1283               	bcf	status, 5	;RP0=0, select bank0
  6451  10E4  1303               	bcf	status, 6	;RP1=0, select bank0
  6452  10E5  06D4               	xorwf	(___ftsub@f2+2),f
  6453                           	line	19
  6454                           	
  6455  10E6                     l10106:	
  6456  10E6  0855               	movf	(___ftsub@f1),w
  6457  10E7  00C5               	movwf	(?___ftadd)
  6458  10E8  0856               	movf	(___ftsub@f1+1),w
  6459  10E9  00C6               	movwf	(?___ftadd+1)
  6460  10EA  0857               	movf	(___ftsub@f1+2),w
  6461  10EB  00C7               	movwf	(?___ftadd+2)
  6462  10EC  0852               	movf	(___ftsub@f2),w
  6463  10ED  00C8               	movwf	0+(?___ftadd)+03h
  6464  10EE  0853               	movf	(___ftsub@f2+1),w
  6465  10EF  00C9               	movwf	1+(?___ftadd)+03h
  6466  10F0  0854               	movf	(___ftsub@f2+2),w
  6467  10F1  00CA               	movwf	2+(?___ftadd)+03h
  6468  10F2  160A  118A  2351   	fcall	___ftadd
              160A  118A         
  6469  10F7  1283               	bcf	status, 5	;RP0=0, select bank0
  6470  10F8  1303               	bcf	status, 6	;RP1=0, select bank0
  6471  10F9  0845               	movf	(0+(?___ftadd)),w
  6472  10FA  00D2               	movwf	(?___ftsub)
  6473  10FB  0846               	movf	(1+(?___ftadd)),w
  6474  10FC  00D3               	movwf	(?___ftsub+1)
  6475  10FD  0847               	movf	(2+(?___ftadd)),w
  6476  10FE  00D4               	movwf	(?___ftsub+2)
  6477  10FF  2900               	goto	l6043
  6478                           	
  6479  1100                     l10108:	
  6480                           	line	20
  6481                           	
  6482  1100                     l6043:	
  6483  1100  0008               	return
  6484                           	opt stack 0
  6485                           GLOBAL	__end_of___ftsub
  6486  1101                     	__end_of___ftsub:
  6487 ;; =============== function ___ftsub ends ============
  6488                           
  6489                           	signat	___ftsub,8315
  6490                           	global	_scale
  6491                           psect	text727,local,class=CODE,delta=2
  6492                           global __ptext727
  6493  0441                     __ptext727:
  6494                           
  6495 ;; *************** function _scale *****************
  6496 ;; Defined at:
  6497 ;;		line 422 in file "C:\Program Files (x86)\HI-TECH Software\PICC\9.82\lib\doprnt.c"
  6498 ;; Parameters:    Size  Location     Type
  6499 ;;  scl             1    wreg     char 
  6500 ;; Auto vars:     Size  Location     Type
  6501 ;;  scl             1   45[BANK0 ] char 
  6502 ;; Return value:  Size  Location     Type
  6503 ;;                  3   37[BANK0 ] char 
  6504 ;; Registers used:
  6505 ;;		wreg, fsr0l, fsr0h, status,2, status,0, pclath, cstack
  6506 ;; Tracked objects:
  6507 ;;		On entry : 0/0
  6508 ;;		On exit  : 0/0
  6509 ;;		Unchanged: 0/0
  6510 ;; Data sizes:     COMMON   BANK0   BANK1   BANK3   BANK2
  6511 ;;      Params:         0       3       0       0       0
  6512 ;;      Locals:         0       4       0       0       0
  6513 ;;      Temps:          0       2       0       0       0
  6514 ;;      Totals:         0       9       0       0       0
  6515 ;;Total ram usage:        9 bytes
  6516 ;; Hardware stack levels used:    1
  6517 ;; Hardware stack levels required when called:    2
  6518 ;; This function calls:
  6519 ;;		___awmod
  6520 ;;		___bmul
  6521 ;;		___awdiv
  6522 ;;		___ftmul
  6523 ;; This function is called by:
  6524 ;;		__doprnt
  6525 ;; This function uses a non-reentrant model
  6526 ;;
  6527                           psect	text727
  6528                           	file	"C:\Program Files (x86)\HI-TECH Software\PICC\9.82\sources\doprnt.c"
  6529                           	line	422
  6530                           	global	__size_of_scale
  6531  02BF                     	__size_of_scale	equ	__end_of_scale-_scale
  6532                           	
  6533  0441                     _scale:	
  6534                           	opt	stack 3
  6535                           ; Regs used in _scale: [wreg-fsr0h+status,2+status,0+pclath+cstack]
  6536                           ;scale@scl stored from wreg
  6537                           	line	424
  6538  0441  1283               	bcf	status, 5	;RP0=0, select bank0
  6539  0442  1303               	bcf	status, 6	;RP1=0, select bank0
  6540  0443  00CD               	movwf	(scale@scl)
  6541                           	
  6542  0444                     l10064:	
  6543  0444  1FCD               	btfss	(scale@scl),7
  6544  0445  2C47               	goto	u4781
  6545  0446  2C48               	goto	u4780
  6546  0447                     u4781:
  6547  0447  2DA5               	goto	l10086
  6548  0448                     u4780:
  6549                           	line	425
  6550                           	
  6551  0448                     l10066:	
  6552  0448  09CD               	comf	(scale@scl),f
  6553  0449  0ACD               	incf	(scale@scl),f
  6554                           	line	426
  6555                           	
  6556  044A                     l10068:	
  6557  044A  084D               	movf	(scale@scl),w
  6558  044B  3A80               	xorlw	80h
  6559  044C  3E12               	addlw	-((06Eh)^80h)
  6560  044D  1C03               	skipc
  6561  044E  2C50               	goto	u4791
  6562  044F  2C51               	goto	u4790
  6563  0450                     u4791:
  6564  0450  2D0F               	goto	l10076
  6565  0451                     u4790:
  6566                           	line	427
  6567                           	
  6568  0451                     l10070:	
  6569  0451  3003               	movlw	(03h)
  6570  0452  00C8               	movwf	(??_scale+0)+0
  6571  0453  0848               	movf	(??_scale+0)+0,w
  6572  0454  00A4               	movwf	(?___bmul)
  6573  0455  300A               	movlw	low(0Ah)
  6574  0456  00F7               	movwf	(?___awdiv)
  6575  0457  3000               	movlw	high(0Ah)
  6576  0458  00F8               	movwf	((?___awdiv))+1
  6577  0459  084D               	movf	(scale@scl),w
  6578  045A  00F2               	movwf	0+(?___awmod)+02h
  6579  045B  01F3               	clrf	1+(?___awmod)+02h
  6580  045C  1BF2               	btfsc	0+(?___awmod)+02h,7
  6581  045D  03F3               	decf	1+(?___awmod)+02h,f
  6582  045E  3064               	movlw	low(064h)
  6583  045F  00F0               	movwf	(?___awmod)
  6584  0460  3000               	movlw	high(064h)
  6585  0461  00F1               	movwf	((?___awmod))+1
  6586  0462  160A  158A  25CF   	fcall	___awmod
              120A  118A         
  6587  0467  0871               	movf	(1+(?___awmod)),w
  6588  0468  01FA               	clrf	1+(?___awdiv)+02h
  6589  0469  07FA               	addwf	1+(?___awdiv)+02h
  6590  046A  0870               	movf	(0+(?___awmod)),w
  6591  046B  01F9               	clrf	0+(?___awdiv)+02h
  6592  046C  07F9               	addwf	0+(?___awdiv)+02h
  6593                           
  6594  046D  160A  158A  270F   	fcall	___awdiv
              120A  118A         
  6595  0472  0877               	movf	(0+(?___awdiv)),w
  6596  0473  3E09               	addlw	09h
  6597  0474  120A  118A  2003   	fcall	___bmul
              120A  118A         
  6598  0479  3E29               	addlw	low((__npowers_-__stringbase))
  6599  047A  0084               	movwf	fsr0
  6600  047B  160A  118A  200A   	fcall	stringdir
              120A  118A         
  6601  0480  1283               	bcf	status, 5	;RP0=0, select bank0
  6602  0481  1303               	bcf	status, 6	;RP1=0, select bank0
  6603  0482  00B5               	movwf	(?___ftmul)
  6604  0483  160A  118A  200A   	fcall	stringdir
              120A  118A         
  6605  0488  00B6               	movwf	(?___ftmul+1)
  6606  0489  160A  118A  200A   	fcall	stringdir
              120A  118A         
  6607  048E  00B7               	movwf	(?___ftmul+2)
  6608  048F  3003               	movlw	(03h)
  6609  0490  00C9               	movwf	(??_scale+1)+0
  6610  0491  0849               	movf	(??_scale+1)+0,w
  6611  0492  00A4               	movwf	(?___bmul)
  6612  0493  3064               	movlw	low(064h)
  6613  0494  00F7               	movwf	(?___awdiv)
  6614  0495  3000               	movlw	high(064h)
  6615  0496  00F8               	movwf	((?___awdiv))+1
  6616  0497  084D               	movf	(scale@scl),w
  6617  0498  00F9               	movwf	0+(?___awdiv)+02h
  6618  0499  01FA               	clrf	1+(?___awdiv)+02h
  6619  049A  1BF9               	btfsc	0+(?___awdiv)+02h,7
  6620  049B  03FA               	decf	1+(?___awdiv)+02h,f
  6621  049C  160A  158A  270F   	fcall	___awdiv
              120A  118A         
  6622  04A1  0877               	movf	(0+(?___awdiv)),w
  6623  04A2  3E12               	addlw	012h
  6624  04A3  120A  118A  2003   	fcall	___bmul
              120A  118A         
  6625  04A8  3E29               	addlw	low((__npowers_-__stringbase))
  6626  04A9  0084               	movwf	fsr0
  6627  04AA  160A  118A  200A   	fcall	stringdir
              120A  118A         
  6628  04AF  1283               	bcf	status, 5	;RP0=0, select bank0
  6629  04B0  1303               	bcf	status, 6	;RP1=0, select bank0
  6630  04B1  00B8               	movwf	0+(?___ftmul)+03h
  6631  04B2  160A  118A  200A   	fcall	stringdir
              120A  118A         
  6632  04B7  00B9               	movwf	1+(?___ftmul)+03h
  6633  04B8  160A  118A  200A   	fcall	stringdir
              120A  118A         
  6634  04BD  00BA               	movwf	2+(?___ftmul)+03h
  6635  04BE  120A  118A  2709   	fcall	___ftmul
              120A  118A         
  6636  04C3  1283               	bcf	status, 5	;RP0=0, select bank0
  6637  04C4  1303               	bcf	status, 6	;RP1=0, select bank0
  6638  04C5  0835               	movf	(0+(?___ftmul)),w
  6639  04C6  00CA               	movwf	(_scale$6158)
  6640  04C7  0836               	movf	(1+(?___ftmul)),w
  6641  04C8  00CB               	movwf	(_scale$6158+1)
  6642  04C9  0837               	movf	(2+(?___ftmul)),w
  6643  04CA  00CC               	movwf	(_scale$6158+2)
  6644  04CB  3003               	movlw	(03h)
  6645  04CC  00C8               	movwf	(??_scale+0)+0
  6646  04CD  0848               	movf	(??_scale+0)+0,w
  6647  04CE  00A4               	movwf	(?___bmul)
  6648  04CF  084D               	movf	(scale@scl),w
  6649  04D0  00F2               	movwf	0+(?___awmod)+02h
  6650  04D1  01F3               	clrf	1+(?___awmod)+02h
  6651  04D2  1BF2               	btfsc	0+(?___awmod)+02h,7
  6652  04D3  03F3               	decf	1+(?___awmod)+02h,f
  6653  04D4  300A               	movlw	low(0Ah)
  6654  04D5  00F0               	movwf	(?___awmod)
  6655  04D6  3000               	movlw	high(0Ah)
  6656  04D7  00F1               	movwf	((?___awmod))+1
  6657  04D8  160A  158A  25CF   	fcall	___awmod
              120A  118A         
  6658  04DD  0870               	movf	(0+(?___awmod)),w
  6659  04DE  120A  118A  2003   	fcall	___bmul
              120A  118A         
  6660  04E3  3E29               	addlw	low((__npowers_-__stringbase))
  6661  04E4  0084               	movwf	fsr0
  6662  04E5  160A  118A  200A   	fcall	stringdir
              120A  118A         
  6663  04EA  1283               	bcf	status, 5	;RP0=0, select bank0
  6664  04EB  1303               	bcf	status, 6	;RP1=0, select bank0
  6665  04EC  00B5               	movwf	(?___ftmul)
  6666  04ED  160A  118A  200A   	fcall	stringdir
              120A  118A         
  6667  04F2  00B6               	movwf	(?___ftmul+1)
  6668  04F3  160A  118A  200A   	fcall	stringdir
              120A  118A         
  6669  04F8  00B7               	movwf	(?___ftmul+2)
  6670  04F9  084A               	movf	(_scale$6158),w
  6671  04FA  00B8               	movwf	0+(?___ftmul)+03h
  6672  04FB  084B               	movf	(_scale$6158+1),w
  6673  04FC  00B9               	movwf	1+(?___ftmul)+03h
  6674  04FD  084C               	movf	(_scale$6158+2),w
  6675  04FE  00BA               	movwf	2+(?___ftmul)+03h
  6676  04FF  120A  118A  2709   	fcall	___ftmul
              120A  118A         
  6677  0504  1283               	bcf	status, 5	;RP0=0, select bank0
  6678  0505  1303               	bcf	status, 6	;RP1=0, select bank0
  6679  0506  0835               	movf	(0+(?___ftmul)),w
  6680  0507  00C5               	movwf	(?_scale)
  6681  0508  0836               	movf	(1+(?___ftmul)),w
  6682  0509  00C6               	movwf	(?_scale+1)
  6683  050A  0837               	movf	(2+(?___ftmul)),w
  6684  050B  00C7               	movwf	(?_scale+2)
  6685  050C  2EFF               	goto	l4853
  6686                           	
  6687  050D                     l10072:	
  6688  050D  2EFF               	goto	l4853
  6689                           	
  6690  050E                     l10074:	
  6691  050E  2D83               	goto	l10082
  6692                           	line	428
  6693                           	
  6694  050F                     l4852:	
  6695                           	
  6696  050F                     l10076:	
  6697  050F  084D               	movf	(scale@scl),w
  6698  0510  3A80               	xorlw	80h
  6699  0511  3E75               	addlw	-((0Bh)^80h)
  6700  0512  1C03               	skipc
  6701  0513  2D15               	goto	u4801
  6702  0514  2D16               	goto	u4800
  6703  0515                     u4801:
  6704  0515  2D83               	goto	l10082
  6705  0516                     u4800:
  6706                           	line	429
  6707                           	
  6708  0516                     l10078:	
  6709  0516  3003               	movlw	(03h)
  6710  0517  00C8               	movwf	(??_scale+0)+0
  6711  0518  0848               	movf	(??_scale+0)+0,w
  6712  0519  00A4               	movwf	(?___bmul)
  6713  051A  084D               	movf	(scale@scl),w
  6714  051B  00F2               	movwf	0+(?___awmod)+02h
  6715  051C  01F3               	clrf	1+(?___awmod)+02h
  6716  051D  1BF2               	btfsc	0+(?___awmod)+02h,7
  6717  051E  03F3               	decf	1+(?___awmod)+02h,f
  6718  051F  300A               	movlw	low(0Ah)
  6719  0520  00F0               	movwf	(?___awmod)
  6720  0521  3000               	movlw	high(0Ah)
  6721  0522  00F1               	movwf	((?___awmod))+1
  6722  0523  160A  158A  25CF   	fcall	___awmod
              120A  118A         
  6723  0528  0870               	movf	(0+(?___awmod)),w
  6724  0529  120A  118A  2003   	fcall	___bmul
              120A  118A         
  6725  052E  3E29               	addlw	low((__npowers_-__stringbase))
  6726  052F  0084               	movwf	fsr0
  6727  0530  160A  118A  200A   	fcall	stringdir
              120A  118A         
  6728  0535  1283               	bcf	status, 5	;RP0=0, select bank0
  6729  0536  1303               	bcf	status, 6	;RP1=0, select bank0
  6730  0537  00B5               	movwf	(?___ftmul)
  6731  0538  160A  118A  200A   	fcall	stringdir
              120A  118A         
  6732  053D  00B6               	movwf	(?___ftmul+1)
  6733  053E  160A  118A  200A   	fcall	stringdir
              120A  118A         
  6734  0543  00B7               	movwf	(?___ftmul+2)
  6735  0544  3003               	movlw	(03h)
  6736  0545  00C9               	movwf	(??_scale+1)+0
  6737  0546  0849               	movf	(??_scale+1)+0,w
  6738  0547  00A4               	movwf	(?___bmul)
  6739  0548  300A               	movlw	low(0Ah)
  6740  0549  00F7               	movwf	(?___awdiv)
  6741  054A  3000               	movlw	high(0Ah)
  6742  054B  00F8               	movwf	((?___awdiv))+1
  6743  054C  084D               	movf	(scale@scl),w
  6744  054D  00F9               	movwf	0+(?___awdiv)+02h
  6745  054E  01FA               	clrf	1+(?___awdiv)+02h
  6746  054F  1BF9               	btfsc	0+(?___awdiv)+02h,7
  6747  0550  03FA               	decf	1+(?___awdiv)+02h,f
  6748  0551  160A  158A  270F   	fcall	___awdiv
              120A  118A         
  6749  0556  0877               	movf	(0+(?___awdiv)),w
  6750  0557  3E09               	addlw	09h
  6751  0558  120A  118A  2003   	fcall	___bmul
              120A  118A         
  6752  055D  3E29               	addlw	low((__npowers_-__stringbase))
  6753  055E  0084               	movwf	fsr0
  6754  055F  160A  118A  200A   	fcall	stringdir
              120A  118A         
  6755  0564  1283               	bcf	status, 5	;RP0=0, select bank0
  6756  0565  1303               	bcf	status, 6	;RP1=0, select bank0
  6757  0566  00B8               	movwf	0+(?___ftmul)+03h
  6758  0567  160A  118A  200A   	fcall	stringdir
              120A  118A         
  6759  056C  00B9               	movwf	1+(?___ftmul)+03h
  6760  056D  160A  118A  200A   	fcall	stringdir
              120A  118A         
  6761  0572  00BA               	movwf	2+(?___ftmul)+03h
  6762  0573  120A  118A  2709   	fcall	___ftmul
              120A  118A         
  6763  0578  1283               	bcf	status, 5	;RP0=0, select bank0
  6764  0579  1303               	bcf	status, 6	;RP1=0, select bank0
  6765  057A  0835               	movf	(0+(?___ftmul)),w
  6766  057B  00C5               	movwf	(?_scale)
  6767  057C  0836               	movf	(1+(?___ftmul)),w
  6768  057D  00C6               	movwf	(?_scale+1)
  6769  057E  0837               	movf	(2+(?___ftmul)),w
  6770  057F  00C7               	movwf	(?_scale+2)
  6771  0580  2EFF               	goto	l4853
  6772                           	
  6773  0581                     l10080:	
  6774  0581  2EFF               	goto	l4853
  6775                           	
  6776  0582                     l4855:	
  6777  0582  2D83               	goto	l10082
  6778                           	line	430
  6779                           	
  6780  0583                     l4854:	
  6781                           	
  6782  0583                     l10082:	
  6783  0583  3003               	movlw	(03h)
  6784  0584  00C8               	movwf	(??_scale+0)+0
  6785  0585  0848               	movf	(??_scale+0)+0,w
  6786  0586  00A4               	movwf	(?___bmul)
  6787  0587  084D               	movf	(scale@scl),w
  6788  0588  120A  118A  2003   	fcall	___bmul
              120A  118A         
  6789  058D  3E29               	addlw	low((__npowers_-__stringbase))
  6790  058E  0084               	movwf	fsr0
  6791  058F  160A  118A  200A   	fcall	stringdir
              120A  118A         
  6792  0594  1283               	bcf	status, 5	;RP0=0, select bank0
  6793  0595  1303               	bcf	status, 6	;RP1=0, select bank0
  6794  0596  00C5               	movwf	(?_scale)
  6795  0597  160A  118A  200A   	fcall	stringdir
              120A  118A         
  6796  059C  00C6               	movwf	(?_scale+1)
  6797  059D  160A  118A  200A   	fcall	stringdir
              120A  118A         
  6798  05A2  00C7               	movwf	(?_scale+2)
  6799  05A3  2EFF               	goto	l4853
  6800                           	
  6801  05A4                     l10084:	
  6802  05A4  2EFF               	goto	l4853
  6803                           	line	431
  6804                           	
  6805  05A5                     l4851:	
  6806                           	line	432
  6807                           	
  6808  05A5                     l10086:	
  6809  05A5  084D               	movf	(scale@scl),w
  6810  05A6  3A80               	xorlw	80h
  6811  05A7  3E12               	addlw	-((06Eh)^80h)
  6812  05A8  1C03               	skipc
  6813  05A9  2DAB               	goto	u4811
  6814  05AA  2DAC               	goto	u4810
  6815  05AB                     u4811:
  6816  05AB  2E6A               	goto	l10094
  6817  05AC                     u4810:
  6818                           	line	433
  6819                           	
  6820  05AC                     l10088:	
  6821  05AC  3003               	movlw	(03h)
  6822  05AD  00C8               	movwf	(??_scale+0)+0
  6823  05AE  0848               	movf	(??_scale+0)+0,w
  6824  05AF  00A4               	movwf	(?___bmul)
  6825  05B0  300A               	movlw	low(0Ah)
  6826  05B1  00F7               	movwf	(?___awdiv)
  6827  05B2  3000               	movlw	high(0Ah)
  6828  05B3  00F8               	movwf	((?___awdiv))+1
  6829  05B4  084D               	movf	(scale@scl),w
  6830  05B5  00F2               	movwf	0+(?___awmod)+02h
  6831  05B6  01F3               	clrf	1+(?___awmod)+02h
  6832  05B7  1BF2               	btfsc	0+(?___awmod)+02h,7
  6833  05B8  03F3               	decf	1+(?___awmod)+02h,f
  6834  05B9  3064               	movlw	low(064h)
  6835  05BA  00F0               	movwf	(?___awmod)
  6836  05BB  3000               	movlw	high(064h)
  6837  05BC  00F1               	movwf	((?___awmod))+1
  6838  05BD  160A  158A  25CF   	fcall	___awmod
              120A  118A         
  6839  05C2  0871               	movf	(1+(?___awmod)),w
  6840  05C3  01FA               	clrf	1+(?___awdiv)+02h
  6841  05C4  07FA               	addwf	1+(?___awdiv)+02h
  6842  05C5  0870               	movf	(0+(?___awmod)),w
  6843  05C6  01F9               	clrf	0+(?___awdiv)+02h
  6844  05C7  07F9               	addwf	0+(?___awdiv)+02h
  6845                           
  6846  05C8  160A  158A  270F   	fcall	___awdiv
              120A  118A         
  6847  05CD  0877               	movf	(0+(?___awdiv)),w
  6848  05CE  3E09               	addlw	09h
  6849  05CF  120A  118A  2003   	fcall	___bmul
              120A  118A         
  6850  05D4  3E50               	addlw	low((__powers_-__stringbase))
  6851  05D5  0084               	movwf	fsr0
  6852  05D6  160A  118A  200A   	fcall	stringdir
              120A  118A         
  6853  05DB  1283               	bcf	status, 5	;RP0=0, select bank0
  6854  05DC  1303               	bcf	status, 6	;RP1=0, select bank0
  6855  05DD  00B5               	movwf	(?___ftmul)
  6856  05DE  160A  118A  200A   	fcall	stringdir
              120A  118A         
  6857  05E3  00B6               	movwf	(?___ftmul+1)
  6858  05E4  160A  118A  200A   	fcall	stringdir
              120A  118A         
  6859  05E9  00B7               	movwf	(?___ftmul+2)
  6860  05EA  3003               	movlw	(03h)
  6861  05EB  00C9               	movwf	(??_scale+1)+0
  6862  05EC  0849               	movf	(??_scale+1)+0,w
  6863  05ED  00A4               	movwf	(?___bmul)
  6864  05EE  3064               	movlw	low(064h)
  6865  05EF  00F7               	movwf	(?___awdiv)
  6866  05F0  3000               	movlw	high(064h)
  6867  05F1  00F8               	movwf	((?___awdiv))+1
  6868  05F2  084D               	movf	(scale@scl),w
  6869  05F3  00F9               	movwf	0+(?___awdiv)+02h
  6870  05F4  01FA               	clrf	1+(?___awdiv)+02h
  6871  05F5  1BF9               	btfsc	0+(?___awdiv)+02h,7
  6872  05F6  03FA               	decf	1+(?___awdiv)+02h,f
  6873  05F7  160A  158A  270F   	fcall	___awdiv
              120A  118A         
  6874  05FC  0877               	movf	(0+(?___awdiv)),w
  6875  05FD  3E12               	addlw	012h
  6876  05FE  120A  118A  2003   	fcall	___bmul
              120A  118A         
  6877  0603  3E50               	addlw	low((__powers_-__stringbase))
  6878  0604  0084               	movwf	fsr0
  6879  0605  160A  118A  200A   	fcall	stringdir
              120A  118A         
  6880  060A  1283               	bcf	status, 5	;RP0=0, select bank0
  6881  060B  1303               	bcf	status, 6	;RP1=0, select bank0
  6882  060C  00B8               	movwf	0+(?___ftmul)+03h
  6883  060D  160A  118A  200A   	fcall	stringdir
              120A  118A         
  6884  0612  00B9               	movwf	1+(?___ftmul)+03h
  6885  0613  160A  118A  200A   	fcall	stringdir
              120A  118A         
  6886  0618  00BA               	movwf	2+(?___ftmul)+03h
  6887  0619  120A  118A  2709   	fcall	___ftmul
              120A  118A         
  6888  061E  1283               	bcf	status, 5	;RP0=0, select bank0
  6889  061F  1303               	bcf	status, 6	;RP1=0, select bank0
  6890  0620  0835               	movf	(0+(?___ftmul)),w
  6891  0621  00CA               	movwf	(_scale$6158)
  6892  0622  0836               	movf	(1+(?___ftmul)),w
  6893  0623  00CB               	movwf	(_scale$6158+1)
  6894  0624  0837               	movf	(2+(?___ftmul)),w
  6895  0625  00CC               	movwf	(_scale$6158+2)
  6896  0626  3003               	movlw	(03h)
  6897  0627  00C8               	movwf	(??_scale+0)+0
  6898  0628  0848               	movf	(??_scale+0)+0,w
  6899  0629  00A4               	movwf	(?___bmul)
  6900  062A  084D               	movf	(scale@scl),w
  6901  062B  00F2               	movwf	0+(?___awmod)+02h
  6902  062C  01F3               	clrf	1+(?___awmod)+02h
  6903  062D  1BF2               	btfsc	0+(?___awmod)+02h,7
  6904  062E  03F3               	decf	1+(?___awmod)+02h,f
  6905  062F  300A               	movlw	low(0Ah)
  6906  0630  00F0               	movwf	(?___awmod)
  6907  0631  3000               	movlw	high(0Ah)
  6908  0632  00F1               	movwf	((?___awmod))+1
  6909  0633  160A  158A  25CF   	fcall	___awmod
              120A  118A         
  6910  0638  0870               	movf	(0+(?___awmod)),w
  6911  0639  120A  118A  2003   	fcall	___bmul
              120A  118A         
  6912  063E  3E50               	addlw	low((__powers_-__stringbase))
  6913  063F  0084               	movwf	fsr0
  6914  0640  160A  118A  200A   	fcall	stringdir
              120A  118A         
  6915  0645  1283               	bcf	status, 5	;RP0=0, select bank0
  6916  0646  1303               	bcf	status, 6	;RP1=0, select bank0
  6917  0647  00B5               	movwf	(?___ftmul)
  6918  0648  160A  118A  200A   	fcall	stringdir
              120A  118A         
  6919  064D  00B6               	movwf	(?___ftmul+1)
  6920  064E  160A  118A  200A   	fcall	stringdir
              120A  118A         
  6921  0653  00B7               	movwf	(?___ftmul+2)
  6922  0654  084A               	movf	(_scale$6158),w
  6923  0655  00B8               	movwf	0+(?___ftmul)+03h
  6924  0656  084B               	movf	(_scale$6158+1),w
  6925  0657  00B9               	movwf	1+(?___ftmul)+03h
  6926  0658  084C               	movf	(_scale$6158+2),w
  6927  0659  00BA               	movwf	2+(?___ftmul)+03h
  6928  065A  120A  118A  2709   	fcall	___ftmul
              120A  118A         
  6929  065F  1283               	bcf	status, 5	;RP0=0, select bank0
  6930  0660  1303               	bcf	status, 6	;RP1=0, select bank0
  6931  0661  0835               	movf	(0+(?___ftmul)),w
  6932  0662  00C5               	movwf	(?_scale)
  6933  0663  0836               	movf	(1+(?___ftmul)),w
  6934  0664  00C6               	movwf	(?_scale+1)
  6935  0665  0837               	movf	(2+(?___ftmul)),w
  6936  0666  00C7               	movwf	(?_scale+2)
  6937  0667  2EFF               	goto	l4853
  6938                           	
  6939  0668                     l10090:	
  6940  0668  2EFF               	goto	l4853
  6941                           	
  6942  0669                     l10092:	
  6943  0669  2EDE               	goto	l10100
  6944                           	line	434
  6945                           	
  6946  066A                     l4856:	
  6947                           	
  6948  066A                     l10094:	
  6949  066A  084D               	movf	(scale@scl),w
  6950  066B  3A80               	xorlw	80h
  6951  066C  3E75               	addlw	-((0Bh)^80h)
  6952  066D  1C03               	skipc
  6953  066E  2E70               	goto	u4821
  6954  066F  2E71               	goto	u4820
  6955  0670                     u4821:
  6956  0670  2EDE               	goto	l10100
  6957  0671                     u4820:
  6958                           	line	435
  6959                           	
  6960  0671                     l10096:	
  6961  0671  3003               	movlw	(03h)
  6962  0672  00C8               	movwf	(??_scale+0)+0
  6963  0673  0848               	movf	(??_scale+0)+0,w
  6964  0674  00A4               	movwf	(?___bmul)
  6965  0675  084D               	movf	(scale@scl),w
  6966  0676  00F2               	movwf	0+(?___awmod)+02h
  6967  0677  01F3               	clrf	1+(?___awmod)+02h
  6968  0678  1BF2               	btfsc	0+(?___awmod)+02h,7
  6969  0679  03F3               	decf	1+(?___awmod)+02h,f
  6970  067A  300A               	movlw	low(0Ah)
  6971  067B  00F0               	movwf	(?___awmod)
  6972  067C  3000               	movlw	high(0Ah)
  6973  067D  00F1               	movwf	((?___awmod))+1
  6974  067E  160A  158A  25CF   	fcall	___awmod
              120A  118A         
  6975  0683  0870               	movf	(0+(?___awmod)),w
  6976  0684  120A  118A  2003   	fcall	___bmul
              120A  118A         
  6977  0689  3E50               	addlw	low((__powers_-__stringbase))
  6978  068A  0084               	movwf	fsr0
  6979  068B  160A  118A  200A   	fcall	stringdir
              120A  118A         
  6980  0690  1283               	bcf	status, 5	;RP0=0, select bank0
  6981  0691  1303               	bcf	status, 6	;RP1=0, select bank0
  6982  0692  00B5               	movwf	(?___ftmul)
  6983  0693  160A  118A  200A   	fcall	stringdir
              120A  118A         
  6984  0698  00B6               	movwf	(?___ftmul+1)
  6985  0699  160A  118A  200A   	fcall	stringdir
              120A  118A         
  6986  069E  00B7               	movwf	(?___ftmul+2)
  6987  069F  3003               	movlw	(03h)
  6988  06A0  00C9               	movwf	(??_scale+1)+0
  6989  06A1  0849               	movf	(??_scale+1)+0,w
  6990  06A2  00A4               	movwf	(?___bmul)
  6991  06A3  300A               	movlw	low(0Ah)
  6992  06A4  00F7               	movwf	(?___awdiv)
  6993  06A5  3000               	movlw	high(0Ah)
  6994  06A6  00F8               	movwf	((?___awdiv))+1
  6995  06A7  084D               	movf	(scale@scl),w
  6996  06A8  00F9               	movwf	0+(?___awdiv)+02h
  6997  06A9  01FA               	clrf	1+(?___awdiv)+02h
  6998  06AA  1BF9               	btfsc	0+(?___awdiv)+02h,7
  6999  06AB  03FA               	decf	1+(?___awdiv)+02h,f
  7000  06AC  160A  158A  270F   	fcall	___awdiv
              120A  118A         
  7001  06B1  0877               	movf	(0+(?___awdiv)),w
  7002  06B2  3E09               	addlw	09h
  7003  06B3  120A  118A  2003   	fcall	___bmul
              120A  118A         
  7004  06B8  3E50               	addlw	low((__powers_-__stringbase))
  7005  06B9  0084               	movwf	fsr0
  7006  06BA  160A  118A  200A   	fcall	stringdir
              120A  118A         
  7007  06BF  1283               	bcf	status, 5	;RP0=0, select bank0
  7008  06C0  1303               	bcf	status, 6	;RP1=0, select bank0
  7009  06C1  00B8               	movwf	0+(?___ftmul)+03h
  7010  06C2  160A  118A  200A   	fcall	stringdir
              120A  118A         
  7011  06C7  00B9               	movwf	1+(?___ftmul)+03h
  7012  06C8  160A  118A  200A   	fcall	stringdir
              120A  118A         
  7013  06CD  00BA               	movwf	2+(?___ftmul)+03h
  7014  06CE  120A  118A  2709   	fcall	___ftmul
              120A  118A         
  7015  06D3  1283               	bcf	status, 5	;RP0=0, select bank0
  7016  06D4  1303               	bcf	status, 6	;RP1=0, select bank0
  7017  06D5  0835               	movf	(0+(?___ftmul)),w
  7018  06D6  00C5               	movwf	(?_scale)
  7019  06D7  0836               	movf	(1+(?___ftmul)),w
  7020  06D8  00C6               	movwf	(?_scale+1)
  7021  06D9  0837               	movf	(2+(?___ftmul)),w
  7022  06DA  00C7               	movwf	(?_scale+2)
  7023  06DB  2EFF               	goto	l4853
  7024                           	
  7025  06DC                     l10098:	
  7026  06DC  2EFF               	goto	l4853
  7027                           	
  7028  06DD                     l4858:	
  7029  06DD  2EDE               	goto	l10100
  7030                           	line	436
  7031                           	
  7032  06DE                     l4857:	
  7033                           	
  7034  06DE                     l10100:	
  7035  06DE  3003               	movlw	(03h)
  7036  06DF  00C8               	movwf	(??_scale+0)+0
  7037  06E0  0848               	movf	(??_scale+0)+0,w
  7038  06E1  00A4               	movwf	(?___bmul)
  7039  06E2  084D               	movf	(scale@scl),w
  7040  06E3  120A  118A  2003   	fcall	___bmul
              120A  118A         
  7041  06E8  3E50               	addlw	low((__powers_-__stringbase))
  7042  06E9  0084               	movwf	fsr0
  7043  06EA  160A  118A  200A   	fcall	stringdir
              120A  118A         
  7044  06EF  1283               	bcf	status, 5	;RP0=0, select bank0
  7045  06F0  1303               	bcf	status, 6	;RP1=0, select bank0
  7046  06F1  00C5               	movwf	(?_scale)
  7047  06F2  160A  118A  200A   	fcall	stringdir
              120A  118A         
  7048  06F7  00C6               	movwf	(?_scale+1)
  7049  06F8  160A  118A  200A   	fcall	stringdir
              120A  118A         
  7050  06FD  00C7               	movwf	(?_scale+2)
  7051  06FE  2EFF               	goto	l4853
  7052                           	
  7053  06FF                     l10102:	
  7054                           	line	437
  7055                           	
  7056  06FF                     l4853:	
  7057  06FF  0008               	return
  7058                           	opt stack 0
  7059                           GLOBAL	__end_of_scale
  7060  0700                     	__end_of_scale:
  7061 ;; =============== function _scale ends ============
  7062                           
  7063                           	signat	_scale,4219
  7064                           	global	_fround
  7065                           psect	text728,local,class=CODE,delta=2
  7066                           global __ptext728
  7067  004F                     __ptext728:
  7068                           
  7069 ;; *************** function _fround *****************
  7070 ;; Defined at:
  7071 ;;		line 406 in file "C:\Program Files (x86)\HI-TECH Software\PICC\9.82\lib\doprnt.c"
  7072 ;; Parameters:    Size  Location     Type
  7073 ;;  prec            1    wreg     unsigned char 
  7074 ;; Auto vars:     Size  Location     Type
  7075 ;;  prec            1   65[BANK0 ] unsigned char 
  7076 ;; Return value:  Size  Location     Type
  7077 ;;                  3   50[BANK0 ] unsigned char 
  7078 ;; Registers used:
  7079 ;;		wreg, fsr0l, fsr0h, status,2, status,0, pclath, cstack
  7080 ;; Tracked objects:
  7081 ;;		On entry : 0/0
  7082 ;;		On exit  : 0/0
  7083 ;;		Unchanged: 0/0
  7084 ;; Data sizes:     COMMON   BANK0   BANK1   BANK3   BANK2
  7085 ;;      Params:         0       3       0       0       0
  7086 ;;      Locals:         0       7       0       0       0
  7087 ;;      Temps:          0       6       0       0       0
  7088 ;;      Totals:         0      16       0       0       0
  7089 ;;Total ram usage:       16 bytes
  7090 ;; Hardware stack levels used:    1
  7091 ;; Hardware stack levels required when called:    2
  7092 ;; This function calls:
  7093 ;;		___awmod
  7094 ;;		___bmul
  7095 ;;		___awdiv
  7096 ;;		___ftmul
  7097 ;; This function is called by:
  7098 ;;		__doprnt
  7099 ;; This function uses a non-reentrant model
  7100 ;;
  7101                           psect	text728
  7102                           	file	"C:\Program Files (x86)\HI-TECH Software\PICC\9.82\sources\doprnt.c"
  7103                           	line	406
  7104                           	global	__size_of_fround
  7105  01AB                     	__size_of_fround	equ	__end_of_fround-_fround
  7106                           	
  7107  004F                     _fround:	
  7108                           	opt	stack 3
  7109                           ; Regs used in _fround: [wreg-fsr0h+status,2+status,0+pclath+cstack]
  7110                           ;fround@prec stored from wreg
  7111                           	line	409
  7112  004F  1283               	bcf	status, 5	;RP0=0, select bank0
  7113  0050  1303               	bcf	status, 6	;RP1=0, select bank0
  7114  0051  00E1               	movwf	(fround@prec)
  7115                           	
  7116  0052                     l10042:	
  7117  0052  306E               	movlw	(06Eh)
  7118  0053  0261               	subwf	(fround@prec),w
  7119  0054  1C03               	skipc
  7120  0055  2857               	goto	u4761
  7121  0056  2858               	goto	u4760
  7122  0057                     u4761:
  7123  0057  2935               	goto	l10052
  7124  0058                     u4760:
  7125                           	line	410
  7126                           	
  7127  0058                     l10044:	
  7128  0058  3003               	movlw	(03h)
  7129  0059  00D5               	movwf	(??_fround+0)+0
  7130  005A  0855               	movf	(??_fround+0)+0,w
  7131  005B  00A4               	movwf	(?___bmul)
  7132  005C  300A               	movlw	low(0Ah)
  7133  005D  00F7               	movwf	(?___awdiv)
  7134  005E  3000               	movlw	high(0Ah)
  7135  005F  00F8               	movwf	((?___awdiv))+1
  7136  0060  0861               	movf	(fround@prec),w
  7137  0061  00D6               	movwf	(??_fround+1)+0
  7138  0062  01D7               	clrf	(??_fround+1)+0+1
  7139  0063  0856               	movf	0+(??_fround+1)+0,w
  7140  0064  00F2               	movwf	0+(?___awmod)+02h
  7141  0065  0857               	movf	1+(??_fround+1)+0,w
  7142  0066  00F3               	movwf	1+(?___awmod)+02h
  7143  0067  3064               	movlw	low(064h)
  7144  0068  00F0               	movwf	(?___awmod)
  7145  0069  3000               	movlw	high(064h)
  7146  006A  00F1               	movwf	((?___awmod))+1
  7147  006B  160A  158A  25CF   	fcall	___awmod
              120A  118A         
  7148  0070  0871               	movf	(1+(?___awmod)),w
  7149  0071  01FA               	clrf	1+(?___awdiv)+02h
  7150  0072  07FA               	addwf	1+(?___awdiv)+02h
  7151  0073  0870               	movf	(0+(?___awmod)),w
  7152  0074  01F9               	clrf	0+(?___awdiv)+02h
  7153  0075  07F9               	addwf	0+(?___awdiv)+02h
  7154                           
  7155  0076  160A  158A  270F   	fcall	___awdiv
              120A  118A         
  7156  007B  0877               	movf	(0+(?___awdiv)),w
  7157  007C  3E09               	addlw	09h
  7158  007D  120A  118A  2003   	fcall	___bmul
              120A  118A         
  7159  0082  3E29               	addlw	low((__npowers_-__stringbase))
  7160  0083  0084               	movwf	fsr0
  7161  0084  160A  118A  200A   	fcall	stringdir
              120A  118A         
  7162  0089  1283               	bcf	status, 5	;RP0=0, select bank0
  7163  008A  1303               	bcf	status, 6	;RP1=0, select bank0
  7164  008B  00B5               	movwf	(?___ftmul)
  7165  008C  160A  118A  200A   	fcall	stringdir
              120A  118A         
  7166  0091  00B6               	movwf	(?___ftmul+1)
  7167  0092  160A  118A  200A   	fcall	stringdir
              120A  118A         
  7168  0097  00B7               	movwf	(?___ftmul+2)
  7169  0098  3003               	movlw	(03h)
  7170  0099  00D8               	movwf	(??_fround+3)+0
  7171  009A  0858               	movf	(??_fround+3)+0,w
  7172  009B  00A4               	movwf	(?___bmul)
  7173  009C  3064               	movlw	low(064h)
  7174  009D  00F7               	movwf	(?___awdiv)
  7175  009E  3000               	movlw	high(064h)
  7176  009F  00F8               	movwf	((?___awdiv))+1
  7177  00A0  0861               	movf	(fround@prec),w
  7178  00A1  00D9               	movwf	(??_fround+4)+0
  7179  00A2  01DA               	clrf	(??_fround+4)+0+1
  7180  00A3  0859               	movf	0+(??_fround+4)+0,w
  7181  00A4  00F9               	movwf	0+(?___awdiv)+02h
  7182  00A5  085A               	movf	1+(??_fround+4)+0,w
  7183  00A6  00FA               	movwf	1+(?___awdiv)+02h
  7184  00A7  160A  158A  270F   	fcall	___awdiv
              120A  118A         
  7185  00AC  0877               	movf	(0+(?___awdiv)),w
  7186  00AD  3E12               	addlw	012h
  7187  00AE  120A  118A  2003   	fcall	___bmul
              120A  118A         
  7188  00B3  3E29               	addlw	low((__npowers_-__stringbase))
  7189  00B4  0084               	movwf	fsr0
  7190  00B5  160A  118A  200A   	fcall	stringdir
              120A  118A         
  7191  00BA  1283               	bcf	status, 5	;RP0=0, select bank0
  7192  00BB  1303               	bcf	status, 6	;RP1=0, select bank0
  7193  00BC  00B8               	movwf	0+(?___ftmul)+03h
  7194  00BD  160A  118A  200A   	fcall	stringdir
              120A  118A         
  7195  00C2  00B9               	movwf	1+(?___ftmul)+03h
  7196  00C3  160A  118A  200A   	fcall	stringdir
              120A  118A         
  7197  00C8  00BA               	movwf	2+(?___ftmul)+03h
  7198  00C9  120A  118A  2709   	fcall	___ftmul
              120A  118A         
  7199  00CE  1283               	bcf	status, 5	;RP0=0, select bank0
  7200  00CF  1303               	bcf	status, 6	;RP1=0, select bank0
  7201  00D0  0835               	movf	(0+(?___ftmul)),w
  7202  00D1  00DE               	movwf	(_fround$6156)
  7203  00D2  0836               	movf	(1+(?___ftmul)),w
  7204  00D3  00DF               	movwf	(_fround$6156+1)
  7205  00D4  0837               	movf	(2+(?___ftmul)),w
  7206  00D5  00E0               	movwf	(_fround$6156+2)
  7207  00D6  3003               	movlw	(03h)
  7208  00D7  00D5               	movwf	(??_fround+0)+0
  7209  00D8  0855               	movf	(??_fround+0)+0,w
  7210  00D9  00A4               	movwf	(?___bmul)
  7211  00DA  0861               	movf	(fround@prec),w
  7212  00DB  00D6               	movwf	(??_fround+1)+0
  7213  00DC  01D7               	clrf	(??_fround+1)+0+1
  7214  00DD  0856               	movf	0+(??_fround+1)+0,w
  7215  00DE  00F2               	movwf	0+(?___awmod)+02h
  7216  00DF  0857               	movf	1+(??_fround+1)+0,w
  7217  00E0  00F3               	movwf	1+(?___awmod)+02h
  7218  00E1  300A               	movlw	low(0Ah)
  7219  00E2  00F0               	movwf	(?___awmod)
  7220  00E3  3000               	movlw	high(0Ah)
  7221  00E4  00F1               	movwf	((?___awmod))+1
  7222  00E5  160A  158A  25CF   	fcall	___awmod
              120A  118A         
  7223  00EA  0870               	movf	(0+(?___awmod)),w
  7224  00EB  120A  118A  2003   	fcall	___bmul
              120A  118A         
  7225  00F0  3E29               	addlw	low((__npowers_-__stringbase))
  7226  00F1  0084               	movwf	fsr0
  7227  00F2  160A  118A  200A   	fcall	stringdir
              120A  118A         
  7228  00F7  1283               	bcf	status, 5	;RP0=0, select bank0
  7229  00F8  1303               	bcf	status, 6	;RP1=0, select bank0
  7230  00F9  00B5               	movwf	(?___ftmul)
  7231  00FA  160A  118A  200A   	fcall	stringdir
              120A  118A         
  7232  00FF  00B6               	movwf	(?___ftmul+1)
  7233  0100  160A  118A  200A   	fcall	stringdir
              120A  118A         
  7234  0105  00B7               	movwf	(?___ftmul+2)
  7235  0106  085E               	movf	(_fround$6156),w
  7236  0107  00B8               	movwf	0+(?___ftmul)+03h
  7237  0108  085F               	movf	(_fround$6156+1),w
  7238  0109  00B9               	movwf	1+(?___ftmul)+03h
  7239  010A  0860               	movf	(_fround$6156+2),w
  7240  010B  00BA               	movwf	2+(?___ftmul)+03h
  7241  010C  120A  118A  2709   	fcall	___ftmul
              120A  118A         
  7242  0111  1283               	bcf	status, 5	;RP0=0, select bank0
  7243  0112  1303               	bcf	status, 6	;RP1=0, select bank0
  7244  0113  0835               	movf	(0+(?___ftmul)),w
  7245  0114  00DB               	movwf	(_fround$6157)
  7246  0115  0836               	movf	(1+(?___ftmul)),w
  7247  0116  00DC               	movwf	(_fround$6157+1)
  7248  0117  0837               	movf	(2+(?___ftmul)),w
  7249  0118  00DD               	movwf	(_fround$6157+2)
  7250                           	
  7251  0119                     l10046:	
  7252  0119  3000               	movlw	0x0
  7253  011A  00B5               	movwf	(?___ftmul)
  7254  011B  3000               	movlw	0x0
  7255  011C  00B6               	movwf	(?___ftmul+1)
  7256  011D  303F               	movlw	0x3f
  7257  011E  00B7               	movwf	(?___ftmul+2)
  7258  011F  085B               	movf	(_fround$6157),w
  7259  0120  00B8               	movwf	0+(?___ftmul)+03h
  7260  0121  085C               	movf	(_fround$6157+1),w
  7261  0122  00B9               	movwf	1+(?___ftmul)+03h
  7262  0123  085D               	movf	(_fround$6157+2),w
  7263  0124  00BA               	movwf	2+(?___ftmul)+03h
  7264  0125  120A  118A  2709   	fcall	___ftmul
              120A  118A         
  7265  012A  1283               	bcf	status, 5	;RP0=0, select bank0
  7266  012B  1303               	bcf	status, 6	;RP1=0, select bank0
  7267  012C  0835               	movf	(0+(?___ftmul)),w
  7268  012D  00D2               	movwf	(?_fround)
  7269  012E  0836               	movf	(1+(?___ftmul)),w
  7270  012F  00D3               	movwf	(?_fround+1)
  7271  0130  0837               	movf	(2+(?___ftmul)),w
  7272  0131  00D4               	movwf	(?_fround+2)
  7273  0132  29F9               	goto	l4846
  7274                           	
  7275  0133                     l10048:	
  7276  0133  29F9               	goto	l4846
  7277                           	
  7278  0134                     l10050:	
  7279  0134  29C5               	goto	l10060
  7280                           	line	411
  7281                           	
  7282  0135                     l4845:	
  7283                           	
  7284  0135                     l10052:	
  7285  0135  300B               	movlw	(0Bh)
  7286  0136  0261               	subwf	(fround@prec),w
  7287  0137  1C03               	skipc
  7288  0138  293A               	goto	u4771
  7289  0139  293B               	goto	u4770
  7290  013A                     u4771:
  7291  013A  29C5               	goto	l10060
  7292  013B                     u4770:
  7293                           	line	412
  7294                           	
  7295  013B                     l10054:	
  7296  013B  3003               	movlw	(03h)
  7297  013C  00D5               	movwf	(??_fround+0)+0
  7298  013D  0855               	movf	(??_fround+0)+0,w
  7299  013E  00A4               	movwf	(?___bmul)
  7300  013F  0861               	movf	(fround@prec),w
  7301  0140  00D6               	movwf	(??_fround+1)+0
  7302  0141  01D7               	clrf	(??_fround+1)+0+1
  7303  0142  0856               	movf	0+(??_fround+1)+0,w
  7304  0143  00F2               	movwf	0+(?___awmod)+02h
  7305  0144  0857               	movf	1+(??_fround+1)+0,w
  7306  0145  00F3               	movwf	1+(?___awmod)+02h
  7307  0146  300A               	movlw	low(0Ah)
  7308  0147  00F0               	movwf	(?___awmod)
  7309  0148  3000               	movlw	high(0Ah)
  7310  0149  00F1               	movwf	((?___awmod))+1
  7311  014A  160A  158A  25CF   	fcall	___awmod
              120A  118A         
  7312  014F  0870               	movf	(0+(?___awmod)),w
  7313  0150  120A  118A  2003   	fcall	___bmul
              120A  118A         
  7314  0155  3E29               	addlw	low((__npowers_-__stringbase))
  7315  0156  0084               	movwf	fsr0
  7316  0157  160A  118A  200A   	fcall	stringdir
              120A  118A         
  7317  015C  1283               	bcf	status, 5	;RP0=0, select bank0
  7318  015D  1303               	bcf	status, 6	;RP1=0, select bank0
  7319  015E  00B5               	movwf	(?___ftmul)
  7320  015F  160A  118A  200A   	fcall	stringdir
              120A  118A         
  7321  0164  00B6               	movwf	(?___ftmul+1)
  7322  0165  160A  118A  200A   	fcall	stringdir
              120A  118A         
  7323  016A  00B7               	movwf	(?___ftmul+2)
  7324  016B  3003               	movlw	(03h)
  7325  016C  00D8               	movwf	(??_fround+3)+0
  7326  016D  0858               	movf	(??_fround+3)+0,w
  7327  016E  00A4               	movwf	(?___bmul)
  7328  016F  300A               	movlw	low(0Ah)
  7329  0170  00F7               	movwf	(?___awdiv)
  7330  0171  3000               	movlw	high(0Ah)
  7331  0172  00F8               	movwf	((?___awdiv))+1
  7332  0173  0861               	movf	(fround@prec),w
  7333  0174  00D9               	movwf	(??_fround+4)+0
  7334  0175  01DA               	clrf	(??_fround+4)+0+1
  7335  0176  0859               	movf	0+(??_fround+4)+0,w
  7336  0177  00F9               	movwf	0+(?___awdiv)+02h
  7337  0178  085A               	movf	1+(??_fround+4)+0,w
  7338  0179  00FA               	movwf	1+(?___awdiv)+02h
  7339  017A  160A  158A  270F   	fcall	___awdiv
              120A  118A         
  7340  017F  0877               	movf	(0+(?___awdiv)),w
  7341  0180  3E09               	addlw	09h
  7342  0181  120A  118A  2003   	fcall	___bmul
              120A  118A         
  7343  0186  3E29               	addlw	low((__npowers_-__stringbase))
  7344  0187  0084               	movwf	fsr0
  7345  0188  160A  118A  200A   	fcall	stringdir
              120A  118A         
  7346  018D  1283               	bcf	status, 5	;RP0=0, select bank0
  7347  018E  1303               	bcf	status, 6	;RP1=0, select bank0
  7348  018F  00B8               	movwf	0+(?___ftmul)+03h
  7349  0190  160A  118A  200A   	fcall	stringdir
              120A  118A         
  7350  0195  00B9               	movwf	1+(?___ftmul)+03h
  7351  0196  160A  118A  200A   	fcall	stringdir
              120A  118A         
  7352  019B  00BA               	movwf	2+(?___ftmul)+03h
  7353  019C  120A  118A  2709   	fcall	___ftmul
              120A  118A         
  7354  01A1  1283               	bcf	status, 5	;RP0=0, select bank0
  7355  01A2  1303               	bcf	status, 6	;RP1=0, select bank0
  7356  01A3  0835               	movf	(0+(?___ftmul)),w
  7357  01A4  00DE               	movwf	(_fround$6156)
  7358  01A5  0836               	movf	(1+(?___ftmul)),w
  7359  01A6  00DF               	movwf	(_fround$6156+1)
  7360  01A7  0837               	movf	(2+(?___ftmul)),w
  7361  01A8  00E0               	movwf	(_fround$6156+2)
  7362                           	
  7363  01A9                     l10056:	
  7364  01A9  3000               	movlw	0x0
  7365  01AA  00B5               	movwf	(?___ftmul)
  7366  01AB  3000               	movlw	0x0
  7367  01AC  00B6               	movwf	(?___ftmul+1)
  7368  01AD  303F               	movlw	0x3f
  7369  01AE  00B7               	movwf	(?___ftmul+2)
  7370  01AF  085E               	movf	(_fround$6156),w
  7371  01B0  00B8               	movwf	0+(?___ftmul)+03h
  7372  01B1  085F               	movf	(_fround$6156+1),w
  7373  01B2  00B9               	movwf	1+(?___ftmul)+03h
  7374  01B3  0860               	movf	(_fround$6156+2),w
  7375  01B4  00BA               	movwf	2+(?___ftmul)+03h
  7376  01B5  120A  118A  2709   	fcall	___ftmul
              120A  118A         
  7377  01BA  1283               	bcf	status, 5	;RP0=0, select bank0
  7378  01BB  1303               	bcf	status, 6	;RP1=0, select bank0
  7379  01BC  0835               	movf	(0+(?___ftmul)),w
  7380  01BD  00D2               	movwf	(?_fround)
  7381  01BE  0836               	movf	(1+(?___ftmul)),w
  7382  01BF  00D3               	movwf	(?_fround+1)
  7383  01C0  0837               	movf	(2+(?___ftmul)),w
  7384  01C1  00D4               	movwf	(?_fround+2)
  7385  01C2  29F9               	goto	l4846
  7386                           	
  7387  01C3                     l10058:	
  7388  01C3  29F9               	goto	l4846
  7389                           	
  7390  01C4                     l4848:	
  7391  01C4  29C5               	goto	l10060
  7392                           	line	413
  7393                           	
  7394  01C5                     l4847:	
  7395                           	
  7396  01C5                     l10060:	
  7397  01C5  3000               	movlw	0x0
  7398  01C6  00B5               	movwf	(?___ftmul)
  7399  01C7  3000               	movlw	0x0
  7400  01C8  00B6               	movwf	(?___ftmul+1)
  7401  01C9  303F               	movlw	0x3f
  7402  01CA  00B7               	movwf	(?___ftmul+2)
  7403  01CB  3003               	movlw	(03h)
  7404  01CC  00D5               	movwf	(??_fround+0)+0
  7405  01CD  0855               	movf	(??_fround+0)+0,w
  7406  01CE  00A4               	movwf	(?___bmul)
  7407  01CF  0861               	movf	(fround@prec),w
  7408  01D0  120A  118A  2003   	fcall	___bmul
              120A  118A         
  7409  01D5  3E29               	addlw	low((__npowers_-__stringbase))
  7410  01D6  0084               	movwf	fsr0
  7411  01D7  160A  118A  200A   	fcall	stringdir
              120A  118A         
  7412  01DC  1283               	bcf	status, 5	;RP0=0, select bank0
  7413  01DD  1303               	bcf	status, 6	;RP1=0, select bank0
  7414  01DE  00B8               	movwf	0+(?___ftmul)+03h
  7415  01DF  160A  118A  200A   	fcall	stringdir
              120A  118A         
  7416  01E4  00B9               	movwf	1+(?___ftmul)+03h
  7417  01E5  160A  118A  200A   	fcall	stringdir
              120A  118A         
  7418  01EA  00BA               	movwf	2+(?___ftmul)+03h
  7419  01EB  120A  118A  2709   	fcall	___ftmul
              120A  118A         
  7420  01F0  1283               	bcf	status, 5	;RP0=0, select bank0
  7421  01F1  1303               	bcf	status, 6	;RP1=0, select bank0
  7422  01F2  0835               	movf	(0+(?___ftmul)),w
  7423  01F3  00D2               	movwf	(?_fround)
  7424  01F4  0836               	movf	(1+(?___ftmul)),w
  7425  01F5  00D3               	movwf	(?_fround+1)
  7426  01F6  0837               	movf	(2+(?___ftmul)),w
  7427  01F7  00D4               	movwf	(?_fround+2)
  7428  01F8  29F9               	goto	l4846
  7429                           	
  7430  01F9                     l10062:	
  7431                           	line	414
  7432                           	
  7433  01F9                     l4846:	
  7434  01F9  0008               	return
  7435                           	opt stack 0
  7436                           GLOBAL	__end_of_fround
  7437  01FA                     	__end_of_fround:
  7438 ;; =============== function _fround ends ============
  7439                           
  7440                           	signat	_fround,4219
  7441                           	global	_lcd_write
  7442                           psect	text729,local,class=CODE,delta=2
  7443                           global __ptext729
  7444  1C77                     __ptext729:
  7445                           
  7446 ;; *************** function _lcd_write *****************
  7447 ;; Defined at:
  7448 ;;		line 34 in file "C:\PIC_PROGS\ProyectoMicros\PIC\lcd.c"
  7449 ;; Parameters:    Size  Location     Type
  7450 ;;  c               1    wreg     unsigned char 
  7451 ;; Auto vars:     Size  Location     Type
  7452 ;;  c               1    5[COMMON] unsigned char 
  7453 ;; Return value:  Size  Location     Type
  7454 ;;		None               void
  7455 ;; Registers used:
  7456 ;;		wreg, status,2, status,0, pclath, cstack
  7457 ;; Tracked objects:
  7458 ;;		On entry : 0/0
  7459 ;;		On exit  : 0/0
  7460 ;;		Unchanged: 0/0
  7461 ;; Data sizes:     COMMON   BANK0   BANK1   BANK3   BANK2
  7462 ;;      Params:         0       0       0       0       0
  7463 ;;      Locals:         1       0       0       0       0
  7464 ;;      Temps:          1       0       0       0       0
  7465 ;;      Totals:         2       0       0       0       0
  7466 ;;Total ram usage:        2 bytes
  7467 ;; Hardware stack levels used:    1
  7468 ;; Hardware stack levels required when called:    2
  7469 ;; This function calls:
  7470 ;;		_pause
  7471 ;; This function is called by:
  7472 ;;		_lcd_clear
  7473 ;;		_lcd_puts
  7474 ;;		_lcd_goto
  7475 ;;		_lcd_init
  7476 ;;		_lcd_putch
  7477 ;; This function uses a non-reentrant model
  7478 ;;
  7479                           psect	text729
  7480                           	file	"C:\PIC_PROGS\ProyectoMicros\PIC\lcd.c"
  7481                           	line	34
  7482                           	global	__size_of_lcd_write
  7483  001F                     	__size_of_lcd_write	equ	__end_of_lcd_write-_lcd_write
  7484                           	
  7485  1C77                     _lcd_write:	
  7486                           	opt	stack 4
  7487                           ; Regs used in _lcd_write: [wreg+status,2+status,0+pclath+cstack]
  7488                           ;lcd_write@c stored from wreg
  7489  1C77  00F5               	movwf	(lcd_write@c)
  7490                           	line	35
  7491                           	
  7492  1C78                     l10028:	
  7493                           ;lcd.c: 35: pause (1);
  7494  1C78  3001               	movlw	low(01h)
  7495  1C79  00F0               	movwf	(?_pause)
  7496  1C7A  3000               	movlw	high(01h)
  7497  1C7B  00F1               	movwf	((?_pause))+1
  7498  1C7C  160A  158A  245C   	fcall	_pause
              160A  158A         
  7499                           	line	36
  7500                           	
  7501  1C81                     l10030:	
  7502                           ;lcd.c: 36: PORTD = ( ( c >> 4 ) & 0x0F );
  7503  1C81  0875               	movf	(lcd_write@c),w
  7504  1C82  00F4               	movwf	(??_lcd_write+0)+0
  7505  1C83  3004               	movlw	04h
  7506  1C84                     u4755:
  7507  1C84  1003               	clrc
  7508  1C85  0CF4               	rrf	(??_lcd_write+0)+0,f
  7509  1C86  3EFF               	addlw	-1
  7510  1C87  1D03               	skipz
  7511  1C88  2C84               	goto	u4755
  7512  1C89  0874               	movf	0+(??_lcd_write+0)+0,w
  7513  1C8A  390F               	andlw	0Fh
  7514  1C8B  1283               	bcf	status, 5	;RP0=0, select bank0
  7515  1C8C  1303               	bcf	status, 6	;RP1=0, select bank0
  7516  1C8D  0088               	movwf	(8)	;volatile
  7517                           	line	37
  7518                           	
  7519  1C8E                     l10032:	
  7520                           ;lcd.c: 37: ((RA1 = 1),(RA1=0));
  7521  1C8E  1485               	bsf	(41/8),(41)&7
  7522                           	
  7523  1C8F                     l10034:	
  7524  1C8F  1085               	bcf	(41/8),(41)&7
  7525                           	line	38
  7526                           	
  7527  1C90                     l10036:	
  7528                           ;lcd.c: 38: PORTD = ( c & 0x0F );
  7529  1C90  0875               	movf	(lcd_write@c),w
  7530  1C91  390F               	andlw	0Fh
  7531  1C92  0088               	movwf	(8)	;volatile
  7532                           	line	39
  7533                           	
  7534  1C93                     l10038:	
  7535                           ;lcd.c: 39: ((RA1 = 1),(RA1=0));
  7536  1C93  1485               	bsf	(41/8),(41)&7
  7537                           	
  7538  1C94                     l10040:	
  7539  1C94  1085               	bcf	(41/8),(41)&7
  7540                           	line	41
  7541                           	
  7542  1C95                     l1905:	
  7543  1C95  0008               	return
  7544                           	opt stack 0
  7545                           GLOBAL	__end_of_lcd_write
  7546  1C96                     	__end_of_lcd_write:
  7547 ;; =============== function _lcd_write ends ============
  7548                           
  7549                           	signat	_lcd_write,4216
  7550                           	global	___lltoft
  7551                           psect	text730,local,class=CODE,delta=2
  7552                           global __ptext730
  7553  001D                     __ptext730:
  7554                           
  7555 ;; *************** function ___lltoft *****************
  7556 ;; Defined at:
  7557 ;;		line 36 in file "C:\Program Files (x86)\HI-TECH Software\PICC\9.82\sources\lltoft.c"
  7558 ;; Parameters:    Size  Location     Type
  7559 ;;  c               4    8[COMMON] unsigned long 
  7560 ;; Auto vars:     Size  Location     Type
  7561 ;;  exp             1   13[COMMON] unsigned char 
  7562 ;; Return value:  Size  Location     Type
  7563 ;;                  3    8[COMMON] float 
  7564 ;; Registers used:
  7565 ;;		wreg, status,2, status,0, pclath, cstack
  7566 ;; Tracked objects:
  7567 ;;		On entry : 0/0
  7568 ;;		On exit  : 0/0
  7569 ;;		Unchanged: 0/0
  7570 ;; Data sizes:     COMMON   BANK0   BANK1   BANK3   BANK2
  7571 ;;      Params:         4       0       0       0       0
  7572 ;;      Locals:         1       0       0       0       0
  7573 ;;      Temps:          1       0       0       0       0
  7574 ;;      Totals:         6       0       0       0       0
  7575 ;;Total ram usage:        6 bytes
  7576 ;; Hardware stack levels used:    1
  7577 ;; Hardware stack levels required when called:    1
  7578 ;; This function calls:
  7579 ;;		___ftpack
  7580 ;; This function is called by:
  7581 ;;		__doprnt
  7582 ;; This function uses a non-reentrant model
  7583 ;;
  7584                           psect	text730
  7585                           	file	"C:\Program Files (x86)\HI-TECH Software\PICC\9.82\sources\lltoft.c"
  7586                           	line	36
  7587                           	global	__size_of___lltoft
  7588  0032                     	__size_of___lltoft	equ	__end_of___lltoft-___lltoft
  7589                           	
  7590  001D                     ___lltoft:	
  7591                           	opt	stack 4
  7592                           ; Regs used in ___lltoft: [wreg+status,2+status,0+pclath+cstack]
  7593                           	line	38
  7594                           	
  7595  001D                     l10018:	
  7596  001D  308E               	movlw	(08Eh)
  7597  001E  00FC               	movwf	(??___lltoft+0)+0
  7598  001F  087C               	movf	(??___lltoft+0)+0,w
  7599  0020  00FD               	movwf	(___lltoft@exp)
  7600                           	line	41
  7601  0021  2830               	goto	l10022
  7602                           	
  7603  0022                     l6198:	
  7604                           	line	42
  7605                           	
  7606  0022                     l10020:	
  7607  0022  3001               	movlw	01h
  7608  0023                     u4735:
  7609  0023  1003               	clrc
  7610  0024  0CFB               	rrf	(___lltoft@c+3),f
  7611  0025  0CFA               	rrf	(___lltoft@c+2),f
  7612  0026  0CF9               	rrf	(___lltoft@c+1),f
  7613  0027  0CF8               	rrf	(___lltoft@c),f
  7614  0028  3EFF               	addlw	-1
  7615  0029  1D03               	skipz
  7616  002A  2823               	goto	u4735
  7617                           
  7618                           	line	43
  7619  002B  3001               	movlw	(01h)
  7620  002C  00FC               	movwf	(??___lltoft+0)+0
  7621  002D  087C               	movf	(??___lltoft+0)+0,w
  7622  002E  07FD               	addwf	(___lltoft@exp),f
  7623  002F  2830               	goto	l10022
  7624                           	line	44
  7625                           	
  7626  0030                     l6197:	
  7627                           	line	41
  7628                           	
  7629  0030                     l10022:	
  7630  0030  30FF               	movlw	high highword(-16777216)
  7631  0031  057B               	andwf	(___lltoft@c+3),w
  7632  0032  1D03               	btfss	status,2
  7633  0033  2835               	goto	u4741
  7634  0034  2836               	goto	u4740
  7635  0035                     u4741:
  7636  0035  2822               	goto	l10020
  7637  0036                     u4740:
  7638  0036  2837               	goto	l10024
  7639                           	
  7640  0037                     l6199:	
  7641                           	line	45
  7642                           	
  7643  0037                     l10024:	
  7644  0037  0878               	movf	(___lltoft@c),w
  7645  0038  00F0               	movwf	(?___ftpack)
  7646  0039  0879               	movf	(___lltoft@c+1),w
  7647  003A  00F1               	movwf	(?___ftpack+1)
  7648  003B  087A               	movf	(___lltoft@c+2),w
  7649  003C  00F2               	movwf	(?___ftpack+2)
  7650  003D  087D               	movf	(___lltoft@exp),w
  7651  003E  00FC               	movwf	(??___lltoft+0)+0
  7652  003F  087C               	movf	(??___lltoft+0)+0,w
  7653  0040  00F3               	movwf	0+(?___ftpack)+03h
  7654  0041  01F4               	clrf	0+(?___ftpack)+04h
  7655  0042  160A  158A  2785   	fcall	___ftpack
              120A  118A         
  7656  0047  0870               	movf	(0+(?___ftpack)),w
  7657  0048  00F8               	movwf	(?___lltoft)
  7658  0049  0871               	movf	(1+(?___ftpack)),w
  7659  004A  00F9               	movwf	(?___lltoft+1)
  7660  004B  0872               	movf	(2+(?___ftpack)),w
  7661  004C  00FA               	movwf	(?___lltoft+2)
  7662  004D  284E               	goto	l6200
  7663                           	
  7664  004E                     l10026:	
  7665                           	line	46
  7666                           	
  7667  004E                     l6200:	
  7668  004E  0008               	return
  7669                           	opt stack 0
  7670                           GLOBAL	__end_of___lltoft
  7671  004F                     	__end_of___lltoft:
  7672 ;; =============== function ___lltoft ends ============
  7673                           
  7674                           	signat	___lltoft,4219
  7675                           	global	___lwtoft
  7676                           psect	text731,local,class=CODE,delta=2
  7677                           global __ptext731
  7678  1C45                     __ptext731:
  7679                           
  7680 ;; *************** function ___lwtoft *****************
  7681 ;; Defined at:
  7682 ;;		line 29 in file "C:\Program Files (x86)\HI-TECH Software\PICC\9.82\sources\lwtoft.c"
  7683 ;; Parameters:    Size  Location     Type
  7684 ;;  c               2    8[COMMON] unsigned int 
  7685 ;; Auto vars:     Size  Location     Type
  7686 ;;		None
  7687 ;; Return value:  Size  Location     Type
  7688 ;;                  3    8[COMMON] float 
  7689 ;; Registers used:
  7690 ;;		wreg, status,2, status,0, pclath, cstack
  7691 ;; Tracked objects:
  7692 ;;		On entry : 0/0
  7693 ;;		On exit  : 0/0
  7694 ;;		Unchanged: 0/0
  7695 ;; Data sizes:     COMMON   BANK0   BANK1   BANK3   BANK2
  7696 ;;      Params:         3       0       0       0       0
  7697 ;;      Locals:         0       0       0       0       0
  7698 ;;      Temps:          1       0       0       0       0
  7699 ;;      Totals:         4       0       0       0       0
  7700 ;;Total ram usage:        4 bytes
  7701 ;; Hardware stack levels used:    1
  7702 ;; Hardware stack levels required when called:    1
  7703 ;; This function calls:
  7704 ;;		___ftpack
  7705 ;; This function is called by:
  7706 ;;		_main
  7707 ;; This function uses a non-reentrant model
  7708 ;;
  7709                           psect	text731
  7710                           	file	"C:\Program Files (x86)\HI-TECH Software\PICC\9.82\sources\lwtoft.c"
  7711                           	line	29
  7712                           	global	__size_of___lwtoft
  7713  0017                     	__size_of___lwtoft	equ	__end_of___lwtoft-___lwtoft
  7714                           	
  7715  1C45                     ___lwtoft:	
  7716                           	opt	stack 6
  7717                           ; Regs used in ___lwtoft: [wreg+status,2+status,0+pclath+cstack]
  7718                           	line	30
  7719                           	
  7720  1C45                     l10014:	
  7721  1C45  0878               	movf	(___lwtoft@c),w
  7722  1C46  00F0               	movwf	(?___ftpack)
  7723  1C47  0879               	movf	(___lwtoft@c+1),w
  7724  1C48  00F1               	movwf	(?___ftpack+1)
  7725  1C49  01F2               	clrf	(?___ftpack+2)
  7726  1C4A  308E               	movlw	(08Eh)
  7727  1C4B  00FB               	movwf	(??___lwtoft+0)+0
  7728  1C4C  087B               	movf	(??___lwtoft+0)+0,w
  7729  1C4D  00F3               	movwf	0+(?___ftpack)+03h
  7730  1C4E  01F4               	clrf	0+(?___ftpack)+04h
  7731  1C4F  160A  158A  2785   	fcall	___ftpack
              160A  158A         
  7732  1C54  0870               	movf	(0+(?___ftpack)),w
  7733  1C55  00F8               	movwf	(?___lwtoft)
  7734  1C56  0871               	movf	(1+(?___ftpack)),w
  7735  1C57  00F9               	movwf	(?___lwtoft+1)
  7736  1C58  0872               	movf	(2+(?___ftpack)),w
  7737  1C59  00FA               	movwf	(?___lwtoft+2)
  7738  1C5A  2C5B               	goto	l6183
  7739                           	
  7740  1C5B                     l10016:	
  7741                           	line	31
  7742                           	
  7743  1C5B                     l6183:	
  7744  1C5B  0008               	return
  7745                           	opt stack 0
  7746                           GLOBAL	__end_of___lwtoft
  7747  1C5C                     	__end_of___lwtoft:
  7748 ;; =============== function ___lwtoft ends ============
  7749                           
  7750                           	signat	___lwtoft,4219
  7751                           	global	___ftmul
  7752                           psect	text732,local,class=CODE,delta=2
  7753                           global __ptext732
  7754  0709                     __ptext732:
  7755                           
  7756 ;; *************** function ___ftmul *****************
  7757 ;; Defined at:
  7758 ;;		line 52 in file "C:\Program Files (x86)\HI-TECH Software\PICC\9.82\sources\ftmul.c"
  7759 ;; Parameters:    Size  Location     Type
  7760 ;;  f1              3   21[BANK0 ] float 
  7761 ;;  f2              3   24[BANK0 ] float 
  7762 ;; Auto vars:     Size  Location     Type
  7763 ;;  f3_as_produc    3   32[BANK0 ] unsigned um
  7764 ;;  sign            1   36[BANK0 ] unsigned char 
  7765 ;;  cntr            1   35[BANK0 ] unsigned char 
  7766 ;;  exp             1   31[BANK0 ] unsigned char 
  7767 ;; Return value:  Size  Location     Type
  7768 ;;                  3   21[BANK0 ] float 
  7769 ;; Registers used:
  7770 ;;		wreg, status,2, status,0, pclath, cstack
  7771 ;; Tracked objects:
  7772 ;;		On entry : 0/0
  7773 ;;		On exit  : 0/0
  7774 ;;		Unchanged: 0/0
  7775 ;; Data sizes:     COMMON   BANK0   BANK1   BANK3   BANK2
  7776 ;;      Params:         0       6       0       0       0
  7777 ;;      Locals:         0       6       0       0       0
  7778 ;;      Temps:          0       4       0       0       0
  7779 ;;      Totals:         0      16       0       0       0
  7780 ;;Total ram usage:       16 bytes
  7781 ;; Hardware stack levels used:    1
  7782 ;; Hardware stack levels required when called:    1
  7783 ;; This function calls:
  7784 ;;		___ftpack
  7785 ;; This function is called by:
  7786 ;;		_main
  7787 ;;		_fround
  7788 ;;		_scale
  7789 ;;		__doprnt
  7790 ;; This function uses a non-reentrant model
  7791 ;;
  7792                           psect	text732
  7793                           	file	"C:\Program Files (x86)\HI-TECH Software\PICC\9.82\sources\ftmul.c"
  7794                           	line	52
  7795                           	global	__size_of___ftmul
  7796  00EE                     	__size_of___ftmul	equ	__end_of___ftmul-___ftmul
  7797                           	
  7798  0709                     ___ftmul:	
  7799                           	opt	stack 3
  7800                           ; Regs used in ___ftmul: [wreg+status,2+status,0+pclath+cstack]
  7801                           	line	56
  7802                           	
  7803  0709                     l9964:	
  7804  0709  1283               	bcf	status, 5	;RP0=0, select bank0
  7805  070A  1303               	bcf	status, 6	;RP1=0, select bank0
  7806  070B  0835               	movf	(___ftmul@f1),w
  7807  070C  00BB               	movwf	((??___ftmul+0)+0)
  7808  070D  0836               	movf	(___ftmul@f1+1),w
  7809  070E  00BC               	movwf	((??___ftmul+0)+0+1)
  7810  070F  0837               	movf	(___ftmul@f1+2),w
  7811  0710  00BD               	movwf	((??___ftmul+0)+0+2)
  7812  0711  1003               	clrc
  7813  0712  0D3C               	rlf	(??___ftmul+0)+1,w
  7814  0713  0D3D               	rlf	(??___ftmul+0)+2,w
  7815  0714  00BE               	movwf	(??___ftmul+3)+0
  7816  0715  083E               	movf	(??___ftmul+3)+0,w
  7817  0716  00BF               	movwf	(___ftmul@exp)
  7818  0717  08BF               	movf	((___ftmul@exp)),f
  7819  0718  1D03               	skipz
  7820  0719  2F1B               	goto	u4591
  7821  071A  2F1C               	goto	u4590
  7822  071B                     u4591:
  7823  071B  2F24               	goto	l9970
  7824  071C                     u4590:
  7825                           	line	57
  7826                           	
  7827  071C                     l9966:	
  7828  071C  3000               	movlw	0x0
  7829  071D  00B5               	movwf	(?___ftmul)
  7830  071E  3000               	movlw	0x0
  7831  071F  00B6               	movwf	(?___ftmul+1)
  7832  0720  3000               	movlw	0x0
  7833  0721  00B7               	movwf	(?___ftmul+2)
  7834  0722  2FF6               	goto	l6059
  7835                           	
  7836  0723                     l9968:	
  7837  0723  2FF6               	goto	l6059
  7838                           	
  7839  0724                     l6058:	
  7840                           	line	58
  7841                           	
  7842  0724                     l9970:	
  7843  0724  0838               	movf	(___ftmul@f2),w
  7844  0725  00BB               	movwf	((??___ftmul+0)+0)
  7845  0726  0839               	movf	(___ftmul@f2+1),w
  7846  0727  00BC               	movwf	((??___ftmul+0)+0+1)
  7847  0728  083A               	movf	(___ftmul@f2+2),w
  7848  0729  00BD               	movwf	((??___ftmul+0)+0+2)
  7849  072A  1003               	clrc
  7850  072B  0D3C               	rlf	(??___ftmul+0)+1,w
  7851  072C  0D3D               	rlf	(??___ftmul+0)+2,w
  7852  072D  00BE               	movwf	(??___ftmul+3)+0
  7853  072E  083E               	movf	(??___ftmul+3)+0,w
  7854  072F  00C4               	movwf	(___ftmul@sign)
  7855  0730  08C4               	movf	((___ftmul@sign)),f
  7856  0731  1D03               	skipz
  7857  0732  2F34               	goto	u4601
  7858  0733  2F35               	goto	u4600
  7859  0734                     u4601:
  7860  0734  2F3D               	goto	l9976
  7861  0735                     u4600:
  7862                           	line	59
  7863                           	
  7864  0735                     l9972:	
  7865  0735  3000               	movlw	0x0
  7866  0736  00B5               	movwf	(?___ftmul)
  7867  0737  3000               	movlw	0x0
  7868  0738  00B6               	movwf	(?___ftmul+1)
  7869  0739  3000               	movlw	0x0
  7870  073A  00B7               	movwf	(?___ftmul+2)
  7871  073B  2FF6               	goto	l6059
  7872                           	
  7873  073C                     l9974:	
  7874  073C  2FF6               	goto	l6059
  7875                           	
  7876  073D                     l6060:	
  7877                           	line	60
  7878                           	
  7879  073D                     l9976:	
  7880  073D  0844               	movf	(___ftmul@sign),w
  7881  073E  3E7B               	addlw	07Bh
  7882  073F  00BB               	movwf	(??___ftmul+0)+0
  7883  0740  083B               	movf	(??___ftmul+0)+0,w
  7884  0741  07BF               	addwf	(___ftmul@exp),f
  7885                           	line	61
  7886  0742  0835               	movf	(___ftmul@f1),w
  7887  0743  00BB               	movwf	((??___ftmul+0)+0)
  7888  0744  0836               	movf	(___ftmul@f1+1),w
  7889  0745  00BC               	movwf	((??___ftmul+0)+0+1)
  7890  0746  0837               	movf	(___ftmul@f1+2),w
  7891  0747  00BD               	movwf	((??___ftmul+0)+0+2)
  7892  0748  3010               	movlw	010h
  7893  0749                     u4615:
  7894  0749  1003               	clrc
  7895  074A  0CBD               	rrf	(??___ftmul+0)+2,f
  7896  074B  0CBC               	rrf	(??___ftmul+0)+1,f
  7897  074C  0CBB               	rrf	(??___ftmul+0)+0,f
  7898  074D                     u4610:
  7899  074D  3EFF               	addlw	-1
  7900  074E  1D03               	skipz
  7901  074F  2F49               	goto	u4615
  7902  0750  083B               	movf	0+(??___ftmul+0)+0,w
  7903  0751  00BE               	movwf	(??___ftmul+3)+0
  7904  0752  083E               	movf	(??___ftmul+3)+0,w
  7905  0753  00C4               	movwf	(___ftmul@sign)
  7906                           	line	62
  7907  0754  0838               	movf	(___ftmul@f2),w
  7908  0755  00BB               	movwf	((??___ftmul+0)+0)
  7909  0756  0839               	movf	(___ftmul@f2+1),w
  7910  0757  00BC               	movwf	((??___ftmul+0)+0+1)
  7911  0758  083A               	movf	(___ftmul@f2+2),w
  7912  0759  00BD               	movwf	((??___ftmul+0)+0+2)
  7913  075A  3010               	movlw	010h
  7914  075B                     u4625:
  7915  075B  1003               	clrc
  7916  075C  0CBD               	rrf	(??___ftmul+0)+2,f
  7917  075D  0CBC               	rrf	(??___ftmul+0)+1,f
  7918  075E  0CBB               	rrf	(??___ftmul+0)+0,f
  7919  075F                     u4620:
  7920  075F  3EFF               	addlw	-1
  7921  0760  1D03               	skipz
  7922  0761  2F5B               	goto	u4625
  7923  0762  083B               	movf	0+(??___ftmul+0)+0,w
  7924  0763  00BE               	movwf	(??___ftmul+3)+0
  7925  0764  083E               	movf	(??___ftmul+3)+0,w
  7926  0765  06C4               	xorwf	(___ftmul@sign),f
  7927                           	line	63
  7928  0766  3080               	movlw	(080h)
  7929  0767  00BB               	movwf	(??___ftmul+0)+0
  7930  0768  083B               	movf	(??___ftmul+0)+0,w
  7931  0769  05C4               	andwf	(___ftmul@sign),f
  7932                           	line	64
  7933                           	
  7934  076A                     l9978:	
  7935  076A  17B6               	bsf	(___ftmul@f1)+(15/8),(15)&7
  7936                           	line	66
  7937                           	
  7938  076B                     l9980:	
  7939  076B  17B9               	bsf	(___ftmul@f2)+(15/8),(15)&7
  7940                           	line	67
  7941                           	
  7942  076C                     l9982:	
  7943  076C  30FF               	movlw	0FFh
  7944  076D  05B8               	andwf	(___ftmul@f2),f
  7945  076E  30FF               	movlw	0FFh
  7946  076F  05B9               	andwf	(___ftmul@f2+1),f
  7947  0770  3000               	movlw	0
  7948  0771  05BA               	andwf	(___ftmul@f2+2),f
  7949                           	line	68
  7950                           	
  7951  0772                     l9984:	
  7952  0772  3000               	movlw	0
  7953  0773  00C0               	movwf	(___ftmul@f3_as_product)
  7954  0774  3000               	movlw	0
  7955  0775  00C1               	movwf	(___ftmul@f3_as_product+1)
  7956  0776  3000               	movlw	0
  7957  0777  00C2               	movwf	(___ftmul@f3_as_product+2)
  7958                           	line	69
  7959                           	
  7960  0778                     l9986:	
  7961  0778  3007               	movlw	(07h)
  7962  0779  00BB               	movwf	(??___ftmul+0)+0
  7963  077A  083B               	movf	(??___ftmul+0)+0,w
  7964  077B  00C3               	movwf	(___ftmul@cntr)
  7965  077C  2F7D               	goto	l9988
  7966                           	line	70
  7967                           	
  7968  077D                     l6061:	
  7969                           	line	71
  7970                           	
  7971  077D                     l9988:	
  7972  077D  1C35               	btfss	(___ftmul@f1),(0)&7
  7973  077E  2F80               	goto	u4631
  7974  077F  2F81               	goto	u4630
  7975  0780                     u4631:
  7976  0780  2F92               	goto	l9992
  7977  0781                     u4630:
  7978                           	line	72
  7979                           	
  7980  0781                     l9990:	
  7981  0781  0838               	movf	(___ftmul@f2),w
  7982  0782  07C0               	addwf	(___ftmul@f3_as_product),f
  7983  0783  0839               	movf	(___ftmul@f2+1),w
  7984  0784  1103               	clrz
  7985  0785  1803               	skipnc
  7986  0786  0A39               	incf	(___ftmul@f2+1),w
  7987  0787  1903               	skipnz
  7988  0788  2F8A               	goto	u4641
  7989  0789  07C1               	addwf	(___ftmul@f3_as_product+1),f
  7990  078A                     u4641:
  7991  078A  083A               	movf	(___ftmul@f2+2),w
  7992  078B  1103               	clrz
  7993  078C  1803               	skipnc
  7994  078D  0A3A               	incf	(___ftmul@f2+2),w
  7995  078E  1903               	skipnz
  7996  078F  2F91               	goto	u4642
  7997  0790  07C2               	addwf	(___ftmul@f3_as_product+2),f
  7998  0791                     u4642:
  7999                           
  8000  0791  2F92               	goto	l9992
  8001                           	
  8002  0792                     l6062:	
  8003                           	line	73
  8004                           	
  8005  0792                     l9992:	
  8006  0792  3001               	movlw	01h
  8007  0793                     u4655:
  8008  0793  1003               	clrc
  8009  0794  0CB7               	rrf	(___ftmul@f1+2),f
  8010  0795  0CB6               	rrf	(___ftmul@f1+1),f
  8011  0796  0CB5               	rrf	(___ftmul@f1),f
  8012  0797  3EFF               	addlw	-1
  8013  0798  1D03               	skipz
  8014  0799  2F93               	goto	u4655
  8015                           
  8016                           	line	74
  8017                           	
  8018  079A                     l9994:	
  8019  079A  3001               	movlw	01h
  8020  079B                     u4665:
  8021  079B  1003               	clrc
  8022  079C  0DB8               	rlf	(___ftmul@f2),f
  8023  079D  0DB9               	rlf	(___ftmul@f2+1),f
  8024  079E  0DBA               	rlf	(___ftmul@f2+2),f
  8025  079F  3EFF               	addlw	-1
  8026  07A0  1D03               	skipz
  8027  07A1  2F9B               	goto	u4665
  8028                           	line	75
  8029                           	
  8030  07A2                     l9996:	
  8031  07A2  3001               	movlw	low(01h)
  8032  07A3  02C3               	subwf	(___ftmul@cntr),f
  8033  07A4  1D03               	btfss	status,2
  8034  07A5  2FA7               	goto	u4671
  8035  07A6  2FA8               	goto	u4670
  8036  07A7                     u4671:
  8037  07A7  2F7D               	goto	l9988
  8038  07A8                     u4670:
  8039  07A8  2FA9               	goto	l9998
  8040                           	
  8041  07A9                     l6063:	
  8042                           	line	76
  8043                           	
  8044  07A9                     l9998:	
  8045  07A9  3009               	movlw	(09h)
  8046  07AA  00BB               	movwf	(??___ftmul+0)+0
  8047  07AB  083B               	movf	(??___ftmul+0)+0,w
  8048  07AC  00C3               	movwf	(___ftmul@cntr)
  8049  07AD  2FAE               	goto	l10000
  8050                           	line	77
  8051                           	
  8052  07AE                     l6064:	
  8053                           	line	78
  8054                           	
  8055  07AE                     l10000:	
  8056  07AE  1C35               	btfss	(___ftmul@f1),(0)&7
  8057  07AF  2FB1               	goto	u4681
  8058  07B0  2FB2               	goto	u4680
  8059  07B1                     u4681:
  8060  07B1  2FC3               	goto	l10004
  8061  07B2                     u4680:
  8062                           	line	79
  8063                           	
  8064  07B2                     l10002:	
  8065  07B2  0838               	movf	(___ftmul@f2),w
  8066  07B3  07C0               	addwf	(___ftmul@f3_as_product),f
  8067  07B4  0839               	movf	(___ftmul@f2+1),w
  8068  07B5  1103               	clrz
  8069  07B6  1803               	skipnc
  8070  07B7  0A39               	incf	(___ftmul@f2+1),w
  8071  07B8  1903               	skipnz
  8072  07B9  2FBB               	goto	u4691
  8073  07BA  07C1               	addwf	(___ftmul@f3_as_product+1),f
  8074  07BB                     u4691:
  8075  07BB  083A               	movf	(___ftmul@f2+2),w
  8076  07BC  1103               	clrz
  8077  07BD  1803               	skipnc
  8078  07BE  0A3A               	incf	(___ftmul@f2+2),w
  8079  07BF  1903               	skipnz
  8080  07C0  2FC2               	goto	u4692
  8081  07C1  07C2               	addwf	(___ftmul@f3_as_product+2),f
  8082  07C2                     u4692:
  8083                           
  8084  07C2  2FC3               	goto	l10004
  8085                           	
  8086  07C3                     l6065:	
  8087                           	line	80
  8088                           	
  8089  07C3                     l10004:	
  8090  07C3  3001               	movlw	01h
  8091  07C4                     u4705:
  8092  07C4  1003               	clrc
  8093  07C5  0CB7               	rrf	(___ftmul@f1+2),f
  8094  07C6  0CB6               	rrf	(___ftmul@f1+1),f
  8095  07C7  0CB5               	rrf	(___ftmul@f1),f
  8096  07C8  3EFF               	addlw	-1
  8097  07C9  1D03               	skipz
  8098  07CA  2FC4               	goto	u4705
  8099                           
  8100                           	line	81
  8101                           	
  8102  07CB                     l10006:	
  8103  07CB  3001               	movlw	01h
  8104  07CC                     u4715:
  8105  07CC  1003               	clrc
  8106  07CD  0CC2               	rrf	(___ftmul@f3_as_product+2),f
  8107  07CE  0CC1               	rrf	(___ftmul@f3_as_product+1),f
  8108  07CF  0CC0               	rrf	(___ftmul@f3_as_product),f
  8109  07D0  3EFF               	addlw	-1
  8110  07D1  1D03               	skipz
  8111  07D2  2FCC               	goto	u4715
  8112                           
  8113                           	line	82
  8114                           	
  8115  07D3                     l10008:	
  8116  07D3  3001               	movlw	low(01h)
  8117  07D4  02C3               	subwf	(___ftmul@cntr),f
  8118  07D5  1D03               	btfss	status,2
  8119  07D6  2FD8               	goto	u4721
  8120  07D7  2FD9               	goto	u4720
  8121  07D8                     u4721:
  8122  07D8  2FAE               	goto	l10000
  8123  07D9                     u4720:
  8124  07D9  2FDA               	goto	l10010
  8125                           	
  8126  07DA                     l6066:	
  8127                           	line	83
  8128                           	
  8129  07DA                     l10010:	
  8130  07DA  0840               	movf	(___ftmul@f3_as_product),w
  8131  07DB  00F0               	movwf	(?___ftpack)
  8132  07DC  0841               	movf	(___ftmul@f3_as_product+1),w
  8133  07DD  00F1               	movwf	(?___ftpack+1)
  8134  07DE  0842               	movf	(___ftmul@f3_as_product+2),w
  8135  07DF  00F2               	movwf	(?___ftpack+2)
  8136  07E0  083F               	movf	(___ftmul@exp),w
  8137  07E1  00BB               	movwf	(??___ftmul+0)+0
  8138  07E2  083B               	movf	(??___ftmul+0)+0,w
  8139  07E3  00F3               	movwf	0+(?___ftpack)+03h
  8140  07E4  0844               	movf	(___ftmul@sign),w
  8141  07E5  00BC               	movwf	(??___ftmul+1)+0
  8142  07E6  083C               	movf	(??___ftmul+1)+0,w
  8143  07E7  00F4               	movwf	0+(?___ftpack)+04h
  8144  07E8  160A  158A  2785   	fcall	___ftpack
              120A  118A         
  8145  07ED  0870               	movf	(0+(?___ftpack)),w
  8146  07EE  1283               	bcf	status, 5	;RP0=0, select bank0
  8147  07EF  1303               	bcf	status, 6	;RP1=0, select bank0
  8148  07F0  00B5               	movwf	(?___ftmul)
  8149  07F1  0871               	movf	(1+(?___ftpack)),w
  8150  07F2  00B6               	movwf	(?___ftmul+1)
  8151  07F3  0872               	movf	(2+(?___ftpack)),w
  8152  07F4  00B7               	movwf	(?___ftmul+2)
  8153  07F5  2FF6               	goto	l6059
  8154                           	
  8155  07F6                     l10012:	
  8156                           	line	84
  8157                           	
  8158  07F6                     l6059:	
  8159  07F6  0008               	return
  8160                           	opt stack 0
  8161                           GLOBAL	__end_of___ftmul
  8162  07F7                     	__end_of___ftmul:
  8163 ;; =============== function ___ftmul ends ============
  8164                           
  8165                           	signat	___ftmul,8315
  8166                           	global	___ftdiv
  8167                           psect	text733,local,class=CODE,delta=2
  8168                           global __ptext733
  8169  11A7                     __ptext733:
  8170                           
  8171 ;; *************** function ___ftdiv *****************
  8172 ;; Defined at:
  8173 ;;		line 50 in file "C:\Program Files (x86)\HI-TECH Software\PICC\9.82\sources\ftdiv.c"
  8174 ;; Parameters:    Size  Location     Type
  8175 ;;  f2              3   37[BANK0 ] float 
  8176 ;;  f1              3   40[BANK0 ] float 
  8177 ;; Auto vars:     Size  Location     Type
  8178 ;;  f3              3   48[BANK0 ] float 
  8179 ;;  sign            1   52[BANK0 ] unsigned char 
  8180 ;;  exp             1   51[BANK0 ] unsigned char 
  8181 ;;  cntr            1   47[BANK0 ] unsigned char 
  8182 ;; Return value:  Size  Location     Type
  8183 ;;                  3   37[BANK0 ] float 
  8184 ;; Registers used:
  8185 ;;		wreg, status,2, status,0, pclath, cstack
  8186 ;; Tracked objects:
  8187 ;;		On entry : 0/0
  8188 ;;		On exit  : 0/0
  8189 ;;		Unchanged: 0/0
  8190 ;; Data sizes:     COMMON   BANK0   BANK1   BANK3   BANK2
  8191 ;;      Params:         0       6       0       0       0
  8192 ;;      Locals:         0       6       0       0       0
  8193 ;;      Temps:          0       4       0       0       0
  8194 ;;      Totals:         0      16       0       0       0
  8195 ;;Total ram usage:       16 bytes
  8196 ;; Hardware stack levels used:    1
  8197 ;; Hardware stack levels required when called:    1
  8198 ;; This function calls:
  8199 ;;		___ftpack
  8200 ;; This function is called by:
  8201 ;;		_main
  8202 ;; This function uses a non-reentrant model
  8203 ;;
  8204                           psect	text733
  8205                           	file	"C:\Program Files (x86)\HI-TECH Software\PICC\9.82\sources\ftdiv.c"
  8206                           	line	50
  8207                           	global	__size_of___ftdiv
  8208  00C8                     	__size_of___ftdiv	equ	__end_of___ftdiv-___ftdiv
  8209                           	
  8210  11A7                     ___ftdiv:	
  8211                           	opt	stack 6
  8212                           ; Regs used in ___ftdiv: [wreg+status,2+status,0+pclath+cstack]
  8213                           	line	55
  8214                           	
  8215  11A7                     l9922:	
  8216  11A7  1283               	bcf	status, 5	;RP0=0, select bank0
  8217  11A8  1303               	bcf	status, 6	;RP1=0, select bank0
  8218  11A9  0848               	movf	(___ftdiv@f1),w
  8219  11AA  00CB               	movwf	((??___ftdiv+0)+0)
  8220  11AB  0849               	movf	(___ftdiv@f1+1),w
  8221  11AC  00CC               	movwf	((??___ftdiv+0)+0+1)
  8222  11AD  084A               	movf	(___ftdiv@f1+2),w
  8223  11AE  00CD               	movwf	((??___ftdiv+0)+0+2)
  8224  11AF  1003               	clrc
  8225  11B0  0D4C               	rlf	(??___ftdiv+0)+1,w
  8226  11B1  0D4D               	rlf	(??___ftdiv+0)+2,w
  8227  11B2  00CE               	movwf	(??___ftdiv+3)+0
  8228  11B3  084E               	movf	(??___ftdiv+3)+0,w
  8229  11B4  00D3               	movwf	(___ftdiv@exp)
  8230  11B5  08D3               	movf	((___ftdiv@exp)),f
  8231  11B6  1D03               	skipz
  8232  11B7  29B9               	goto	u4511
  8233  11B8  29BA               	goto	u4510
  8234  11B9                     u4511:
  8235  11B9  29C2               	goto	l9928
  8236  11BA                     u4510:
  8237                           	line	56
  8238                           	
  8239  11BA                     l9924:	
  8240  11BA  3000               	movlw	0x0
  8241  11BB  00C5               	movwf	(?___ftdiv)
  8242  11BC  3000               	movlw	0x0
  8243  11BD  00C6               	movwf	(?___ftdiv+1)
  8244  11BE  3000               	movlw	0x0
  8245  11BF  00C7               	movwf	(?___ftdiv+2)
  8246  11C0  2A6E               	goto	l6049
  8247                           	
  8248  11C1                     l9926:	
  8249  11C1  2A6E               	goto	l6049
  8250                           	
  8251  11C2                     l6048:	
  8252                           	line	57
  8253                           	
  8254  11C2                     l9928:	
  8255  11C2  0845               	movf	(___ftdiv@f2),w
  8256  11C3  00CB               	movwf	((??___ftdiv+0)+0)
  8257  11C4  0846               	movf	(___ftdiv@f2+1),w
  8258  11C5  00CC               	movwf	((??___ftdiv+0)+0+1)
  8259  11C6  0847               	movf	(___ftdiv@f2+2),w
  8260  11C7  00CD               	movwf	((??___ftdiv+0)+0+2)
  8261  11C8  1003               	clrc
  8262  11C9  0D4C               	rlf	(??___ftdiv+0)+1,w
  8263  11CA  0D4D               	rlf	(??___ftdiv+0)+2,w
  8264  11CB  00CE               	movwf	(??___ftdiv+3)+0
  8265  11CC  084E               	movf	(??___ftdiv+3)+0,w
  8266  11CD  00D4               	movwf	(___ftdiv@sign)
  8267  11CE  08D4               	movf	((___ftdiv@sign)),f
  8268  11CF  1D03               	skipz
  8269  11D0  29D2               	goto	u4521
  8270  11D1  29D3               	goto	u4520
  8271  11D2                     u4521:
  8272  11D2  29DB               	goto	l9934
  8273  11D3                     u4520:
  8274                           	line	58
  8275                           	
  8276  11D3                     l9930:	
  8277  11D3  3000               	movlw	0x0
  8278  11D4  00C5               	movwf	(?___ftdiv)
  8279  11D5  3000               	movlw	0x0
  8280  11D6  00C6               	movwf	(?___ftdiv+1)
  8281  11D7  3000               	movlw	0x0
  8282  11D8  00C7               	movwf	(?___ftdiv+2)
  8283  11D9  2A6E               	goto	l6049
  8284                           	
  8285  11DA                     l9932:	
  8286  11DA  2A6E               	goto	l6049
  8287                           	
  8288  11DB                     l6050:	
  8289                           	line	59
  8290                           	
  8291  11DB                     l9934:	
  8292  11DB  3000               	movlw	0
  8293  11DC  00D0               	movwf	(___ftdiv@f3)
  8294  11DD  3000               	movlw	0
  8295  11DE  00D1               	movwf	(___ftdiv@f3+1)
  8296  11DF  3000               	movlw	0
  8297  11E0  00D2               	movwf	(___ftdiv@f3+2)
  8298                           	line	60
  8299                           	
  8300  11E1                     l9936:	
  8301  11E1  3089               	movlw	(089h)
  8302  11E2  0754               	addwf	(___ftdiv@sign),w
  8303  11E3  00CB               	movwf	(??___ftdiv+0)+0
  8304  11E4  084B               	movf	0+(??___ftdiv+0)+0,w
  8305  11E5  02D3               	subwf	(___ftdiv@exp),f
  8306                           	line	61
  8307                           	
  8308  11E6                     l9938:	
  8309  11E6  0848               	movf	(___ftdiv@f1),w
  8310  11E7  00CB               	movwf	((??___ftdiv+0)+0)
  8311  11E8  0849               	movf	(___ftdiv@f1+1),w
  8312  11E9  00CC               	movwf	((??___ftdiv+0)+0+1)
  8313  11EA  084A               	movf	(___ftdiv@f1+2),w
  8314  11EB  00CD               	movwf	((??___ftdiv+0)+0+2)
  8315  11EC  3010               	movlw	010h
  8316  11ED                     u4535:
  8317  11ED  1003               	clrc
  8318  11EE  0CCD               	rrf	(??___ftdiv+0)+2,f
  8319  11EF  0CCC               	rrf	(??___ftdiv+0)+1,f
  8320  11F0  0CCB               	rrf	(??___ftdiv+0)+0,f
  8321  11F1                     u4530:
  8322  11F1  3EFF               	addlw	-1
  8323  11F2  1D03               	skipz
  8324  11F3  29ED               	goto	u4535
  8325  11F4  084B               	movf	0+(??___ftdiv+0)+0,w
  8326  11F5  00CE               	movwf	(??___ftdiv+3)+0
  8327  11F6  084E               	movf	(??___ftdiv+3)+0,w
  8328  11F7  00D4               	movwf	(___ftdiv@sign)
  8329                           	line	62
  8330                           	
  8331  11F8                     l9940:	
  8332  11F8  0845               	movf	(___ftdiv@f2),w
  8333  11F9  00CB               	movwf	((??___ftdiv+0)+0)
  8334  11FA  0846               	movf	(___ftdiv@f2+1),w
  8335  11FB  00CC               	movwf	((??___ftdiv+0)+0+1)
  8336  11FC  0847               	movf	(___ftdiv@f2+2),w
  8337  11FD  00CD               	movwf	((??___ftdiv+0)+0+2)
  8338  11FE  3010               	movlw	010h
  8339  11FF                     u4545:
  8340  11FF  1003               	clrc
  8341  1200  0CCD               	rrf	(??___ftdiv+0)+2,f
  8342  1201  0CCC               	rrf	(??___ftdiv+0)+1,f
  8343  1202  0CCB               	rrf	(??___ftdiv+0)+0,f
  8344  1203                     u4540:
  8345  1203  3EFF               	addlw	-1
  8346  1204  1D03               	skipz
  8347  1205  29FF               	goto	u4545
  8348  1206  084B               	movf	0+(??___ftdiv+0)+0,w
  8349  1207  00CE               	movwf	(??___ftdiv+3)+0
  8350  1208  084E               	movf	(??___ftdiv+3)+0,w
  8351  1209  06D4               	xorwf	(___ftdiv@sign),f
  8352                           	line	63
  8353                           	
  8354  120A                     l9942:	
  8355  120A  3080               	movlw	(080h)
  8356  120B  00CB               	movwf	(??___ftdiv+0)+0
  8357  120C  084B               	movf	(??___ftdiv+0)+0,w
  8358  120D  05D4               	andwf	(___ftdiv@sign),f
  8359                           	line	64
  8360                           	
  8361  120E                     l9944:	
  8362  120E  17C9               	bsf	(___ftdiv@f1)+(15/8),(15)&7
  8363                           	line	65
  8364  120F  30FF               	movlw	0FFh
  8365  1210  05C8               	andwf	(___ftdiv@f1),f
  8366  1211  30FF               	movlw	0FFh
  8367  1212  05C9               	andwf	(___ftdiv@f1+1),f
  8368  1213  3000               	movlw	0
  8369  1214  05CA               	andwf	(___ftdiv@f1+2),f
  8370                           	line	66
  8371                           	
  8372  1215                     l9946:	
  8373  1215  17C6               	bsf	(___ftdiv@f2)+(15/8),(15)&7
  8374                           	line	67
  8375  1216  30FF               	movlw	0FFh
  8376  1217  05C5               	andwf	(___ftdiv@f2),f
  8377  1218  30FF               	movlw	0FFh
  8378  1219  05C6               	andwf	(___ftdiv@f2+1),f
  8379  121A  3000               	movlw	0
  8380  121B  05C7               	andwf	(___ftdiv@f2+2),f
  8381                           	line	68
  8382  121C  3018               	movlw	(018h)
  8383  121D  00CB               	movwf	(??___ftdiv+0)+0
  8384  121E  084B               	movf	(??___ftdiv+0)+0,w
  8385  121F  00CF               	movwf	(___ftdiv@cntr)
  8386  1220  2A21               	goto	l9948
  8387                           	line	69
  8388                           	
  8389  1221                     l6051:	
  8390                           	line	70
  8391                           	
  8392  1221                     l9948:	
  8393  1221  3001               	movlw	01h
  8394  1222                     u4555:
  8395  1222  1003               	clrc
  8396  1223  0DD0               	rlf	(___ftdiv@f3),f
  8397  1224  0DD1               	rlf	(___ftdiv@f3+1),f
  8398  1225  0DD2               	rlf	(___ftdiv@f3+2),f
  8399  1226  3EFF               	addlw	-1
  8400  1227  1D03               	skipz
  8401  1228  2A22               	goto	u4555
  8402                           	line	71
  8403                           	
  8404  1229                     l9950:	
  8405  1229  0847               	movf	(___ftdiv@f2+2),w
  8406  122A  024A               	subwf	(___ftdiv@f1+2),w
  8407  122B  1D03               	skipz
  8408  122C  2A33               	goto	u4565
  8409  122D  0846               	movf	(___ftdiv@f2+1),w
  8410  122E  0249               	subwf	(___ftdiv@f1+1),w
  8411  122F  1D03               	skipz
  8412  1230  2A33               	goto	u4565
  8413  1231  0845               	movf	(___ftdiv@f2),w
  8414  1232  0248               	subwf	(___ftdiv@f1),w
  8415  1233                     u4565:
  8416  1233  1C03               	skipc
  8417  1234  2A36               	goto	u4561
  8418  1235  2A37               	goto	u4560
  8419  1236                     u4561:
  8420  1236  2A43               	goto	l9956
  8421  1237                     u4560:
  8422                           	line	72
  8423                           	
  8424  1237                     l9952:	
  8425  1237  0845               	movf	(___ftdiv@f2),w
  8426  1238  02C8               	subwf	(___ftdiv@f1),f
  8427  1239  0846               	movf	(___ftdiv@f2+1),w
  8428  123A  1C03               	skipc
  8429  123B  0F46               	incfsz	(___ftdiv@f2+1),w
  8430  123C  02C9               	subwf	(___ftdiv@f1+1),f
  8431  123D  0847               	movf	(___ftdiv@f2+2),w
  8432  123E  1C03               	skipc
  8433  123F  0A47               	incf	(___ftdiv@f2+2),w
  8434  1240  02CA               	subwf	(___ftdiv@f1+2),f
  8435                           	line	73
  8436                           	
  8437  1241                     l9954:	
  8438  1241  1450               	bsf	(___ftdiv@f3)+(0/8),(0)&7
  8439  1242  2A43               	goto	l9956
  8440                           	line	74
  8441                           	
  8442  1243                     l6052:	
  8443                           	line	75
  8444                           	
  8445  1243                     l9956:	
  8446  1243  3001               	movlw	01h
  8447  1244                     u4575:
  8448  1244  1003               	clrc
  8449  1245  0DC8               	rlf	(___ftdiv@f1),f
  8450  1246  0DC9               	rlf	(___ftdiv@f1+1),f
  8451  1247  0DCA               	rlf	(___ftdiv@f1+2),f
  8452  1248  3EFF               	addlw	-1
  8453  1249  1D03               	skipz
  8454  124A  2A44               	goto	u4575
  8455                           	line	76
  8456                           	
  8457  124B                     l9958:	
  8458  124B  3001               	movlw	low(01h)
  8459  124C  02CF               	subwf	(___ftdiv@cntr),f
  8460  124D  1D03               	btfss	status,2
  8461  124E  2A50               	goto	u4581
  8462  124F  2A51               	goto	u4580
  8463  1250                     u4581:
  8464  1250  2A21               	goto	l9948
  8465  1251                     u4580:
  8466  1251  2A52               	goto	l9960
  8467                           	
  8468  1252                     l6053:	
  8469                           	line	77
  8470                           	
  8471  1252                     l9960:	
  8472  1252  0850               	movf	(___ftdiv@f3),w
  8473  1253  00F0               	movwf	(?___ftpack)
  8474  1254  0851               	movf	(___ftdiv@f3+1),w
  8475  1255  00F1               	movwf	(?___ftpack+1)
  8476  1256  0852               	movf	(___ftdiv@f3+2),w
  8477  1257  00F2               	movwf	(?___ftpack+2)
  8478  1258  0853               	movf	(___ftdiv@exp),w
  8479  1259  00CB               	movwf	(??___ftdiv+0)+0
  8480  125A  084B               	movf	(??___ftdiv+0)+0,w
  8481  125B  00F3               	movwf	0+(?___ftpack)+03h
  8482  125C  0854               	movf	(___ftdiv@sign),w
  8483  125D  00CC               	movwf	(??___ftdiv+1)+0
  8484  125E  084C               	movf	(??___ftdiv+1)+0,w
  8485  125F  00F4               	movwf	0+(?___ftpack)+04h
  8486  1260  160A  158A  2785   	fcall	___ftpack
              160A  118A         
  8487  1265  0870               	movf	(0+(?___ftpack)),w
  8488  1266  1283               	bcf	status, 5	;RP0=0, select bank0
  8489  1267  1303               	bcf	status, 6	;RP1=0, select bank0
  8490  1268  00C5               	movwf	(?___ftdiv)
  8491  1269  0871               	movf	(1+(?___ftpack)),w
  8492  126A  00C6               	movwf	(?___ftdiv+1)
  8493  126B  0872               	movf	(2+(?___ftpack)),w
  8494  126C  00C7               	movwf	(?___ftdiv+2)
  8495  126D  2A6E               	goto	l6049
  8496                           	
  8497  126E                     l9962:	
  8498                           	line	78
  8499                           	
  8500  126E                     l6049:	
  8501  126E  0008               	return
  8502                           	opt stack 0
  8503                           GLOBAL	__end_of___ftdiv
  8504  126F                     	__end_of___ftdiv:
  8505 ;; =============== function ___ftdiv ends ============
  8506                           
  8507                           	signat	___ftdiv,8315
  8508                           	global	___ftadd
  8509                           psect	text734,local,class=CODE,delta=2
  8510                           global __ptext734
  8511  1351                     __ptext734:
  8512                           
  8513 ;; *************** function ___ftadd *****************
  8514 ;; Defined at:
  8515 ;;		line 87 in file "C:\Program Files (x86)\HI-TECH Software\PICC\9.82\sources\ftadd.c"
  8516 ;; Parameters:    Size  Location     Type
  8517 ;;  f1              3   37[BANK0 ] float 
  8518 ;;  f2              3   40[BANK0 ] float 
  8519 ;; Auto vars:     Size  Location     Type
  8520 ;;  exp1            1   49[BANK0 ] unsigned char 
  8521 ;;  exp2            1   48[BANK0 ] unsigned char 
  8522 ;;  sign            1   47[BANK0 ] unsigned char 
  8523 ;; Return value:  Size  Location     Type
  8524 ;;                  3   37[BANK0 ] float 
  8525 ;; Registers used:
  8526 ;;		wreg, status,2, status,0, pclath, cstack
  8527 ;; Tracked objects:
  8528 ;;		On entry : 0/0
  8529 ;;		On exit  : 0/0
  8530 ;;		Unchanged: 0/0
  8531 ;; Data sizes:     COMMON   BANK0   BANK1   BANK3   BANK2
  8532 ;;      Params:         0       6       0       0       0
  8533 ;;      Locals:         0       3       0       0       0
  8534 ;;      Temps:          0       4       0       0       0
  8535 ;;      Totals:         0      13       0       0       0
  8536 ;;Total ram usage:       13 bytes
  8537 ;; Hardware stack levels used:    1
  8538 ;; Hardware stack levels required when called:    1
  8539 ;; This function calls:
  8540 ;;		___ftpack
  8541 ;; This function is called by:
  8542 ;;		__doprnt
  8543 ;;		___ftsub
  8544 ;; This function uses a non-reentrant model
  8545 ;;
  8546                           psect	text734
  8547                           	file	"C:\Program Files (x86)\HI-TECH Software\PICC\9.82\sources\ftadd.c"
  8548                           	line	87
  8549                           	global	__size_of___ftadd
  8550  0146                     	__size_of___ftadd	equ	__end_of___ftadd-___ftadd
  8551                           	
  8552  1351                     ___ftadd:	
  8553                           	opt	stack 3
  8554                           ; Regs used in ___ftadd: [wreg+status,2+status,0+pclath+cstack]
  8555                           	line	90
  8556                           	
  8557  1351                     l9852:	
  8558  1351  1283               	bcf	status, 5	;RP0=0, select bank0
  8559  1352  1303               	bcf	status, 6	;RP1=0, select bank0
  8560  1353  0845               	movf	(___ftadd@f1),w
  8561  1354  00CB               	movwf	((??___ftadd+0)+0)
  8562  1355  0846               	movf	(___ftadd@f1+1),w
  8563  1356  00CC               	movwf	((??___ftadd+0)+0+1)
  8564  1357  0847               	movf	(___ftadd@f1+2),w
  8565  1358  00CD               	movwf	((??___ftadd+0)+0+2)
  8566  1359  1003               	clrc
  8567  135A  0D4C               	rlf	(??___ftadd+0)+1,w
  8568  135B  0D4D               	rlf	(??___ftadd+0)+2,w
  8569  135C  00CE               	movwf	(??___ftadd+3)+0
  8570  135D  084E               	movf	(??___ftadd+3)+0,w
  8571  135E  00D1               	movwf	(___ftadd@exp1)
  8572                           	line	91
  8573  135F  0848               	movf	(___ftadd@f2),w
  8574  1360  00CB               	movwf	((??___ftadd+0)+0)
  8575  1361  0849               	movf	(___ftadd@f2+1),w
  8576  1362  00CC               	movwf	((??___ftadd+0)+0+1)
  8577  1363  084A               	movf	(___ftadd@f2+2),w
  8578  1364  00CD               	movwf	((??___ftadd+0)+0+2)
  8579  1365  1003               	clrc
  8580  1366  0D4C               	rlf	(??___ftadd+0)+1,w
  8581  1367  0D4D               	rlf	(??___ftadd+0)+2,w
  8582  1368  00CE               	movwf	(??___ftadd+3)+0
  8583  1369  084E               	movf	(??___ftadd+3)+0,w
  8584  136A  00D0               	movwf	(___ftadd@exp2)
  8585                           	line	92
  8586                           	
  8587  136B                     l9854:	
  8588  136B  0851               	movf	(___ftadd@exp1),w
  8589  136C  1D03               	skipz
  8590  136D  2B6F               	goto	u4270
  8591  136E  2B80               	goto	l9860
  8592  136F                     u4270:
  8593                           	
  8594  136F                     l9856:	
  8595  136F  0850               	movf	(___ftadd@exp2),w
  8596  1370  0251               	subwf	(___ftadd@exp1),w
  8597  1371  1803               	skipnc
  8598  1372  2B74               	goto	u4281
  8599  1373  2B75               	goto	u4280
  8600  1374                     u4281:
  8601  1374  2B88               	goto	l9864
  8602  1375                     u4280:
  8603                           	
  8604  1375                     l9858:	
  8605  1375  0351               	decf	(___ftadd@exp1),w
  8606  1376  3AFF               	xorlw	0ffh
  8607  1377  0750               	addwf	(___ftadd@exp2),w
  8608  1378  00CB               	movwf	(??___ftadd+0)+0
  8609  1379  3019               	movlw	(019h)
  8610  137A  024B               	subwf	0+(??___ftadd+0)+0,w
  8611  137B  1C03               	skipc
  8612  137C  2B7E               	goto	u4291
  8613  137D  2B7F               	goto	u4290
  8614  137E                     u4291:
  8615  137E  2B88               	goto	l9864
  8616  137F                     u4290:
  8617  137F  2B80               	goto	l9860
  8618                           	
  8619  1380                     l6006:	
  8620                           	line	93
  8621                           	
  8622  1380                     l9860:	
  8623  1380  0848               	movf	(___ftadd@f2),w
  8624  1381  00C5               	movwf	(?___ftadd)
  8625  1382  0849               	movf	(___ftadd@f2+1),w
  8626  1383  00C6               	movwf	(?___ftadd+1)
  8627  1384  084A               	movf	(___ftadd@f2+2),w
  8628  1385  00C7               	movwf	(?___ftadd+2)
  8629  1386  2C96               	goto	l6007
  8630                           	
  8631  1387                     l9862:	
  8632  1387  2C96               	goto	l6007
  8633                           	
  8634  1388                     l6004:	
  8635                           	line	94
  8636                           	
  8637  1388                     l9864:	
  8638  1388  0850               	movf	(___ftadd@exp2),w
  8639  1389  1D03               	skipz
  8640  138A  2B8C               	goto	u4300
  8641  138B  2B9C               	goto	l6010
  8642  138C                     u4300:
  8643                           	
  8644  138C                     l9866:	
  8645  138C  0851               	movf	(___ftadd@exp1),w
  8646  138D  0250               	subwf	(___ftadd@exp2),w
  8647  138E  1803               	skipnc
  8648  138F  2B91               	goto	u4311
  8649  1390  2B92               	goto	u4310
  8650  1391                     u4311:
  8651  1391  2B9D               	goto	l9870
  8652  1392                     u4310:
  8653                           	
  8654  1392                     l9868:	
  8655  1392  0350               	decf	(___ftadd@exp2),w
  8656  1393  3AFF               	xorlw	0ffh
  8657  1394  0751               	addwf	(___ftadd@exp1),w
  8658  1395  00CB               	movwf	(??___ftadd+0)+0
  8659  1396  3019               	movlw	(019h)
  8660  1397  024B               	subwf	0+(??___ftadd+0)+0,w
  8661  1398  1C03               	skipc
  8662  1399  2B9B               	goto	u4321
  8663  139A  2B9C               	goto	u4320
  8664  139B                     u4321:
  8665  139B  2B9D               	goto	l9870
  8666  139C                     u4320:
  8667                           	
  8668  139C                     l6010:	
  8669                           	line	95
  8670  139C  2C96               	goto	l6007
  8671                           	
  8672  139D                     l6008:	
  8673                           	line	96
  8674                           	
  8675  139D                     l9870:	
  8676  139D  3006               	movlw	(06h)
  8677  139E  00CB               	movwf	(??___ftadd+0)+0
  8678  139F  084B               	movf	(??___ftadd+0)+0,w
  8679  13A0  00CF               	movwf	(___ftadd@sign)
  8680                           	line	97
  8681                           	
  8682  13A1                     l9872:	
  8683  13A1  1FC7               	btfss	(___ftadd@f1+2),(23)&7
  8684  13A2  2BA4               	goto	u4331
  8685  13A3  2BA5               	goto	u4330
  8686  13A4                     u4331:
  8687  13A4  2BA6               	goto	l6011
  8688  13A5                     u4330:
  8689                           	line	98
  8690                           	
  8691  13A5                     l9874:	
  8692  13A5  17CF               	bsf	(___ftadd@sign)+(7/8),(7)&7
  8693                           	
  8694  13A6                     l6011:	
  8695                           	line	99
  8696  13A6  1FCA               	btfss	(___ftadd@f2+2),(23)&7
  8697  13A7  2BA9               	goto	u4341
  8698  13A8  2BAA               	goto	u4340
  8699  13A9                     u4341:
  8700  13A9  2BAB               	goto	l6012
  8701  13AA                     u4340:
  8702                           	line	100
  8703                           	
  8704  13AA                     l9876:	
  8705  13AA  174F               	bsf	(___ftadd@sign)+(6/8),(6)&7
  8706                           	
  8707  13AB                     l6012:	
  8708                           	line	101
  8709  13AB  17C6               	bsf	(___ftadd@f1)+(15/8),(15)&7
  8710                           	line	102
  8711                           	
  8712  13AC                     l9878:	
  8713  13AC  30FF               	movlw	0FFh
  8714  13AD  05C5               	andwf	(___ftadd@f1),f
  8715  13AE  30FF               	movlw	0FFh
  8716  13AF  05C6               	andwf	(___ftadd@f1+1),f
  8717  13B0  3000               	movlw	0
  8718  13B1  05C7               	andwf	(___ftadd@f1+2),f
  8719                           	line	103
  8720                           	
  8721  13B2                     l9880:	
  8722  13B2  17C9               	bsf	(___ftadd@f2)+(15/8),(15)&7
  8723                           	line	104
  8724  13B3  30FF               	movlw	0FFh
  8725  13B4  05C8               	andwf	(___ftadd@f2),f
  8726  13B5  30FF               	movlw	0FFh
  8727  13B6  05C9               	andwf	(___ftadd@f2+1),f
  8728  13B7  3000               	movlw	0
  8729  13B8  05CA               	andwf	(___ftadd@f2+2),f
  8730                           	line	106
  8731  13B9  0850               	movf	(___ftadd@exp2),w
  8732  13BA  0251               	subwf	(___ftadd@exp1),w
  8733  13BB  1803               	skipnc
  8734  13BC  2BBE               	goto	u4351
  8735  13BD  2BBF               	goto	u4350
  8736  13BE                     u4351:
  8737  13BE  2BF0               	goto	l9892
  8738  13BF                     u4350:
  8739  13BF  2BC0               	goto	l9882
  8740                           	line	109
  8741                           	
  8742  13C0                     l6014:	
  8743                           	line	110
  8744                           	
  8745  13C0                     l9882:	
  8746  13C0  3001               	movlw	01h
  8747  13C1                     u4365:
  8748  13C1  1003               	clrc
  8749  13C2  0DC8               	rlf	(___ftadd@f2),f
  8750  13C3  0DC9               	rlf	(___ftadd@f2+1),f
  8751  13C4  0DCA               	rlf	(___ftadd@f2+2),f
  8752  13C5  3EFF               	addlw	-1
  8753  13C6  1D03               	skipz
  8754  13C7  2BC1               	goto	u4365
  8755                           	line	111
  8756  13C8  3001               	movlw	low(01h)
  8757  13C9  02D0               	subwf	(___ftadd@exp2),f
  8758                           	line	112
  8759                           	
  8760  13CA                     l9884:	
  8761  13CA  0850               	movf	(___ftadd@exp2),w
  8762  13CB  0651               	xorwf	(___ftadd@exp1),w
  8763  13CC  1903               	skipnz
  8764  13CD  2BCF               	goto	u4371
  8765  13CE  2BD0               	goto	u4370
  8766  13CF                     u4371:
  8767  13CF  2BE8               	goto	l9890
  8768  13D0                     u4370:
  8769                           	
  8770  13D0                     l9886:	
  8771  13D0  3001               	movlw	low(01h)
  8772  13D1  02CF               	subwf	(___ftadd@sign),f
  8773  13D2  084F               	movf	((___ftadd@sign)),w
  8774  13D3  3907               	andlw	07h
  8775  13D4  1D03               	btfss	status,2
  8776  13D5  2BD7               	goto	u4381
  8777  13D6  2BD8               	goto	u4380
  8778  13D7                     u4381:
  8779  13D7  2BC0               	goto	l9882
  8780  13D8                     u4380:
  8781  13D8  2BE8               	goto	l9890
  8782                           	
  8783  13D9                     l6016:	
  8784  13D9  2BE8               	goto	l9890
  8785                           	
  8786  13DA                     l6017:	
  8787                           	line	113
  8788  13DA  2BE8               	goto	l9890
  8789                           	
  8790  13DB                     l6019:	
  8791                           	line	114
  8792                           	
  8793  13DB                     l9888:	
  8794  13DB  3001               	movlw	01h
  8795  13DC                     u4395:
  8796  13DC  1003               	clrc
  8797  13DD  0CC7               	rrf	(___ftadd@f1+2),f
  8798  13DE  0CC6               	rrf	(___ftadd@f1+1),f
  8799  13DF  0CC5               	rrf	(___ftadd@f1),f
  8800  13E0  3EFF               	addlw	-1
  8801  13E1  1D03               	skipz
  8802  13E2  2BDC               	goto	u4395
  8803                           
  8804                           	line	115
  8805  13E3  3001               	movlw	(01h)
  8806  13E4  00CB               	movwf	(??___ftadd+0)+0
  8807  13E5  084B               	movf	(??___ftadd+0)+0,w
  8808  13E6  07D1               	addwf	(___ftadd@exp1),f
  8809  13E7  2BE8               	goto	l9890
  8810                           	line	116
  8811                           	
  8812  13E8                     l6018:	
  8813                           	line	113
  8814                           	
  8815  13E8                     l9890:	
  8816  13E8  0851               	movf	(___ftadd@exp1),w
  8817  13E9  0650               	xorwf	(___ftadd@exp2),w
  8818  13EA  1D03               	skipz
  8819  13EB  2BED               	goto	u4401
  8820  13EC  2BEE               	goto	u4400
  8821  13ED                     u4401:
  8822  13ED  2BDB               	goto	l9888
  8823  13EE                     u4400:
  8824  13EE  2C27               	goto	l6021
  8825                           	
  8826  13EF                     l6020:	
  8827                           	line	117
  8828  13EF  2C27               	goto	l6021
  8829                           	
  8830  13F0                     l6013:	
  8831                           	
  8832  13F0                     l9892:	
  8833  13F0  0851               	movf	(___ftadd@exp1),w
  8834  13F1  0250               	subwf	(___ftadd@exp2),w
  8835  13F2  1803               	skipnc
  8836  13F3  2BF5               	goto	u4411
  8837  13F4  2BF6               	goto	u4410
  8838  13F5                     u4411:
  8839  13F5  2C27               	goto	l6021
  8840  13F6                     u4410:
  8841  13F6  2BF7               	goto	l9894
  8842                           	line	120
  8843                           	
  8844  13F7                     l6023:	
  8845                           	line	121
  8846                           	
  8847  13F7                     l9894:	
  8848  13F7  3001               	movlw	01h
  8849  13F8                     u4425:
  8850  13F8  1003               	clrc
  8851  13F9  0DC5               	rlf	(___ftadd@f1),f
  8852  13FA  0DC6               	rlf	(___ftadd@f1+1),f
  8853  13FB  0DC7               	rlf	(___ftadd@f1+2),f
  8854  13FC  3EFF               	addlw	-1
  8855  13FD  1D03               	skipz
  8856  13FE  2BF8               	goto	u4425
  8857                           	line	122
  8858  13FF  3001               	movlw	low(01h)
  8859  1400  02D1               	subwf	(___ftadd@exp1),f
  8860                           	line	123
  8861                           	
  8862  1401                     l9896:	
  8863  1401  0850               	movf	(___ftadd@exp2),w
  8864  1402  0651               	xorwf	(___ftadd@exp1),w
  8865  1403  1903               	skipnz
  8866  1404  2C06               	goto	u4431
  8867  1405  2C07               	goto	u4430
  8868  1406                     u4431:
  8869  1406  2C1F               	goto	l9902
  8870  1407                     u4430:
  8871                           	
  8872  1407                     l9898:	
  8873  1407  3001               	movlw	low(01h)
  8874  1408  02CF               	subwf	(___ftadd@sign),f
  8875  1409  084F               	movf	((___ftadd@sign)),w
  8876  140A  3907               	andlw	07h
  8877  140B  1D03               	btfss	status,2
  8878  140C  2C0E               	goto	u4441
  8879  140D  2C0F               	goto	u4440
  8880  140E                     u4441:
  8881  140E  2BF7               	goto	l9894
  8882  140F                     u4440:
  8883  140F  2C1F               	goto	l9902
  8884                           	
  8885  1410                     l6025:	
  8886  1410  2C1F               	goto	l9902
  8887                           	
  8888  1411                     l6026:	
  8889                           	line	124
  8890  1411  2C1F               	goto	l9902
  8891                           	
  8892  1412                     l6028:	
  8893                           	line	125
  8894                           	
  8895  1412                     l9900:	
  8896  1412  3001               	movlw	01h
  8897  1413                     u4455:
  8898  1413  1003               	clrc
  8899  1414  0CCA               	rrf	(___ftadd@f2+2),f
  8900  1415  0CC9               	rrf	(___ftadd@f2+1),f
  8901  1416  0CC8               	rrf	(___ftadd@f2),f
  8902  1417  3EFF               	addlw	-1
  8903  1418  1D03               	skipz
  8904  1419  2C13               	goto	u4455
  8905                           
  8906                           	line	126
  8907  141A  3001               	movlw	(01h)
  8908  141B  00CB               	movwf	(??___ftadd+0)+0
  8909  141C  084B               	movf	(??___ftadd+0)+0,w
  8910  141D  07D0               	addwf	(___ftadd@exp2),f
  8911  141E  2C1F               	goto	l9902
  8912                           	line	127
  8913                           	
  8914  141F                     l6027:	
  8915                           	line	124
  8916                           	
  8917  141F                     l9902:	
  8918  141F  0851               	movf	(___ftadd@exp1),w
  8919  1420  0650               	xorwf	(___ftadd@exp2),w
  8920  1421  1D03               	skipz
  8921  1422  2C24               	goto	u4461
  8922  1423  2C25               	goto	u4460
  8923  1424                     u4461:
  8924  1424  2C12               	goto	l9900
  8925  1425                     u4460:
  8926  1425  2C27               	goto	l6021
  8927                           	
  8928  1426                     l6029:	
  8929  1426  2C27               	goto	l6021
  8930                           	line	128
  8931                           	
  8932  1427                     l6022:	
  8933                           	line	129
  8934                           	
  8935  1427                     l6021:	
  8936  1427  1FCF               	btfss	(___ftadd@sign),(7)&7
  8937  1428  2C2A               	goto	u4471
  8938  1429  2C2B               	goto	u4470
  8939  142A                     u4471:
  8940  142A  2C3C               	goto	l9906
  8941  142B                     u4470:
  8942                           	line	131
  8943                           	
  8944  142B                     l9904:	
  8945  142B  30FF               	movlw	0FFh
  8946  142C  06C5               	xorwf	(___ftadd@f1),f
  8947  142D  30FF               	movlw	0FFh
  8948  142E  06C6               	xorwf	(___ftadd@f1+1),f
  8949  142F  30FF               	movlw	0FFh
  8950  1430  06C7               	xorwf	(___ftadd@f1+2),f
  8951                           	line	132
  8952  1431  3001               	movlw	01h
  8953  1432  07C5               	addwf	(___ftadd@f1),f
  8954  1433  3000               	movlw	0
  8955  1434  1803               	skipnc
  8956  1435  3001               movlw 1
  8957  1436  07C6               	addwf	(___ftadd@f1+1),f
  8958  1437  3000               	movlw	0
  8959  1438  1803               	skipnc
  8960  1439  3001               movlw 1
  8961  143A  07C7               	addwf	(___ftadd@f1+2),f
  8962  143B  2C3C               	goto	l9906
  8963                           	line	133
  8964                           	
  8965  143C                     l6030:	
  8966                           	line	134
  8967                           	
  8968  143C                     l9906:	
  8969  143C  1F4F               	btfss	(___ftadd@sign),(6)&7
  8970  143D  2C3F               	goto	u4481
  8971  143E  2C40               	goto	u4480
  8972  143F                     u4481:
  8973  143F  2C51               	goto	l9910
  8974  1440                     u4480:
  8975                           	line	136
  8976                           	
  8977  1440                     l9908:	
  8978  1440  30FF               	movlw	0FFh
  8979  1441  06C8               	xorwf	(___ftadd@f2),f
  8980  1442  30FF               	movlw	0FFh
  8981  1443  06C9               	xorwf	(___ftadd@f2+1),f
  8982  1444  30FF               	movlw	0FFh
  8983  1445  06CA               	xorwf	(___ftadd@f2+2),f
  8984                           	line	137
  8985  1446  3001               	movlw	01h
  8986  1447  07C8               	addwf	(___ftadd@f2),f
  8987  1448  3000               	movlw	0
  8988  1449  1803               	skipnc
  8989  144A  3001               movlw 1
  8990  144B  07C9               	addwf	(___ftadd@f2+1),f
  8991  144C  3000               	movlw	0
  8992  144D  1803               	skipnc
  8993  144E  3001               movlw 1
  8994  144F  07CA               	addwf	(___ftadd@f2+2),f
  8995  1450  2C51               	goto	l9910
  8996                           	line	138
  8997                           	
  8998  1451                     l6031:	
  8999                           	line	139
  9000                           	
  9001  1451                     l9910:	
  9002  1451  01CF               	clrf	(___ftadd@sign)
  9003                           	line	140
  9004  1452  0845               	movf	(___ftadd@f1),w
  9005  1453  07C8               	addwf	(___ftadd@f2),f
  9006  1454  0846               	movf	(___ftadd@f1+1),w
  9007  1455  1103               	clrz
  9008  1456  1803               	skipnc
  9009  1457  0A46               	incf	(___ftadd@f1+1),w
  9010  1458  1903               	skipnz
  9011  1459  2C5B               	goto	u4491
  9012  145A  07C9               	addwf	(___ftadd@f2+1),f
  9013  145B                     u4491:
  9014  145B  0847               	movf	(___ftadd@f1+2),w
  9015  145C  1103               	clrz
  9016  145D  1803               	skipnc
  9017  145E  0A47               	incf	(___ftadd@f1+2),w
  9018  145F  1903               	skipnz
  9019  1460  2C62               	goto	u4492
  9020  1461  07CA               	addwf	(___ftadd@f2+2),f
  9021  1462                     u4492:
  9022                           
  9023                           	line	141
  9024                           	
  9025  1462                     l9912:	
  9026  1462  1FCA               	btfss	(___ftadd@f2+2),(23)&7
  9027  1463  2C65               	goto	u4501
  9028  1464  2C66               	goto	u4500
  9029  1465                     u4501:
  9030  1465  2C7A               	goto	l9918
  9031  1466                     u4500:
  9032                           	line	142
  9033                           	
  9034  1466                     l9914:	
  9035  1466  30FF               	movlw	0FFh
  9036  1467  06C8               	xorwf	(___ftadd@f2),f
  9037  1468  30FF               	movlw	0FFh
  9038  1469  06C9               	xorwf	(___ftadd@f2+1),f
  9039  146A  30FF               	movlw	0FFh
  9040  146B  06CA               	xorwf	(___ftadd@f2+2),f
  9041                           	line	143
  9042  146C  3001               	movlw	01h
  9043  146D  07C8               	addwf	(___ftadd@f2),f
  9044  146E  3000               	movlw	0
  9045  146F  1803               	skipnc
  9046  1470  3001               movlw 1
  9047  1471  07C9               	addwf	(___ftadd@f2+1),f
  9048  1472  3000               	movlw	0
  9049  1473  1803               	skipnc
  9050  1474  3001               movlw 1
  9051  1475  07CA               	addwf	(___ftadd@f2+2),f
  9052                           	line	144
  9053                           	
  9054  1476                     l9916:	
  9055  1476  01CF               	clrf	(___ftadd@sign)
  9056  1477  1403               	bsf	status,0
  9057  1478  0DCF               	rlf	(___ftadd@sign),f
  9058  1479  2C7A               	goto	l9918
  9059                           	line	145
  9060                           	
  9061  147A                     l6032:	
  9062                           	line	146
  9063                           	
  9064  147A                     l9918:	
  9065  147A  0848               	movf	(___ftadd@f2),w
  9066  147B  00F0               	movwf	(?___ftpack)
  9067  147C  0849               	movf	(___ftadd@f2+1),w
  9068  147D  00F1               	movwf	(?___ftpack+1)
  9069  147E  084A               	movf	(___ftadd@f2+2),w
  9070  147F  00F2               	movwf	(?___ftpack+2)
  9071  1480  0851               	movf	(___ftadd@exp1),w
  9072  1481  00CB               	movwf	(??___ftadd+0)+0
  9073  1482  084B               	movf	(??___ftadd+0)+0,w
  9074  1483  00F3               	movwf	0+(?___ftpack)+03h
  9075  1484  084F               	movf	(___ftadd@sign),w
  9076  1485  00CC               	movwf	(??___ftadd+1)+0
  9077  1486  084C               	movf	(??___ftadd+1)+0,w
  9078  1487  00F4               	movwf	0+(?___ftpack)+04h
  9079  1488  160A  158A  2785   	fcall	___ftpack
              160A  118A         
  9080  148D  0870               	movf	(0+(?___ftpack)),w
  9081  148E  1283               	bcf	status, 5	;RP0=0, select bank0
  9082  148F  1303               	bcf	status, 6	;RP1=0, select bank0
  9083  1490  00C5               	movwf	(?___ftadd)
  9084  1491  0871               	movf	(1+(?___ftpack)),w
  9085  1492  00C6               	movwf	(?___ftadd+1)
  9086  1493  0872               	movf	(2+(?___ftpack)),w
  9087  1494  00C7               	movwf	(?___ftadd+2)
  9088  1495  2C96               	goto	l6007
  9089                           	
  9090  1496                     l9920:	
  9091                           	line	148
  9092                           	
  9093  1496                     l6007:	
  9094  1496  0008               	return
  9095                           	opt stack 0
  9096                           GLOBAL	__end_of___ftadd
  9097  1497                     	__end_of___ftadd:
  9098 ;; =============== function ___ftadd ends ============
  9099                           
  9100                           	signat	___ftadd,8315
  9101                           	global	_pause
  9102                           psect	text735,local,class=CODE,delta=2
  9103                           global __ptext735
  9104  1C5C                     __ptext735:
  9105                           
  9106 ;; *************** function _pause *****************
  9107 ;; Defined at:
  9108 ;;		line 10 in file "C:\PIC_PROGS\ProyectoMicros\PIC\pause.c"
  9109 ;; Parameters:    Size  Location     Type
  9110 ;;  usvalue         2    0[COMMON] unsigned short 
  9111 ;; Auto vars:     Size  Location     Type
  9112 ;;  x               2    2[COMMON] unsigned short 
  9113 ;; Return value:  Size  Location     Type
  9114 ;;		None               void
  9115 ;; Registers used:
  9116 ;;		wreg, status,2, status,0, pclath, cstack
  9117 ;; Tracked objects:
  9118 ;;		On entry : 0/0
  9119 ;;		On exit  : 0/0
  9120 ;;		Unchanged: 0/0
  9121 ;; Data sizes:     COMMON   BANK0   BANK1   BANK3   BANK2
  9122 ;;      Params:         2       0       0       0       0
  9123 ;;      Locals:         2       0       0       0       0
  9124 ;;      Temps:          0       0       0       0       0
  9125 ;;      Totals:         4       0       0       0       0
  9126 ;;Total ram usage:        4 bytes
  9127 ;; Hardware stack levels used:    1
  9128 ;; Hardware stack levels required when called:    1
  9129 ;; This function calls:
  9130 ;;		_msecbase
  9131 ;; This function is called by:
  9132 ;;		_main
  9133 ;;		_lcd_write
  9134 ;;		_lcd_clear
  9135 ;;		_lcd_init
  9136 ;; This function uses a non-reentrant model
  9137 ;;
  9138                           psect	text735
  9139                           	file	"C:\PIC_PROGS\ProyectoMicros\PIC\pause.c"
  9140                           	line	10
  9141                           	global	__size_of_pause
  9142  001B                     	__size_of_pause	equ	__end_of_pause-_pause
  9143                           	
  9144  1C5C                     _pause:	
  9145                           	opt	stack 5
  9146                           ; Regs used in _pause: [wreg+status,2+status,0+pclath+cstack]
  9147                           	line	13
  9148                           	
  9149  1C5C                     l9844:	
  9150                           ;pause.c: 11: unsigned short x;
  9151                           ;pause.c: 13: for (x=0; x<=usvalue; x++)
  9152  1C5C  01F2               	clrf	(pause@x)
  9153  1C5D  01F3               	clrf	(pause@x+1)
  9154  1C5E  2C6B               	goto	l9850
  9155                           	line	14
  9156                           	
  9157  1C5F                     l3789:	
  9158                           	line	15
  9159                           	
  9160  1C5F                     l9846:	
  9161                           ;pause.c: 14: {
  9162                           ;pause.c: 15: msecbase();
  9163  1C5F  160A  158A  23E6   	fcall	_msecbase
              160A  158A         
  9164                           	line	13
  9165                           	
  9166  1C64                     l9848:	
  9167  1C64  3001               	movlw	low(01h)
  9168  1C65  07F2               	addwf	(pause@x),f
  9169  1C66  1803               	skipnc
  9170  1C67  0AF3               	incf	(pause@x+1),f
  9171  1C68  3000               	movlw	high(01h)
  9172  1C69  07F3               	addwf	(pause@x+1),f
  9173  1C6A  2C6B               	goto	l9850
  9174                           	
  9175  1C6B                     l3788:	
  9176                           	
  9177  1C6B                     l9850:	
  9178  1C6B  0873               	movf	(pause@x+1),w
  9179  1C6C  0271               	subwf	(pause@usvalue+1),w
  9180  1C6D  1D03               	skipz
  9181  1C6E  2C71               	goto	u4265
  9182  1C6F  0872               	movf	(pause@x),w
  9183  1C70  0270               	subwf	(pause@usvalue),w
  9184  1C71                     u4265:
  9185  1C71  1803               	skipnc
  9186  1C72  2C74               	goto	u4261
  9187  1C73  2C75               	goto	u4260
  9188  1C74                     u4261:
  9189  1C74  2C5F               	goto	l9846
  9190  1C75                     u4260:
  9191  1C75  2C76               	goto	l3791
  9192                           	
  9193  1C76                     l3790:	
  9194                           	line	17
  9195                           	
  9196  1C76                     l3791:	
  9197  1C76  0008               	return
  9198                           	opt stack 0
  9199                           GLOBAL	__end_of_pause
  9200  1C77                     	__end_of_pause:
  9201 ;; =============== function _pause ends ============
  9202                           
  9203                           	signat	_pause,4216
  9204                           	global	___awmod
  9205                           psect	text736,local,class=CODE,delta=2
  9206                           global __ptext736
  9207  1DCF                     __ptext736:
  9208                           
  9209 ;; *************** function ___awmod *****************
  9210 ;; Defined at:
  9211 ;;		line 5 in file "C:\Program Files (x86)\HI-TECH Software\PICC\9.82\sources\awmod.c"
  9212 ;; Parameters:    Size  Location     Type
  9213 ;;  divisor         2    0[COMMON] int 
  9214 ;;  dividend        2    2[COMMON] int 
  9215 ;; Auto vars:     Size  Location     Type
  9216 ;;  sign            1    6[COMMON] unsigned char 
  9217 ;;  counter         1    5[COMMON] unsigned char 
  9218 ;; Return value:  Size  Location     Type
  9219 ;;                  2    0[COMMON] int 
  9220 ;; Registers used:
  9221 ;;		wreg, status,2, status,0
  9222 ;; Tracked objects:
  9223 ;;		On entry : 0/0
  9224 ;;		On exit  : 0/0
  9225 ;;		Unchanged: 0/0
  9226 ;; Data sizes:     COMMON   BANK0   BANK1   BANK3   BANK2
  9227 ;;      Params:         4       0       0       0       0
  9228 ;;      Locals:         2       0       0       0       0
  9229 ;;      Temps:          1       0       0       0       0
  9230 ;;      Totals:         7       0       0       0       0
  9231 ;;Total ram usage:        7 bytes
  9232 ;; Hardware stack levels used:    1
  9233 ;; This function calls:
  9234 ;;		Nothing
  9235 ;; This function is called by:
  9236 ;;		_fround
  9237 ;;		_scale
  9238 ;; This function uses a non-reentrant model
  9239 ;;
  9240                           psect	text736
  9241                           	file	"C:\Program Files (x86)\HI-TECH Software\PICC\9.82\sources\awmod.c"
  9242                           	line	5
  9243                           	global	__size_of___awmod
  9244  0066                     	__size_of___awmod	equ	__end_of___awmod-___awmod
  9245                           	
  9246  1DCF                     ___awmod:	
  9247                           	opt	stack 4
  9248                           ; Regs used in ___awmod: [wreg+status,2+status,0]
  9249                           	line	8
  9250                           	
  9251  1DCF                     l9778:	
  9252  1DCF  01F6               	clrf	(___awmod@sign)
  9253                           	line	9
  9254  1DD0  1FF3               	btfss	(___awmod@dividend+1),7
  9255  1DD1  2DD3               	goto	u4131
  9256  1DD2  2DD4               	goto	u4130
  9257  1DD3                     u4131:
  9258  1DD3  2DDD               	goto	l9782
  9259  1DD4                     u4130:
  9260                           	line	10
  9261                           	
  9262  1DD4                     l9780:	
  9263  1DD4  09F2               	comf	(___awmod@dividend),f
  9264  1DD5  09F3               	comf	(___awmod@dividend+1),f
  9265  1DD6  0AF2               	incf	(___awmod@dividend),f
  9266  1DD7  1903               	skipnz
  9267  1DD8  0AF3               	incf	(___awmod@dividend+1),f
  9268                           	line	11
  9269  1DD9  01F6               	clrf	(___awmod@sign)
  9270  1DDA  1403               	bsf	status,0
  9271  1DDB  0DF6               	rlf	(___awmod@sign),f
  9272  1DDC  2DDD               	goto	l9782
  9273                           	line	12
  9274                           	
  9275  1DDD                     l6168:	
  9276                           	line	13
  9277                           	
  9278  1DDD                     l9782:	
  9279  1DDD  1FF1               	btfss	(___awmod@divisor+1),7
  9280  1DDE  2DE0               	goto	u4141
  9281  1DDF  2DE1               	goto	u4140
  9282  1DE0                     u4141:
  9283  1DE0  2DE7               	goto	l9786
  9284  1DE1                     u4140:
  9285                           	line	14
  9286                           	
  9287  1DE1                     l9784:	
  9288  1DE1  09F0               	comf	(___awmod@divisor),f
  9289  1DE2  09F1               	comf	(___awmod@divisor+1),f
  9290  1DE3  0AF0               	incf	(___awmod@divisor),f
  9291  1DE4  1903               	skipnz
  9292  1DE5  0AF1               	incf	(___awmod@divisor+1),f
  9293  1DE6  2DE7               	goto	l9786
  9294                           	
  9295  1DE7                     l6169:	
  9296                           	line	15
  9297                           	
  9298  1DE7                     l9786:	
  9299  1DE7  0871               	movf	(___awmod@divisor+1),w
  9300  1DE8  0470               	iorwf	(___awmod@divisor),w
  9301  1DE9  1903               	skipnz
  9302  1DEA  2DEC               	goto	u4151
  9303  1DEB  2DED               	goto	u4150
  9304  1DEC                     u4151:
  9305  1DEC  2E23               	goto	l9804
  9306  1DED                     u4150:
  9307                           	line	16
  9308                           	
  9309  1DED                     l9788:	
  9310  1DED  01F5               	clrf	(___awmod@counter)
  9311  1DEE  1403               	bsf	status,0
  9312  1DEF  0DF5               	rlf	(___awmod@counter),f
  9313                           	line	17
  9314  1DF0  2DFD               	goto	l9794
  9315                           	
  9316  1DF1                     l6172:	
  9317                           	line	18
  9318                           	
  9319  1DF1                     l9790:	
  9320  1DF1  3001               	movlw	01h
  9321                           	
  9322  1DF2                     u4165:
  9323  1DF2  1003               	clrc
  9324  1DF3  0DF0               	rlf	(___awmod@divisor),f
  9325  1DF4  0DF1               	rlf	(___awmod@divisor+1),f
  9326  1DF5  3EFF               	addlw	-1
  9327  1DF6  1D03               	skipz
  9328  1DF7  2DF2               	goto	u4165
  9329                           	line	19
  9330                           	
  9331  1DF8                     l9792:	
  9332  1DF8  3001               	movlw	(01h)
  9333  1DF9  00F4               	movwf	(??___awmod+0)+0
  9334  1DFA  0874               	movf	(??___awmod+0)+0,w
  9335  1DFB  07F5               	addwf	(___awmod@counter),f
  9336  1DFC  2DFD               	goto	l9794
  9337                           	line	20
  9338                           	
  9339  1DFD                     l6171:	
  9340                           	line	17
  9341                           	
  9342  1DFD                     l9794:	
  9343  1DFD  1FF1               	btfss	(___awmod@divisor+1),(15)&7
  9344  1DFE  2E00               	goto	u4171
  9345  1DFF  2E01               	goto	u4170
  9346  1E00                     u4171:
  9347  1E00  2DF1               	goto	l9790
  9348  1E01                     u4170:
  9349  1E01  2E03               	goto	l9796
  9350                           	
  9351  1E02                     l6173:	
  9352  1E02  2E03               	goto	l9796
  9353                           	line	21
  9354                           	
  9355  1E03                     l6174:	
  9356                           	line	22
  9357                           	
  9358  1E03                     l9796:	
  9359  1E03  0871               	movf	(___awmod@divisor+1),w
  9360  1E04  0273               	subwf	(___awmod@dividend+1),w
  9361  1E05  1D03               	skipz
  9362  1E06  2E09               	goto	u4185
  9363  1E07  0870               	movf	(___awmod@divisor),w
  9364  1E08  0272               	subwf	(___awmod@dividend),w
  9365  1E09                     u4185:
  9366  1E09  1C03               	skipc
  9367  1E0A  2E0C               	goto	u4181
  9368  1E0B  2E0D               	goto	u4180
  9369  1E0C                     u4181:
  9370  1E0C  2E14               	goto	l9800
  9371  1E0D                     u4180:
  9372                           	line	23
  9373                           	
  9374  1E0D                     l9798:	
  9375  1E0D  0870               	movf	(___awmod@divisor),w
  9376  1E0E  02F2               	subwf	(___awmod@dividend),f
  9377  1E0F  0871               	movf	(___awmod@divisor+1),w
  9378  1E10  1C03               	skipc
  9379  1E11  03F3               	decf	(___awmod@dividend+1),f
  9380  1E12  02F3               	subwf	(___awmod@dividend+1),f
  9381  1E13  2E14               	goto	l9800
  9382                           	
  9383  1E14                     l6175:	
  9384                           	line	24
  9385                           	
  9386  1E14                     l9800:	
  9387  1E14  3001               	movlw	01h
  9388                           	
  9389  1E15                     u4195:
  9390  1E15  1003               	clrc
  9391  1E16  0CF1               	rrf	(___awmod@divisor+1),f
  9392  1E17  0CF0               	rrf	(___awmod@divisor),f
  9393  1E18  3EFF               	addlw	-1
  9394  1E19  1D03               	skipz
  9395  1E1A  2E15               	goto	u4195
  9396                           	line	25
  9397                           	
  9398  1E1B                     l9802:	
  9399  1E1B  3001               	movlw	low(01h)
  9400  1E1C  02F5               	subwf	(___awmod@counter),f
  9401  1E1D  1D03               	btfss	status,2
  9402  1E1E  2E20               	goto	u4201
  9403  1E1F  2E21               	goto	u4200
  9404  1E20                     u4201:
  9405  1E20  2E03               	goto	l9796
  9406  1E21                     u4200:
  9407  1E21  2E23               	goto	l9804
  9408                           	
  9409  1E22                     l6176:	
  9410  1E22  2E23               	goto	l9804
  9411                           	line	26
  9412                           	
  9413  1E23                     l6170:	
  9414                           	line	27
  9415                           	
  9416  1E23                     l9804:	
  9417  1E23  0876               	movf	(___awmod@sign),w
  9418  1E24  1D03               	skipz
  9419  1E25  2E27               	goto	u4210
  9420  1E26  2E2D               	goto	l9808
  9421  1E27                     u4210:
  9422                           	line	28
  9423                           	
  9424  1E27                     l9806:	
  9425  1E27  09F2               	comf	(___awmod@dividend),f
  9426  1E28  09F3               	comf	(___awmod@dividend+1),f
  9427  1E29  0AF2               	incf	(___awmod@dividend),f
  9428  1E2A  1903               	skipnz
  9429  1E2B  0AF3               	incf	(___awmod@dividend+1),f
  9430  1E2C  2E2D               	goto	l9808
  9431                           	
  9432  1E2D                     l6177:	
  9433                           	line	29
  9434                           	
  9435  1E2D                     l9808:	
  9436  1E2D  0873               	movf	(___awmod@dividend+1),w
  9437  1E2E  01F1               	clrf	(?___awmod+1)
  9438  1E2F  07F1               	addwf	(?___awmod+1)
  9439  1E30  0872               	movf	(___awmod@dividend),w
  9440  1E31  01F0               	clrf	(?___awmod)
  9441  1E32  07F0               	addwf	(?___awmod)
  9442                           
  9443  1E33  2E34               	goto	l6178
  9444                           	
  9445  1E34                     l9810:	
  9446                           	line	30
  9447                           	
  9448  1E34                     l6178:	
  9449  1E34  0008               	return
  9450                           	opt stack 0
  9451                           GLOBAL	__end_of___awmod
  9452  1E35                     	__end_of___awmod:
  9453 ;; =============== function ___awmod ends ============
  9454                           
  9455                           	signat	___awmod,8314
  9456                           	global	___lldiv
  9457                           psect	text737,local,class=CODE,delta=2
  9458                           global __ptext737
  9459  1EA1                     __ptext737:
  9460                           
  9461 ;; *************** function ___lldiv *****************
  9462 ;; Defined at:
  9463 ;;		line 5 in file "C:\Program Files (x86)\HI-TECH Software\PICC\9.82\sources\lldiv.c"
  9464 ;; Parameters:    Size  Location     Type
  9465 ;;  divisor         4    0[COMMON] unsigned long 
  9466 ;;  dividend        4    4[COMMON] unsigned long 
  9467 ;; Auto vars:     Size  Location     Type
  9468 ;;  quotient        4    9[COMMON] unsigned long 
  9469 ;;  counter         1   13[COMMON] unsigned char 
  9470 ;; Return value:  Size  Location     Type
  9471 ;;                  4    0[COMMON] unsigned long 
  9472 ;; Registers used:
  9473 ;;		wreg, status,2, status,0
  9474 ;; Tracked objects:
  9475 ;;		On entry : 0/0
  9476 ;;		On exit  : 0/0
  9477 ;;		Unchanged: 0/0
  9478 ;; Data sizes:     COMMON   BANK0   BANK1   BANK3   BANK2
  9479 ;;      Params:         8       0       0       0       0
  9480 ;;      Locals:         5       0       0       0       0
  9481 ;;      Temps:          1       0       0       0       0
  9482 ;;      Totals:        14       0       0       0       0
  9483 ;;Total ram usage:       14 bytes
  9484 ;; Hardware stack levels used:    1
  9485 ;; This function calls:
  9486 ;;		Nothing
  9487 ;; This function is called by:
  9488 ;;		__doprnt
  9489 ;; This function uses a non-reentrant model
  9490 ;;
  9491                           psect	text737
  9492                           	file	"C:\Program Files (x86)\HI-TECH Software\PICC\9.82\sources\lldiv.c"
  9493                           	line	5
  9494                           	global	__size_of___lldiv
  9495  006E                     	__size_of___lldiv	equ	__end_of___lldiv-___lldiv
  9496                           	
  9497  1EA1                     ___lldiv:	
  9498                           	opt	stack 5
  9499                           ; Regs used in ___lldiv: [wreg+status,2+status,0]
  9500                           	line	9
  9501                           	
  9502  1EA1                     l9754:	
  9503  1EA1  3000               	movlw	0
  9504  1EA2  00FC               	movwf	(___lldiv@quotient+3)
  9505  1EA3  3000               	movlw	0
  9506  1EA4  00FB               	movwf	(___lldiv@quotient+2)
  9507  1EA5  3000               	movlw	0
  9508  1EA6  00FA               	movwf	(___lldiv@quotient+1)
  9509  1EA7  3000               	movlw	0
  9510  1EA8  00F9               	movwf	(___lldiv@quotient)
  9511                           
  9512                           	line	10
  9513  1EA9  0873               	movf	(___lldiv@divisor+3),w
  9514  1EAA  0472               	iorwf	(___lldiv@divisor+2),w
  9515  1EAB  0471               	iorwf	(___lldiv@divisor+1),w
  9516  1EAC  0470               	iorwf	(___lldiv@divisor),w
  9517  1EAD  1903               	skipnz
  9518  1EAE  2EB0               	goto	u4061
  9519  1EAF  2EB1               	goto	u4060
  9520  1EB0                     u4061:
  9521  1EB0  2F05               	goto	l9774
  9522  1EB1                     u4060:
  9523                           	line	11
  9524                           	
  9525  1EB1                     l9756:	
  9526  1EB1  01FD               	clrf	(___lldiv@counter)
  9527  1EB2  1403               	bsf	status,0
  9528  1EB3  0DFD               	rlf	(___lldiv@counter),f
  9529                           	line	12
  9530  1EB4  2EC3               	goto	l9760
  9531                           	
  9532  1EB5                     l6134:	
  9533                           	line	13
  9534                           	
  9535  1EB5                     l9758:	
  9536  1EB5  3001               	movlw	01h
  9537  1EB6  00F8               	movwf	(??___lldiv+0)+0
  9538  1EB7                     u4075:
  9539  1EB7  1003               	clrc
  9540  1EB8  0DF0               	rlf	(___lldiv@divisor),f
  9541  1EB9  0DF1               	rlf	(___lldiv@divisor+1),f
  9542  1EBA  0DF2               	rlf	(___lldiv@divisor+2),f
  9543  1EBB  0DF3               	rlf	(___lldiv@divisor+3),f
  9544  1EBC  0BF8               	decfsz	(??___lldiv+0)+0
  9545  1EBD  2EB7               	goto	u4075
  9546                           	line	14
  9547  1EBE  3001               	movlw	(01h)
  9548  1EBF  00F8               	movwf	(??___lldiv+0)+0
  9549  1EC0  0878               	movf	(??___lldiv+0)+0,w
  9550  1EC1  07FD               	addwf	(___lldiv@counter),f
  9551  1EC2  2EC3               	goto	l9760
  9552                           	line	15
  9553                           	
  9554  1EC3                     l6133:	
  9555                           	line	12
  9556                           	
  9557  1EC3                     l9760:	
  9558  1EC3  1FF3               	btfss	(___lldiv@divisor+3),(31)&7
  9559  1EC4  2EC6               	goto	u4081
  9560  1EC5  2EC7               	goto	u4080
  9561  1EC6                     u4081:
  9562  1EC6  2EB5               	goto	l9758
  9563  1EC7                     u4080:
  9564  1EC7  2EC9               	goto	l9762
  9565                           	
  9566  1EC8                     l6135:	
  9567  1EC8  2EC9               	goto	l9762
  9568                           	line	16
  9569                           	
  9570  1EC9                     l6136:	
  9571                           	line	17
  9572                           	
  9573  1EC9                     l9762:	
  9574  1EC9  3001               	movlw	01h
  9575  1ECA  00F8               	movwf	(??___lldiv+0)+0
  9576  1ECB                     u4095:
  9577  1ECB  1003               	clrc
  9578  1ECC  0DF9               	rlf	(___lldiv@quotient),f
  9579  1ECD  0DFA               	rlf	(___lldiv@quotient+1),f
  9580  1ECE  0DFB               	rlf	(___lldiv@quotient+2),f
  9581  1ECF  0DFC               	rlf	(___lldiv@quotient+3),f
  9582  1ED0  0BF8               	decfsz	(??___lldiv+0)+0
  9583  1ED1  2ECB               	goto	u4095
  9584                           	line	18
  9585                           	
  9586  1ED2                     l9764:	
  9587  1ED2  0873               	movf	(___lldiv@divisor+3),w
  9588  1ED3  0277               	subwf	(___lldiv@dividend+3),w
  9589  1ED4  1D03               	skipz
  9590  1ED5  2EE0               	goto	u4105
  9591  1ED6  0872               	movf	(___lldiv@divisor+2),w
  9592  1ED7  0276               	subwf	(___lldiv@dividend+2),w
  9593  1ED8  1D03               	skipz
  9594  1ED9  2EE0               	goto	u4105
  9595  1EDA  0871               	movf	(___lldiv@divisor+1),w
  9596  1EDB  0275               	subwf	(___lldiv@dividend+1),w
  9597  1EDC  1D03               	skipz
  9598  1EDD  2EE0               	goto	u4105
  9599  1EDE  0870               	movf	(___lldiv@divisor),w
  9600  1EDF  0274               	subwf	(___lldiv@dividend),w
  9601  1EE0                     u4105:
  9602  1EE0  1C03               	skipc
  9603  1EE1  2EE3               	goto	u4101
  9604  1EE2  2EE4               	goto	u4100
  9605  1EE3                     u4101:
  9606  1EE3  2EF4               	goto	l9770
  9607  1EE4                     u4100:
  9608                           	line	19
  9609                           	
  9610  1EE4                     l9766:	
  9611  1EE4  0870               	movf	(___lldiv@divisor),w
  9612  1EE5  02F4               	subwf	(___lldiv@dividend),f
  9613  1EE6  0871               	movf	(___lldiv@divisor+1),w
  9614  1EE7  1C03               	skipc
  9615  1EE8  0F71               	incfsz	(___lldiv@divisor+1),w
  9616  1EE9  02F5               	subwf	(___lldiv@dividend+1),f
  9617  1EEA  0872               	movf	(___lldiv@divisor+2),w
  9618  1EEB  1C03               	skipc
  9619  1EEC  0F72               	incfsz	(___lldiv@divisor+2),w
  9620  1EED  02F6               	subwf	(___lldiv@dividend+2),f
  9621  1EEE  0873               	movf	(___lldiv@divisor+3),w
  9622  1EEF  1C03               	skipc
  9623  1EF0  0F73               	incfsz	(___lldiv@divisor+3),w
  9624  1EF1  02F7               	subwf	(___lldiv@dividend+3),f
  9625                           	line	20
  9626                           	
  9627  1EF2                     l9768:	
  9628  1EF2  1479               	bsf	(___lldiv@quotient)+(0/8),(0)&7
  9629  1EF3  2EF4               	goto	l9770
  9630                           	line	21
  9631                           	
  9632  1EF4                     l6137:	
  9633                           	line	22
  9634                           	
  9635  1EF4                     l9770:	
  9636  1EF4  3001               	movlw	01h
  9637  1EF5                     u4115:
  9638  1EF5  1003               	clrc
  9639  1EF6  0CF3               	rrf	(___lldiv@divisor+3),f
  9640  1EF7  0CF2               	rrf	(___lldiv@divisor+2),f
  9641  1EF8  0CF1               	rrf	(___lldiv@divisor+1),f
  9642  1EF9  0CF0               	rrf	(___lldiv@divisor),f
  9643  1EFA  3EFF               	addlw	-1
  9644  1EFB  1D03               	skipz
  9645  1EFC  2EF5               	goto	u4115
  9646                           
  9647                           	line	23
  9648                           	
  9649  1EFD                     l9772:	
  9650  1EFD  3001               	movlw	low(01h)
  9651  1EFE  02FD               	subwf	(___lldiv@counter),f
  9652  1EFF  1D03               	btfss	status,2
  9653  1F00  2F02               	goto	u4121
  9654  1F01  2F03               	goto	u4120
  9655  1F02                     u4121:
  9656  1F02  2EC9               	goto	l9762
  9657  1F03                     u4120:
  9658  1F03  2F05               	goto	l9774
  9659                           	
  9660  1F04                     l6138:	
  9661  1F04  2F05               	goto	l9774
  9662                           	line	24
  9663                           	
  9664  1F05                     l6132:	
  9665                           	line	25
  9666                           	
  9667  1F05                     l9774:	
  9668  1F05  087C               	movf	(___lldiv@quotient+3),w
  9669  1F06  00F3               	movwf	(?___lldiv+3)
  9670  1F07  087B               	movf	(___lldiv@quotient+2),w
  9671  1F08  00F2               	movwf	(?___lldiv+2)
  9672  1F09  087A               	movf	(___lldiv@quotient+1),w
  9673  1F0A  00F1               	movwf	(?___lldiv+1)
  9674  1F0B  0879               	movf	(___lldiv@quotient),w
  9675  1F0C  00F0               	movwf	(?___lldiv)
  9676                           
  9677  1F0D  2F0E               	goto	l6139
  9678                           	
  9679  1F0E                     l9776:	
  9680                           	line	26
  9681                           	
  9682  1F0E                     l6139:	
  9683  1F0E  0008               	return
  9684                           	opt stack 0
  9685                           GLOBAL	__end_of___lldiv
  9686  1F0F                     	__end_of___lldiv:
  9687 ;; =============== function ___lldiv ends ============
  9688                           
  9689                           	signat	___lldiv,8316
  9690                           	global	___ftge
  9691                           psect	text738,local,class=CODE,delta=2
  9692                           global __ptext738
  9693  1E35                     __ptext738:
  9694                           
  9695 ;; *************** function ___ftge *****************
  9696 ;; Defined at:
  9697 ;;		line 5 in file "C:\Program Files (x86)\HI-TECH Software\PICC\9.82\sources\ftge.c"
  9698 ;; Parameters:    Size  Location     Type
  9699 ;;  ff1             3    0[COMMON] float 
  9700 ;;  ff2             3    3[COMMON] float 
  9701 ;; Auto vars:     Size  Location     Type
  9702 ;;		None
  9703 ;; Return value:  Size  Location     Type
  9704 ;;		None               void
  9705 ;; Registers used:
  9706 ;;		wreg, status,2, status,0
  9707 ;; Tracked objects:
  9708 ;;		On entry : 0/0
  9709 ;;		On exit  : 0/0
  9710 ;;		Unchanged: 0/0
  9711 ;; Data sizes:     COMMON   BANK0   BANK1   BANK3   BANK2
  9712 ;;      Params:         6       0       0       0       0
  9713 ;;      Locals:         0       0       0       0       0
  9714 ;;      Temps:          6       0       0       0       0
  9715 ;;      Totals:        12       0       0       0       0
  9716 ;;Total ram usage:       12 bytes
  9717 ;; Hardware stack levels used:    1
  9718 ;; This function calls:
  9719 ;;		Nothing
  9720 ;; This function is called by:
  9721 ;;		_main
  9722 ;;		__doprnt
  9723 ;; This function uses a non-reentrant model
  9724 ;;
  9725                           psect	text738
  9726                           	file	"C:\Program Files (x86)\HI-TECH Software\PICC\9.82\sources\ftge.c"
  9727                           	line	5
  9728                           	global	__size_of___ftge
  9729  006C                     	__size_of___ftge	equ	__end_of___ftge-___ftge
  9730                           	
  9731  1E35                     ___ftge:	
  9732                           	opt	stack 7
  9733                           ; Regs used in ___ftge: [wreg+status,2+status,0]
  9734                           	line	6
  9735                           	
  9736  1E35                     l9734:	
  9737  1E35  1FF2               	btfss	(___ftge@ff1+2),(23)&7
  9738  1E36  2E38               	goto	u4011
  9739  1E37  2E39               	goto	u4010
  9740  1E38                     u4011:
  9741  1E38  2E5F               	goto	l9738
  9742  1E39                     u4010:
  9743                           	line	7
  9744                           	
  9745  1E39                     l9736:	
  9746  1E39  3000               	movlw	0
  9747  1E3A  00F6               	movwf	((??___ftge+0)+0)
  9748  1E3B  3000               	movlw	0
  9749  1E3C  00F7               	movwf	((??___ftge+0)+0+1)
  9750  1E3D  3080               	movlw	080h
  9751  1E3E  00F8               	movwf	((??___ftge+0)+0+2)
  9752  1E3F  0970               	comf	(___ftge@ff1),w
  9753  1E40  00F9               	movwf	(??___ftge+3)+0
  9754  1E41  0971               	comf	(___ftge@ff1+1),w
  9755  1E42  00FA               	movwf	((??___ftge+3)+0+1)
  9756  1E43  0972               	comf	(___ftge@ff1+2),w
  9757  1E44  00FB               	movwf	((??___ftge+3)+0+2)
  9758  1E45  0AF9               	incf	(??___ftge+3)+0,f
  9759  1E46  1903               	skipnz
  9760  1E47  0AFA               	incf	((??___ftge+3)+0+1),f
  9761  1E48  1903               	skipnz
  9762  1E49  0AFB               	incf	((??___ftge+3)+0+2),f
  9763  1E4A  0879               	movf	0+(??___ftge+3)+0,w
  9764  1E4B  07F6               	addwf	(??___ftge+0)+0,f
  9765  1E4C  087A               	movf	1+(??___ftge+3)+0,w
  9766  1E4D  1803               	skipnc
  9767  1E4E  0F7A               	incfsz	1+(??___ftge+3)+0,w
  9768  1E4F  2E51               	goto	u4021
  9769  1E50  2E52               	goto	u4022
  9770  1E51                     u4021:
  9771  1E51  07F7               	addwf	(??___ftge+0)+1,f
  9772                           	
  9773  1E52                     u4022:
  9774  1E52  087B               	movf	2+(??___ftge+3)+0,w
  9775  1E53  1803               	skipnc
  9776  1E54  0F7B               	incfsz	2+(??___ftge+3)+0,w
  9777  1E55  2E57               	goto	u4023
  9778  1E56  2E58               	goto	u4024
  9779  1E57                     u4023:
  9780  1E57  07F8               	addwf	(??___ftge+0)+2,f
  9781                           	
  9782  1E58                     u4024:
  9783  1E58  0876               	movf	0+(??___ftge+0)+0,w
  9784  1E59  00F0               	movwf	(___ftge@ff1)
  9785  1E5A  0877               	movf	1+(??___ftge+0)+0,w
  9786  1E5B  00F1               	movwf	(___ftge@ff1+1)
  9787  1E5C  0878               	movf	2+(??___ftge+0)+0,w
  9788  1E5D  00F2               	movwf	(___ftge@ff1+2)
  9789  1E5E  2E5F               	goto	l9738
  9790                           	
  9791  1E5F                     l6127:	
  9792                           	line	8
  9793                           	
  9794  1E5F                     l9738:	
  9795  1E5F  1FF5               	btfss	(___ftge@ff2+2),(23)&7
  9796  1E60  2E62               	goto	u4031
  9797  1E61  2E63               	goto	u4030
  9798  1E62                     u4031:
  9799  1E62  2E89               	goto	l9742
  9800  1E63                     u4030:
  9801                           	line	9
  9802                           	
  9803  1E63                     l9740:	
  9804  1E63  3000               	movlw	0
  9805  1E64  00F6               	movwf	((??___ftge+0)+0)
  9806  1E65  3000               	movlw	0
  9807  1E66  00F7               	movwf	((??___ftge+0)+0+1)
  9808  1E67  3080               	movlw	080h
  9809  1E68  00F8               	movwf	((??___ftge+0)+0+2)
  9810  1E69  0973               	comf	(___ftge@ff2),w
  9811  1E6A  00F9               	movwf	(??___ftge+3)+0
  9812  1E6B  0974               	comf	(___ftge@ff2+1),w
  9813  1E6C  00FA               	movwf	((??___ftge+3)+0+1)
  9814  1E6D  0975               	comf	(___ftge@ff2+2),w
  9815  1E6E  00FB               	movwf	((??___ftge+3)+0+2)
  9816  1E6F  0AF9               	incf	(??___ftge+3)+0,f
  9817  1E70  1903               	skipnz
  9818  1E71  0AFA               	incf	((??___ftge+3)+0+1),f
  9819  1E72  1903               	skipnz
  9820  1E73  0AFB               	incf	((??___ftge+3)+0+2),f
  9821  1E74  0879               	movf	0+(??___ftge+3)+0,w
  9822  1E75  07F6               	addwf	(??___ftge+0)+0,f
  9823  1E76  087A               	movf	1+(??___ftge+3)+0,w
  9824  1E77  1803               	skipnc
  9825  1E78  0F7A               	incfsz	1+(??___ftge+3)+0,w
  9826  1E79  2E7B               	goto	u4041
  9827  1E7A  2E7C               	goto	u4042
  9828  1E7B                     u4041:
  9829  1E7B  07F7               	addwf	(??___ftge+0)+1,f
  9830                           	
  9831  1E7C                     u4042:
  9832  1E7C  087B               	movf	2+(??___ftge+3)+0,w
  9833  1E7D  1803               	skipnc
  9834  1E7E  0F7B               	incfsz	2+(??___ftge+3)+0,w
  9835  1E7F  2E81               	goto	u4043
  9836  1E80  2E82               	goto	u4044
  9837  1E81                     u4043:
  9838  1E81  07F8               	addwf	(??___ftge+0)+2,f
  9839                           	
  9840  1E82                     u4044:
  9841  1E82  0876               	movf	0+(??___ftge+0)+0,w
  9842  1E83  00F3               	movwf	(___ftge@ff2)
  9843  1E84  0877               	movf	1+(??___ftge+0)+0,w
  9844  1E85  00F4               	movwf	(___ftge@ff2+1)
  9845  1E86  0878               	movf	2+(??___ftge+0)+0,w
  9846  1E87  00F5               	movwf	(___ftge@ff2+2)
  9847  1E88  2E89               	goto	l9742
  9848                           	
  9849  1E89                     l6128:	
  9850                           	line	10
  9851                           	
  9852  1E89                     l9742:	
  9853  1E89  3080               	movlw	080h
  9854  1E8A  06F2               	xorwf	(___ftge@ff1+2),f
  9855                           	line	11
  9856                           	
  9857  1E8B                     l9744:	
  9858  1E8B  3080               	movlw	080h
  9859  1E8C  06F5               	xorwf	(___ftge@ff2+2),f
  9860                           	line	12
  9861                           	
  9862  1E8D                     l9746:	
  9863  1E8D  0875               	movf	(___ftge@ff2+2),w
  9864  1E8E  0272               	subwf	(___ftge@ff1+2),w
  9865  1E8F  1D03               	skipz
  9866  1E90  2E97               	goto	u4055
  9867  1E91  0874               	movf	(___ftge@ff2+1),w
  9868  1E92  0271               	subwf	(___ftge@ff1+1),w
  9869  1E93  1D03               	skipz
  9870  1E94  2E97               	goto	u4055
  9871  1E95  0873               	movf	(___ftge@ff2),w
  9872  1E96  0270               	subwf	(___ftge@ff1),w
  9873  1E97                     u4055:
  9874  1E97  1803               	skipnc
  9875  1E98  2E9A               	goto	u4051
  9876  1E99  2E9B               	goto	u4050
  9877  1E9A                     u4051:
  9878  1E9A  2E9D               	goto	l9750
  9879  1E9B                     u4050:
  9880                           	
  9881  1E9B                     l9748:	
  9882  1E9B  1003               	clrc
  9883                           	
  9884  1E9C  2EA0               	goto	l6129
  9885                           	
  9886  1E9D                     l9400:	
  9887                           	
  9888  1E9D                     l9750:	
  9889  1E9D  1403               	setc
  9890                           	
  9891  1E9E  2EA0               	goto	l6129
  9892                           	
  9893  1E9F                     l9402:	
  9894  1E9F  2EA0               	goto	l6129
  9895                           	
  9896  1EA0                     l9752:	
  9897                           	line	13
  9898                           	
  9899  1EA0                     l6129:	
  9900  1EA0  0008               	return
  9901                           	opt stack 0
  9902                           GLOBAL	__end_of___ftge
  9903  1EA1                     	__end_of___ftge:
  9904 ;; =============== function ___ftge ends ============
  9905                           
  9906                           	signat	___ftge,8312
  9907                           	global	___ftneg
  9908                           psect	text739,local,class=CODE,delta=2
  9909                           global __ptext739
  9910  1BCE                     __ptext739:
  9911                           
  9912 ;; *************** function ___ftneg *****************
  9913 ;; Defined at:
  9914 ;;		line 16 in file "C:\Program Files (x86)\HI-TECH Software\PICC\9.82\sources\ftneg.c"
  9915 ;; Parameters:    Size  Location     Type
  9916 ;;  f1              3    0[COMMON] float 
  9917 ;; Auto vars:     Size  Location     Type
  9918 ;;		None
  9919 ;; Return value:  Size  Location     Type
  9920 ;;                  3    0[COMMON] float 
  9921 ;; Registers used:
  9922 ;;		wreg
  9923 ;; Tracked objects:
  9924 ;;		On entry : 0/0
  9925 ;;		On exit  : 0/0
  9926 ;;		Unchanged: 0/0
  9927 ;; Data sizes:     COMMON   BANK0   BANK1   BANK3   BANK2
  9928 ;;      Params:         3       0       0       0       0
  9929 ;;      Locals:         0       0       0       0       0
  9930 ;;      Temps:          0       0       0       0       0
  9931 ;;      Totals:         3       0       0       0       0
  9932 ;;Total ram usage:        3 bytes
  9933 ;; Hardware stack levels used:    1
  9934 ;; This function calls:
  9935 ;;		Nothing
  9936 ;; This function is called by:
  9937 ;;		__doprnt
  9938 ;; This function uses a non-reentrant model
  9939 ;;
  9940                           psect	text739
  9941                           	file	"C:\Program Files (x86)\HI-TECH Software\PICC\9.82\sources\ftneg.c"
  9942                           	line	16
  9943                           	global	__size_of___ftneg
  9944  000C                     	__size_of___ftneg	equ	__end_of___ftneg-___ftneg
  9945                           	
  9946  1BCE                     ___ftneg:	
  9947                           	opt	stack 5
  9948                           ; Regs used in ___ftneg: [wreg]
  9949                           	line	17
  9950                           	
  9951  1BCE                     l9726:	
  9952  1BCE  0872               	movf	(___ftneg@f1+2),w
  9953  1BCF  0471               	iorwf	(___ftneg@f1+1),w
  9954  1BD0  0470               	iorwf	(___ftneg@f1),w
  9955  1BD1  1903               	skipnz
  9956  1BD2  2BD4               	goto	u4001
  9957  1BD3  2BD5               	goto	u4000
  9958  1BD4                     u4001:
  9959  1BD4  2BD8               	goto	l9730
  9960  1BD5                     u4000:
  9961                           	line	18
  9962                           	
  9963  1BD5                     l9728:	
  9964  1BD5  3080               	movlw	080h
  9965  1BD6  06F2               	xorwf	(___ftneg@f1+2),f
  9966  1BD7  2BD8               	goto	l9730
  9967                           	
  9968  1BD8                     l6123:	
  9969                           	line	19
  9970                           	
  9971  1BD8                     l9730:	
  9972  1BD8  2BD9               	goto	l6124
  9973                           	
  9974  1BD9                     l9732:	
  9975                           	line	20
  9976                           	
  9977  1BD9                     l6124:	
  9978  1BD9  0008               	return
  9979                           	opt stack 0
  9980                           GLOBAL	__end_of___ftneg
  9981  1BDA                     	__end_of___ftneg:
  9982 ;; =============== function ___ftneg ends ============
  9983                           
  9984                           	signat	___ftneg,4219
  9985                           	global	___llmod
  9986                           psect	text740,local,class=CODE,delta=2
  9987                           global __ptext740
  9988  1D11                     __ptext740:
  9989                           
  9990 ;; *************** function ___llmod *****************
  9991 ;; Defined at:
  9992 ;;		line 5 in file "C:\Program Files (x86)\HI-TECH Software\PICC\9.82\sources\llmod.c"
  9993 ;; Parameters:    Size  Location     Type
  9994 ;;  divisor         4    0[BANK0 ] unsigned long 
  9995 ;;  dividend        4    4[BANK0 ] unsigned long 
  9996 ;; Auto vars:     Size  Location     Type
  9997 ;;  counter         1    9[BANK0 ] unsigned char 
  9998 ;; Return value:  Size  Location     Type
  9999 ;;                  4    0[BANK0 ] unsigned long 
 10000 ;; Registers used:
 10001 ;;		wreg, status,2, status,0
 10002 ;; Tracked objects:
 10003 ;;		On entry : 0/0
 10004 ;;		On exit  : 0/0
 10005 ;;		Unchanged: 0/0
 10006 ;; Data sizes:     COMMON   BANK0   BANK1   BANK3   BANK2
 10007 ;;      Params:         0       8       0       0       0
 10008 ;;      Locals:         0       1       0       0       0
 10009 ;;      Temps:          0       1       0       0       0
 10010 ;;      Totals:         0      10       0       0       0
 10011 ;;Total ram usage:       10 bytes
 10012 ;; Hardware stack levels used:    1
 10013 ;; This function calls:
 10014 ;;		Nothing
 10015 ;; This function is called by:
 10016 ;;		__doprnt
 10017 ;; This function uses a non-reentrant model
 10018 ;;
 10019                           psect	text740
 10020                           	file	"C:\Program Files (x86)\HI-TECH Software\PICC\9.82\sources\llmod.c"
 10021                           	line	5
 10022                           	global	__size_of___llmod
 10023  005E                     	__size_of___llmod	equ	__end_of___llmod-___llmod
 10024                           	
 10025  1D11                     ___llmod:	
 10026                           	opt	stack 5
 10027                           ; Regs used in ___llmod: [wreg+status,2+status,0]
 10028                           	line	8
 10029                           	
 10030  1D11                     l9706:	
 10031  1D11  1283               	bcf	status, 5	;RP0=0, select bank0
 10032  1D12  1303               	bcf	status, 6	;RP1=0, select bank0
 10033  1D13  0823               	movf	(___llmod@divisor+3),w
 10034  1D14  0422               	iorwf	(___llmod@divisor+2),w
 10035  1D15  0421               	iorwf	(___llmod@divisor+1),w
 10036  1D16  0420               	iorwf	(___llmod@divisor),w
 10037  1D17  1903               	skipnz
 10038  1D18  2D1A               	goto	u3941
 10039  1D19  2D1B               	goto	u3940
 10040  1D1A                     u3941:
 10041  1D1A  2D65               	goto	l9722
 10042  1D1B                     u3940:
 10043                           	line	9
 10044                           	
 10045  1D1B                     l9708:	
 10046  1D1B  01A9               	clrf	(___llmod@counter)
 10047  1D1C  1403               	bsf	status,0
 10048  1D1D  0DA9               	rlf	(___llmod@counter),f
 10049                           	line	10
 10050  1D1E  2D2D               	goto	l9712
 10051                           	
 10052  1D1F                     l6115:	
 10053                           	line	11
 10054                           	
 10055  1D1F                     l9710:	
 10056  1D1F  3001               	movlw	01h
 10057  1D20  00A8               	movwf	(??___llmod+0)+0
 10058  1D21                     u3955:
 10059  1D21  1003               	clrc
 10060  1D22  0DA0               	rlf	(___llmod@divisor),f
 10061  1D23  0DA1               	rlf	(___llmod@divisor+1),f
 10062  1D24  0DA2               	rlf	(___llmod@divisor+2),f
 10063  1D25  0DA3               	rlf	(___llmod@divisor+3),f
 10064  1D26  0BA8               	decfsz	(??___llmod+0)+0
 10065  1D27  2D21               	goto	u3955
 10066                           	line	12
 10067  1D28  3001               	movlw	(01h)
 10068  1D29  00A8               	movwf	(??___llmod+0)+0
 10069  1D2A  0828               	movf	(??___llmod+0)+0,w
 10070  1D2B  07A9               	addwf	(___llmod@counter),f
 10071  1D2C  2D2D               	goto	l9712
 10072                           	line	13
 10073                           	
 10074  1D2D                     l6114:	
 10075                           	line	10
 10076                           	
 10077  1D2D                     l9712:	
 10078  1D2D  1FA3               	btfss	(___llmod@divisor+3),(31)&7
 10079  1D2E  2D30               	goto	u3961
 10080  1D2F  2D31               	goto	u3960
 10081  1D30                     u3961:
 10082  1D30  2D1F               	goto	l9710
 10083  1D31                     u3960:
 10084  1D31  2D33               	goto	l9714
 10085                           	
 10086  1D32                     l6116:	
 10087  1D32  2D33               	goto	l9714
 10088                           	line	14
 10089                           	
 10090  1D33                     l6117:	
 10091                           	line	15
 10092                           	
 10093  1D33                     l9714:	
 10094  1D33  0823               	movf	(___llmod@divisor+3),w
 10095  1D34  0227               	subwf	(___llmod@dividend+3),w
 10096  1D35  1D03               	skipz
 10097  1D36  2D41               	goto	u3975
 10098  1D37  0822               	movf	(___llmod@divisor+2),w
 10099  1D38  0226               	subwf	(___llmod@dividend+2),w
 10100  1D39  1D03               	skipz
 10101  1D3A  2D41               	goto	u3975
 10102  1D3B  0821               	movf	(___llmod@divisor+1),w
 10103  1D3C  0225               	subwf	(___llmod@dividend+1),w
 10104  1D3D  1D03               	skipz
 10105  1D3E  2D41               	goto	u3975
 10106  1D3F  0820               	movf	(___llmod@divisor),w
 10107  1D40  0224               	subwf	(___llmod@dividend),w
 10108  1D41                     u3975:
 10109  1D41  1C03               	skipc
 10110  1D42  2D44               	goto	u3971
 10111  1D43  2D45               	goto	u3970
 10112  1D44                     u3971:
 10113  1D44  2D54               	goto	l9718
 10114  1D45                     u3970:
 10115                           	line	16
 10116                           	
 10117  1D45                     l9716:	
 10118  1D45  0820               	movf	(___llmod@divisor),w
 10119  1D46  02A4               	subwf	(___llmod@dividend),f
 10120  1D47  0821               	movf	(___llmod@divisor+1),w
 10121  1D48  1C03               	skipc
 10122  1D49  0F21               	incfsz	(___llmod@divisor+1),w
 10123  1D4A  02A5               	subwf	(___llmod@dividend+1),f
 10124  1D4B  0822               	movf	(___llmod@divisor+2),w
 10125  1D4C  1C03               	skipc
 10126  1D4D  0F22               	incfsz	(___llmod@divisor+2),w
 10127  1D4E  02A6               	subwf	(___llmod@dividend+2),f
 10128  1D4F  0823               	movf	(___llmod@divisor+3),w
 10129  1D50  1C03               	skipc
 10130  1D51  0F23               	incfsz	(___llmod@divisor+3),w
 10131  1D52  02A7               	subwf	(___llmod@dividend+3),f
 10132  1D53  2D54               	goto	l9718
 10133                           	
 10134  1D54                     l6118:	
 10135                           	line	17
 10136                           	
 10137  1D54                     l9718:	
 10138  1D54  3001               	movlw	01h
 10139  1D55                     u3985:
 10140  1D55  1003               	clrc
 10141  1D56  0CA3               	rrf	(___llmod@divisor+3),f
 10142  1D57  0CA2               	rrf	(___llmod@divisor+2),f
 10143  1D58  0CA1               	rrf	(___llmod@divisor+1),f
 10144  1D59  0CA0               	rrf	(___llmod@divisor),f
 10145  1D5A  3EFF               	addlw	-1
 10146  1D5B  1D03               	skipz
 10147  1D5C  2D55               	goto	u3985
 10148                           
 10149                           	line	18
 10150                           	
 10151  1D5D                     l9720:	
 10152  1D5D  3001               	movlw	low(01h)
 10153  1D5E  02A9               	subwf	(___llmod@counter),f
 10154  1D5F  1D03               	btfss	status,2
 10155  1D60  2D62               	goto	u3991
 10156  1D61  2D63               	goto	u3990
 10157  1D62                     u3991:
 10158  1D62  2D33               	goto	l9714
 10159  1D63                     u3990:
 10160  1D63  2D65               	goto	l9722
 10161                           	
 10162  1D64                     l6119:	
 10163  1D64  2D65               	goto	l9722
 10164                           	line	19
 10165                           	
 10166  1D65                     l6113:	
 10167                           	line	20
 10168                           	
 10169  1D65                     l9722:	
 10170  1D65  0827               	movf	(___llmod@dividend+3),w
 10171  1D66  00A3               	movwf	(?___llmod+3)
 10172  1D67  0826               	movf	(___llmod@dividend+2),w
 10173  1D68  00A2               	movwf	(?___llmod+2)
 10174  1D69  0825               	movf	(___llmod@dividend+1),w
 10175  1D6A  00A1               	movwf	(?___llmod+1)
 10176  1D6B  0824               	movf	(___llmod@dividend),w
 10177  1D6C  00A0               	movwf	(?___llmod)
 10178                           
 10179  1D6D  2D6E               	goto	l6120
 10180                           	
 10181  1D6E                     l9724:	
 10182                           	line	21
 10183                           	
 10184  1D6E                     l6120:	
 10185  1D6E  0008               	return
 10186                           	opt stack 0
 10187                           GLOBAL	__end_of___llmod
 10188  1D6F                     	__end_of___llmod:
 10189 ;; =============== function ___llmod ends ============
 10190                           
 10191                           	signat	___llmod,8316
 10192                           	global	___awdiv
 10193                           psect	text741,local,class=CODE,delta=2
 10194                           global __ptext741
 10195  1F0F                     __ptext741:
 10196                           
 10197 ;; *************** function ___awdiv *****************
 10198 ;; Defined at:
 10199 ;;		line 5 in file "C:\Program Files (x86)\HI-TECH Software\PICC\9.82\sources\awdiv.c"
 10200 ;; Parameters:    Size  Location     Type
 10201 ;;  divisor         2    7[COMMON] int 
 10202 ;;  dividend        2    9[COMMON] int 
 10203 ;; Auto vars:     Size  Location     Type
 10204 ;;  quotient        2    2[BANK0 ] int 
 10205 ;;  sign            1    1[BANK0 ] unsigned char 
 10206 ;;  counter         1    0[BANK0 ] unsigned char 
 10207 ;; Return value:  Size  Location     Type
 10208 ;;                  2    7[COMMON] int 
 10209 ;; Registers used:
 10210 ;;		wreg, status,2, status,0
 10211 ;; Tracked objects:
 10212 ;;		On entry : 0/0
 10213 ;;		On exit  : 0/0
 10214 ;;		Unchanged: 0/0
 10215 ;; Data sizes:     COMMON   BANK0   BANK1   BANK3   BANK2
 10216 ;;      Params:         4       0       0       0       0
 10217 ;;      Locals:         0       4       0       0       0
 10218 ;;      Temps:          1       0       0       0       0
 10219 ;;      Totals:         5       4       0       0       0
 10220 ;;Total ram usage:        9 bytes
 10221 ;; Hardware stack levels used:    1
 10222 ;; This function calls:
 10223 ;;		Nothing
 10224 ;; This function is called by:
 10225 ;;		_fround
 10226 ;;		_scale
 10227 ;;		__doprnt
 10228 ;; This function uses a non-reentrant model
 10229 ;;
 10230                           psect	text741
 10231                           	file	"C:\Program Files (x86)\HI-TECH Software\PICC\9.82\sources\awdiv.c"
 10232                           	line	5
 10233                           	global	__size_of___awdiv
 10234  0076                     	__size_of___awdiv	equ	__end_of___awdiv-___awdiv
 10235                           	
 10236  1F0F                     ___awdiv:	
 10237                           	opt	stack 4
 10238                           ; Regs used in ___awdiv: [wreg+status,2+status,0]
 10239                           	line	9
 10240                           	
 10241  1F0F                     l9666:	
 10242  1F0F  1283               	bcf	status, 5	;RP0=0, select bank0
 10243  1F10  1303               	bcf	status, 6	;RP1=0, select bank0
 10244  1F11  01A1               	clrf	(___awdiv@sign)
 10245                           	line	10
 10246  1F12  1FF8               	btfss	(___awdiv@divisor+1),7
 10247  1F13  2F15               	goto	u3841
 10248  1F14  2F16               	goto	u3840
 10249  1F15                     u3841:
 10250  1F15  2F1F               	goto	l9670
 10251  1F16                     u3840:
 10252                           	line	11
 10253                           	
 10254  1F16                     l9668:	
 10255  1F16  09F7               	comf	(___awdiv@divisor),f
 10256  1F17  09F8               	comf	(___awdiv@divisor+1),f
 10257  1F18  0AF7               	incf	(___awdiv@divisor),f
 10258  1F19  1903               	skipnz
 10259  1F1A  0AF8               	incf	(___awdiv@divisor+1),f
 10260                           	line	12
 10261  1F1B  01A1               	clrf	(___awdiv@sign)
 10262  1F1C  1403               	bsf	status,0
 10263  1F1D  0DA1               	rlf	(___awdiv@sign),f
 10264  1F1E  2F1F               	goto	l9670
 10265                           	line	13
 10266                           	
 10267  1F1F                     l6100:	
 10268                           	line	14
 10269                           	
 10270  1F1F                     l9670:	
 10271  1F1F  1FFA               	btfss	(___awdiv@dividend+1),7
 10272  1F20  2F22               	goto	u3851
 10273  1F21  2F23               	goto	u3850
 10274  1F22                     u3851:
 10275  1F22  2F2D               	goto	l9676
 10276  1F23                     u3850:
 10277                           	line	15
 10278                           	
 10279  1F23                     l9672:	
 10280  1F23  09F9               	comf	(___awdiv@dividend),f
 10281  1F24  09FA               	comf	(___awdiv@dividend+1),f
 10282  1F25  0AF9               	incf	(___awdiv@dividend),f
 10283  1F26  1903               	skipnz
 10284  1F27  0AFA               	incf	(___awdiv@dividend+1),f
 10285                           	line	16
 10286                           	
 10287  1F28                     l9674:	
 10288  1F28  3001               	movlw	(01h)
 10289  1F29  00FB               	movwf	(??___awdiv+0)+0
 10290  1F2A  087B               	movf	(??___awdiv+0)+0,w
 10291  1F2B  06A1               	xorwf	(___awdiv@sign),f
 10292  1F2C  2F2D               	goto	l9676
 10293                           	line	17
 10294                           	
 10295  1F2D                     l6101:	
 10296                           	line	18
 10297                           	
 10298  1F2D                     l9676:	
 10299  1F2D  01A2               	clrf	(___awdiv@quotient)
 10300  1F2E  01A3               	clrf	(___awdiv@quotient+1)
 10301                           	line	19
 10302                           	
 10303  1F2F                     l9678:	
 10304  1F2F  0878               	movf	(___awdiv@divisor+1),w
 10305  1F30  0477               	iorwf	(___awdiv@divisor),w
 10306  1F31  1903               	skipnz
 10307  1F32  2F34               	goto	u3861
 10308  1F33  2F35               	goto	u3860
 10309  1F34                     u3861:
 10310  1F34  2F73               	goto	l9698
 10311  1F35                     u3860:
 10312                           	line	20
 10313                           	
 10314  1F35                     l9680:	
 10315  1F35  01A0               	clrf	(___awdiv@counter)
 10316  1F36  1403               	bsf	status,0
 10317  1F37  0DA0               	rlf	(___awdiv@counter),f
 10318                           	line	21
 10319  1F38  2F45               	goto	l9686
 10320                           	
 10321  1F39                     l6104:	
 10322                           	line	22
 10323                           	
 10324  1F39                     l9682:	
 10325  1F39  3001               	movlw	01h
 10326                           	
 10327  1F3A                     u3875:
 10328  1F3A  1003               	clrc
 10329  1F3B  0DF7               	rlf	(___awdiv@divisor),f
 10330  1F3C  0DF8               	rlf	(___awdiv@divisor+1),f
 10331  1F3D  3EFF               	addlw	-1
 10332  1F3E  1D03               	skipz
 10333  1F3F  2F3A               	goto	u3875
 10334                           	line	23
 10335                           	
 10336  1F40                     l9684:	
 10337  1F40  3001               	movlw	(01h)
 10338  1F41  00FB               	movwf	(??___awdiv+0)+0
 10339  1F42  087B               	movf	(??___awdiv+0)+0,w
 10340  1F43  07A0               	addwf	(___awdiv@counter),f
 10341  1F44  2F45               	goto	l9686
 10342                           	line	24
 10343                           	
 10344  1F45                     l6103:	
 10345                           	line	21
 10346                           	
 10347  1F45                     l9686:	
 10348  1F45  1FF8               	btfss	(___awdiv@divisor+1),(15)&7
 10349  1F46  2F48               	goto	u3881
 10350  1F47  2F49               	goto	u3880
 10351  1F48                     u3881:
 10352  1F48  2F39               	goto	l9682
 10353  1F49                     u3880:
 10354  1F49  2F4B               	goto	l9688
 10355                           	
 10356  1F4A                     l6105:	
 10357  1F4A  2F4B               	goto	l9688
 10358                           	line	25
 10359                           	
 10360  1F4B                     l6106:	
 10361                           	line	26
 10362                           	
 10363  1F4B                     l9688:	
 10364  1F4B  3001               	movlw	01h
 10365                           	
 10366  1F4C                     u3895:
 10367  1F4C  1003               	clrc
 10368  1F4D  0DA2               	rlf	(___awdiv@quotient),f
 10369  1F4E  0DA3               	rlf	(___awdiv@quotient+1),f
 10370  1F4F  3EFF               	addlw	-1
 10371  1F50  1D03               	skipz
 10372  1F51  2F4C               	goto	u3895
 10373                           	line	27
 10374  1F52  0878               	movf	(___awdiv@divisor+1),w
 10375  1F53  027A               	subwf	(___awdiv@dividend+1),w
 10376  1F54  1D03               	skipz
 10377  1F55  2F58               	goto	u3905
 10378  1F56  0877               	movf	(___awdiv@divisor),w
 10379  1F57  0279               	subwf	(___awdiv@dividend),w
 10380  1F58                     u3905:
 10381  1F58  1C03               	skipc
 10382  1F59  2F5B               	goto	u3901
 10383  1F5A  2F5C               	goto	u3900
 10384  1F5B                     u3901:
 10385  1F5B  2F64               	goto	l9694
 10386  1F5C                     u3900:
 10387                           	line	28
 10388                           	
 10389  1F5C                     l9690:	
 10390  1F5C  0877               	movf	(___awdiv@divisor),w
 10391  1F5D  02F9               	subwf	(___awdiv@dividend),f
 10392  1F5E  0878               	movf	(___awdiv@divisor+1),w
 10393  1F5F  1C03               	skipc
 10394  1F60  03FA               	decf	(___awdiv@dividend+1),f
 10395  1F61  02FA               	subwf	(___awdiv@dividend+1),f
 10396                           	line	29
 10397                           	
 10398  1F62                     l9692:	
 10399  1F62  1422               	bsf	(___awdiv@quotient)+(0/8),(0)&7
 10400  1F63  2F64               	goto	l9694
 10401                           	line	30
 10402                           	
 10403  1F64                     l6107:	
 10404                           	line	31
 10405                           	
 10406  1F64                     l9694:	
 10407  1F64  3001               	movlw	01h
 10408                           	
 10409  1F65                     u3915:
 10410  1F65  1003               	clrc
 10411  1F66  0CF8               	rrf	(___awdiv@divisor+1),f
 10412  1F67  0CF7               	rrf	(___awdiv@divisor),f
 10413  1F68  3EFF               	addlw	-1
 10414  1F69  1D03               	skipz
 10415  1F6A  2F65               	goto	u3915
 10416                           	line	32
 10417                           	
 10418  1F6B                     l9696:	
 10419  1F6B  3001               	movlw	low(01h)
 10420  1F6C  02A0               	subwf	(___awdiv@counter),f
 10421  1F6D  1D03               	btfss	status,2
 10422  1F6E  2F70               	goto	u3921
 10423  1F6F  2F71               	goto	u3920
 10424  1F70                     u3921:
 10425  1F70  2F4B               	goto	l9688
 10426  1F71                     u3920:
 10427  1F71  2F73               	goto	l9698
 10428                           	
 10429  1F72                     l6108:	
 10430  1F72  2F73               	goto	l9698
 10431                           	line	33
 10432                           	
 10433  1F73                     l6102:	
 10434                           	line	34
 10435                           	
 10436  1F73                     l9698:	
 10437  1F73  0821               	movf	(___awdiv@sign),w
 10438  1F74  1D03               	skipz
 10439  1F75  2F77               	goto	u3930
 10440  1F76  2F7D               	goto	l9702
 10441  1F77                     u3930:
 10442                           	line	35
 10443                           	
 10444  1F77                     l9700:	
 10445  1F77  09A2               	comf	(___awdiv@quotient),f
 10446  1F78  09A3               	comf	(___awdiv@quotient+1),f
 10447  1F79  0AA2               	incf	(___awdiv@quotient),f
 10448  1F7A  1903               	skipnz
 10449  1F7B  0AA3               	incf	(___awdiv@quotient+1),f
 10450  1F7C  2F7D               	goto	l9702
 10451                           	
 10452  1F7D                     l6109:	
 10453                           	line	36
 10454                           	
 10455  1F7D                     l9702:	
 10456  1F7D  0823               	movf	(___awdiv@quotient+1),w
 10457  1F7E  01F8               	clrf	(?___awdiv+1)
 10458  1F7F  07F8               	addwf	(?___awdiv+1)
 10459  1F80  0822               	movf	(___awdiv@quotient),w
 10460  1F81  01F7               	clrf	(?___awdiv)
 10461  1F82  07F7               	addwf	(?___awdiv)
 10462                           
 10463  1F83  2F84               	goto	l6110
 10464                           	
 10465  1F84                     l9704:	
 10466                           	line	37
 10467                           	
 10468  1F84                     l6110:	
 10469  1F84  0008               	return
 10470                           	opt stack 0
 10471                           GLOBAL	__end_of___awdiv
 10472  1F85                     	__end_of___awdiv:
 10473 ;; =============== function ___awdiv ends ============
 10474                           
 10475                           	signat	___awdiv,8314
 10476                           	global	___fttol
 10477                           psect	text742,local,class=CODE,delta=2
 10478                           global __ptext742
 10479  1101                     __ptext742:
 10480                           
 10481 ;; *************** function ___fttol *****************
 10482 ;; Defined at:
 10483 ;;		line 45 in file "C:\Program Files (x86)\HI-TECH Software\PICC\9.82\sources\fttol.c"
 10484 ;; Parameters:    Size  Location     Type
 10485 ;;  f1              3    7[BANK0 ] float 
 10486 ;; Auto vars:     Size  Location     Type
 10487 ;;  lval            4   16[BANK0 ] unsigned long 
 10488 ;;  exp1            1   20[BANK0 ] unsigned char 
 10489 ;;  sign1           1   15[BANK0 ] unsigned char 
 10490 ;; Return value:  Size  Location     Type
 10491 ;;                  4    7[BANK0 ] long 
 10492 ;; Registers used:
 10493 ;;		wreg, status,2, status,0
 10494 ;; Tracked objects:
 10495 ;;		On entry : 0/0
 10496 ;;		On exit  : 0/0
 10497 ;;		Unchanged: 0/0
 10498 ;; Data sizes:     COMMON   BANK0   BANK1   BANK3   BANK2
 10499 ;;      Params:         0       4       0       0       0
 10500 ;;      Locals:         0       6       0       0       0
 10501 ;;      Temps:          0       4       0       0       0
 10502 ;;      Totals:         0      14       0       0       0
 10503 ;;Total ram usage:       14 bytes
 10504 ;; Hardware stack levels used:    1
 10505 ;; This function calls:
 10506 ;;		Nothing
 10507 ;; This function is called by:
 10508 ;;		__doprnt
 10509 ;; This function uses a non-reentrant model
 10510 ;;
 10511                           psect	text742
 10512                           	file	"C:\Program Files (x86)\HI-TECH Software\PICC\9.82\sources\fttol.c"
 10513                           	line	45
 10514                           	global	__size_of___fttol
 10515  00A6                     	__size_of___fttol	equ	__end_of___fttol-___fttol
 10516                           	
 10517  1101                     ___fttol:	
 10518                           	opt	stack 5
 10519                           ; Regs used in ___fttol: [wreg+status,2+status,0]
 10520                           	line	49
 10521                           	
 10522  1101                     l9602:	
 10523  1101  1283               	bcf	status, 5	;RP0=0, select bank0
 10524  1102  1303               	bcf	status, 6	;RP1=0, select bank0
 10525  1103  0827               	movf	(___fttol@f1),w
 10526  1104  00AB               	movwf	((??___fttol+0)+0)
 10527  1105  0828               	movf	(___fttol@f1+1),w
 10528  1106  00AC               	movwf	((??___fttol+0)+0+1)
 10529  1107  0829               	movf	(___fttol@f1+2),w
 10530  1108  00AD               	movwf	((??___fttol+0)+0+2)
 10531  1109  1003               	clrc
 10532  110A  0D2C               	rlf	(??___fttol+0)+1,w
 10533  110B  0D2D               	rlf	(??___fttol+0)+2,w
 10534  110C  00AE               	movwf	(??___fttol+3)+0
 10535  110D  082E               	movf	(??___fttol+3)+0,w
 10536  110E  00B4               	movwf	(___fttol@exp1)
 10537  110F  08B4               	movf	((___fttol@exp1)),f
 10538  1110  1D03               	skipz
 10539  1111  2913               	goto	u3721
 10540  1112  2914               	goto	u3720
 10541  1113                     u3721:
 10542  1113  291E               	goto	l9608
 10543  1114                     u3720:
 10544                           	line	50
 10545                           	
 10546  1114                     l9604:	
 10547  1114  3000               	movlw	0
 10548  1115  00AA               	movwf	(?___fttol+3)
 10549  1116  3000               	movlw	0
 10550  1117  00A9               	movwf	(?___fttol+2)
 10551  1118  3000               	movlw	0
 10552  1119  00A8               	movwf	(?___fttol+1)
 10553  111A  3000               	movlw	0
 10554  111B  00A7               	movwf	(?___fttol)
 10555                           
 10556  111C  29A6               	goto	l6070
 10557                           	
 10558  111D                     l9606:	
 10559  111D  29A6               	goto	l6070
 10560                           	
 10561  111E                     l6069:	
 10562                           	line	51
 10563                           	
 10564  111E                     l9608:	
 10565  111E  0827               	movf	(___fttol@f1),w
 10566  111F  00AB               	movwf	((??___fttol+0)+0)
 10567  1120  0828               	movf	(___fttol@f1+1),w
 10568  1121  00AC               	movwf	((??___fttol+0)+0+1)
 10569  1122  0829               	movf	(___fttol@f1+2),w
 10570  1123  00AD               	movwf	((??___fttol+0)+0+2)
 10571  1124  3017               	movlw	017h
 10572  1125                     u3735:
 10573  1125  1003               	clrc
 10574  1126  0CAD               	rrf	(??___fttol+0)+2,f
 10575  1127  0CAC               	rrf	(??___fttol+0)+1,f
 10576  1128  0CAB               	rrf	(??___fttol+0)+0,f
 10577  1129                     u3730:
 10578  1129  3EFF               	addlw	-1
 10579  112A  1D03               	skipz
 10580  112B  2925               	goto	u3735
 10581  112C  082B               	movf	0+(??___fttol+0)+0,w
 10582  112D  00AE               	movwf	(??___fttol+3)+0
 10583  112E  082E               	movf	(??___fttol+3)+0,w
 10584  112F  00AF               	movwf	(___fttol@sign1)
 10585                           	line	52
 10586                           	
 10587  1130                     l9610:	
 10588  1130  17A8               	bsf	(___fttol@f1)+(15/8),(15)&7
 10589                           	line	53
 10590                           	
 10591  1131                     l9612:	
 10592  1131  30FF               	movlw	0FFh
 10593  1132  05A7               	andwf	(___fttol@f1),f
 10594  1133  30FF               	movlw	0FFh
 10595  1134  05A8               	andwf	(___fttol@f1+1),f
 10596  1135  3000               	movlw	0
 10597  1136  05A9               	andwf	(___fttol@f1+2),f
 10598                           	line	54
 10599                           	
 10600  1137                     l9614:	
 10601  1137  0827               	movf	(___fttol@f1),w
 10602  1138  00B0               	movwf	(___fttol@lval)
 10603  1139  0828               	movf	(___fttol@f1+1),w
 10604  113A  00B1               	movwf	((___fttol@lval))+1
 10605  113B  0829               	movf	(___fttol@f1+2),w
 10606  113C  00B2               	movwf	((___fttol@lval))+2
 10607  113D  01B3               	clrf	((___fttol@lval))+3
 10608                           	line	55
 10609                           	
 10610  113E                     l9616:	
 10611  113E  308E               	movlw	low(08Eh)
 10612  113F  02B4               	subwf	(___fttol@exp1),f
 10613                           	line	56
 10614                           	
 10615  1140                     l9618:	
 10616  1140  1FB4               	btfss	(___fttol@exp1),7
 10617  1141  2943               	goto	u3741
 10618  1142  2944               	goto	u3740
 10619  1143                     u3741:
 10620  1143  2969               	goto	l9628
 10621  1144                     u3740:
 10622                           	line	57
 10623                           	
 10624  1144                     l9620:	
 10625  1144  0834               	movf	(___fttol@exp1),w
 10626  1145  3A80               	xorlw	80h
 10627  1146  3E8F               	addlw	-((-15)^80h)
 10628  1147  1803               	skipnc
 10629  1148  294A               	goto	u3751
 10630  1149  294B               	goto	u3750
 10631  114A                     u3751:
 10632  114A  2956               	goto	l9626
 10633  114B                     u3750:
 10634                           	line	58
 10635                           	
 10636  114B                     l9622:	
 10637  114B  3000               	movlw	0
 10638  114C  00AA               	movwf	(?___fttol+3)
 10639  114D  3000               	movlw	0
 10640  114E  00A9               	movwf	(?___fttol+2)
 10641  114F  3000               	movlw	0
 10642  1150  00A8               	movwf	(?___fttol+1)
 10643  1151  3000               	movlw	0
 10644  1152  00A7               	movwf	(?___fttol)
 10645                           
 10646  1153  29A6               	goto	l6070
 10647                           	
 10648  1154                     l9624:	
 10649  1154  29A6               	goto	l6070
 10650                           	
 10651  1155                     l6072:	
 10652  1155  2956               	goto	l9626
 10653                           	line	59
 10654                           	
 10655  1156                     l6073:	
 10656                           	line	60
 10657                           	
 10658  1156                     l9626:	
 10659  1156  3001               	movlw	01h
 10660  1157                     u3765:
 10661  1157  1003               	clrc
 10662  1158  0CB3               	rrf	(___fttol@lval+3),f
 10663  1159  0CB2               	rrf	(___fttol@lval+2),f
 10664  115A  0CB1               	rrf	(___fttol@lval+1),f
 10665  115B  0CB0               	rrf	(___fttol@lval),f
 10666  115C  3EFF               	addlw	-1
 10667  115D  1D03               	skipz
 10668  115E  2957               	goto	u3765
 10669                           
 10670                           	line	61
 10671  115F  3001               	movlw	(01h)
 10672  1160  00AB               	movwf	(??___fttol+0)+0
 10673  1161  082B               	movf	(??___fttol+0)+0,w
 10674  1162  07B4               	addwf	(___fttol@exp1),f
 10675  1163  1D03               	btfss	status,2
 10676  1164  2966               	goto	u3771
 10677  1165  2967               	goto	u3770
 10678  1166                     u3771:
 10679  1166  2956               	goto	l9626
 10680  1167                     u3770:
 10681  1167  298D               	goto	l9638
 10682                           	
 10683  1168                     l6074:	
 10684                           	line	62
 10685  1168  298D               	goto	l9638
 10686                           	
 10687  1169                     l6071:	
 10688                           	line	63
 10689                           	
 10690  1169                     l9628:	
 10691  1169  3018               	movlw	(018h)
 10692  116A  0234               	subwf	(___fttol@exp1),w
 10693  116B  1C03               	skipc
 10694  116C  296E               	goto	u3781
 10695  116D  296F               	goto	u3780
 10696  116E                     u3781:
 10697  116E  2986               	goto	l9636
 10698  116F                     u3780:
 10699                           	line	64
 10700                           	
 10701  116F                     l9630:	
 10702  116F  3000               	movlw	0
 10703  1170  00AA               	movwf	(?___fttol+3)
 10704  1171  3000               	movlw	0
 10705  1172  00A9               	movwf	(?___fttol+2)
 10706  1173  3000               	movlw	0
 10707  1174  00A8               	movwf	(?___fttol+1)
 10708  1175  3000               	movlw	0
 10709  1176  00A7               	movwf	(?___fttol)
 10710                           
 10711  1177  29A6               	goto	l6070
 10712                           	
 10713  1178                     l9632:	
 10714  1178  29A6               	goto	l6070
 10715                           	
 10716  1179                     l6076:	
 10717                           	line	65
 10718  1179  2986               	goto	l9636
 10719                           	
 10720  117A                     l6078:	
 10721                           	line	66
 10722                           	
 10723  117A                     l9634:	
 10724  117A  3001               	movlw	01h
 10725  117B  00AB               	movwf	(??___fttol+0)+0
 10726  117C                     u3795:
 10727  117C  1003               	clrc
 10728  117D  0DB0               	rlf	(___fttol@lval),f
 10729  117E  0DB1               	rlf	(___fttol@lval+1),f
 10730  117F  0DB2               	rlf	(___fttol@lval+2),f
 10731  1180  0DB3               	rlf	(___fttol@lval+3),f
 10732  1181  0BAB               	decfsz	(??___fttol+0)+0
 10733  1182  297C               	goto	u3795
 10734                           	line	67
 10735  1183  3001               	movlw	low(01h)
 10736  1184  02B4               	subwf	(___fttol@exp1),f
 10737  1185  2986               	goto	l9636
 10738                           	line	68
 10739                           	
 10740  1186                     l6077:	
 10741                           	line	65
 10742                           	
 10743  1186                     l9636:	
 10744  1186  08B4               	movf	(___fttol@exp1),f
 10745  1187  1D03               	skipz
 10746  1188  298A               	goto	u3801
 10747  1189  298B               	goto	u3800
 10748  118A                     u3801:
 10749  118A  297A               	goto	l9634
 10750  118B                     u3800:
 10751  118B  298D               	goto	l9638
 10752                           	
 10753  118C                     l6079:	
 10754  118C  298D               	goto	l9638
 10755                           	line	69
 10756                           	
 10757  118D                     l6075:	
 10758                           	line	70
 10759                           	
 10760  118D                     l9638:	
 10761  118D  082F               	movf	(___fttol@sign1),w
 10762  118E  1D03               	skipz
 10763  118F  2991               	goto	u3810
 10764  1190  299D               	goto	l9642
 10765  1191                     u3810:
 10766                           	line	71
 10767                           	
 10768  1191                     l9640:	
 10769  1191  09B0               	comf	(___fttol@lval),f
 10770  1192  09B1               	comf	(___fttol@lval+1),f
 10771  1193  09B2               	comf	(___fttol@lval+2),f
 10772  1194  09B3               	comf	(___fttol@lval+3),f
 10773  1195  0AB0               	incf	(___fttol@lval),f
 10774  1196  1903               	skipnz
 10775  1197  0AB1               	incf	(___fttol@lval+1),f
 10776  1198  1903               	skipnz
 10777  1199  0AB2               	incf	(___fttol@lval+2),f
 10778  119A  1903               	skipnz
 10779  119B  0AB3               	incf	(___fttol@lval+3),f
 10780  119C  299D               	goto	l9642
 10781                           	
 10782  119D                     l6080:	
 10783                           	line	72
 10784                           	
 10785  119D                     l9642:	
 10786  119D  0833               	movf	(___fttol@lval+3),w
 10787  119E  00AA               	movwf	(?___fttol+3)
 10788  119F  0832               	movf	(___fttol@lval+2),w
 10789  11A0  00A9               	movwf	(?___fttol+2)
 10790  11A1  0831               	movf	(___fttol@lval+1),w
 10791  11A2  00A8               	movwf	(?___fttol+1)
 10792  11A3  0830               	movf	(___fttol@lval),w
 10793  11A4  00A7               	movwf	(?___fttol)
 10794                           
 10795  11A5  29A6               	goto	l6070
 10796                           	
 10797  11A6                     l9644:	
 10798                           	line	73
 10799                           	
 10800  11A6                     l6070:	
 10801  11A6  0008               	return
 10802                           	opt stack 0
 10803                           GLOBAL	__end_of___fttol
 10804  11A7                     	__end_of___fttol:
 10805 ;; =============== function ___fttol ends ============
 10806                           
 10807                           	signat	___fttol,4220
 10808                           	global	___ftpack
 10809                           psect	text743,local,class=CODE,delta=2
 10810                           global __ptext743
 10811  1F85                     __ptext743:
 10812                           
 10813 ;; *************** function ___ftpack *****************
 10814 ;; Defined at:
 10815 ;;		line 63 in file "C:\Program Files (x86)\HI-TECH Software\PICC\9.82\sources\float.c"
 10816 ;; Parameters:    Size  Location     Type
 10817 ;;  arg             3    0[COMMON] unsigned um
 10818 ;;  exp             1    3[COMMON] unsigned char 
 10819 ;;  sign            1    4[COMMON] unsigned char 
 10820 ;; Auto vars:     Size  Location     Type
 10821 ;;		None
 10822 ;; Return value:  Size  Location     Type
 10823 ;;                  3    0[COMMON] float 
 10824 ;; Registers used:
 10825 ;;		wreg, status,2, status,0
 10826 ;; Tracked objects:
 10827 ;;		On entry : 0/0
 10828 ;;		On exit  : 0/0
 10829 ;;		Unchanged: 0/0
 10830 ;; Data sizes:     COMMON   BANK0   BANK1   BANK3   BANK2
 10831 ;;      Params:         5       0       0       0       0
 10832 ;;      Locals:         0       0       0       0       0
 10833 ;;      Temps:          3       0       0       0       0
 10834 ;;      Totals:         8       0       0       0       0
 10835 ;;Total ram usage:        8 bytes
 10836 ;; Hardware stack levels used:    1
 10837 ;; This function calls:
 10838 ;;		Nothing
 10839 ;; This function is called by:
 10840 ;;		___ftadd
 10841 ;;		___ftdiv
 10842 ;;		___ftmul
 10843 ;;		___lwtoft
 10844 ;;		___lltoft
 10845 ;;		___lbtoft
 10846 ;;		___abtoft
 10847 ;;		___awtoft
 10848 ;;		___altoft
 10849 ;;		___attoft
 10850 ;;		___lttoft
 10851 ;; This function uses a non-reentrant model
 10852 ;;
 10853                           psect	text743
 10854                           	file	"C:\Program Files (x86)\HI-TECH Software\PICC\9.82\sources\float.c"
 10855                           	line	63
 10856                           	global	__size_of___ftpack
 10857  007B                     	__size_of___ftpack	equ	__end_of___ftpack-___ftpack
 10858                           	
 10859  1F85                     ___ftpack:	
 10860                           	opt	stack 3
 10861                           ; Regs used in ___ftpack: [wreg+status,2+status,0]
 10862                           	line	64
 10863                           	
 10864  1F85                     l9572:	
 10865  1F85  0873               	movf	(___ftpack@exp),w
 10866  1F86  1D03               	skipz
 10867  1F87  2F89               	goto	u3610
 10868  1F88  2F91               	goto	l9576
 10869  1F89                     u3610:
 10870                           	
 10871  1F89                     l9574:	
 10872  1F89  0872               	movf	(___ftpack@arg+2),w
 10873  1F8A  0471               	iorwf	(___ftpack@arg+1),w
 10874  1F8B  0470               	iorwf	(___ftpack@arg),w
 10875  1F8C  1D03               	skipz
 10876  1F8D  2F8F               	goto	u3621
 10877  1F8E  2F90               	goto	u3620
 10878  1F8F                     u3621:
 10879  1F8F  2FA7               	goto	l9582
 10880  1F90                     u3620:
 10881  1F90  2F91               	goto	l9576
 10882                           	
 10883  1F91                     l6328:	
 10884                           	line	65
 10885                           	
 10886  1F91                     l9576:	
 10887  1F91  3000               	movlw	0x0
 10888  1F92  00F0               	movwf	(?___ftpack)
 10889  1F93  3000               	movlw	0x0
 10890  1F94  00F1               	movwf	(?___ftpack+1)
 10891  1F95  3000               	movlw	0x0
 10892  1F96  00F2               	movwf	(?___ftpack+2)
 10893  1F97  2FFF               	goto	l6329
 10894                           	
 10895  1F98                     l9578:	
 10896  1F98  2FFF               	goto	l6329
 10897                           	
 10898  1F99                     l6326:	
 10899                           	line	66
 10900  1F99  2FA7               	goto	l9582
 10901                           	
 10902  1F9A                     l6331:	
 10903                           	line	67
 10904                           	
 10905  1F9A                     l9580:	
 10906  1F9A  3001               	movlw	(01h)
 10907  1F9B  00F5               	movwf	(??___ftpack+0)+0
 10908  1F9C  0875               	movf	(??___ftpack+0)+0,w
 10909  1F9D  07F3               	addwf	(___ftpack@exp),f
 10910                           	line	68
 10911  1F9E  3001               	movlw	01h
 10912  1F9F                     u3635:
 10913  1F9F  1003               	clrc
 10914  1FA0  0CF2               	rrf	(___ftpack@arg+2),f
 10915  1FA1  0CF1               	rrf	(___ftpack@arg+1),f
 10916  1FA2  0CF0               	rrf	(___ftpack@arg),f
 10917  1FA3  3EFF               	addlw	-1
 10918  1FA4  1D03               	skipz
 10919  1FA5  2F9F               	goto	u3635
 10920                           
 10921  1FA6  2FA7               	goto	l9582
 10922                           	line	69
 10923                           	
 10924  1FA7                     l6330:	
 10925                           	line	66
 10926                           	
 10927  1FA7                     l9582:	
 10928  1FA7  30FE               	movlw	low highword(0FE0000h)
 10929  1FA8  0572               	andwf	(___ftpack@arg+2),w
 10930  1FA9  1D03               	btfss	status,2
 10931  1FAA  2FAC               	goto	u3641
 10932  1FAB  2FAD               	goto	u3640
 10933  1FAC                     u3641:
 10934  1FAC  2F9A               	goto	l9580
 10935  1FAD                     u3640:
 10936  1FAD  2FC5               	goto	l6333
 10937                           	
 10938  1FAE                     l6332:	
 10939                           	line	70
 10940  1FAE  2FC5               	goto	l6333
 10941                           	
 10942  1FAF                     l6334:	
 10943                           	line	71
 10944                           	
 10945  1FAF                     l9584:	
 10946  1FAF  3001               	movlw	(01h)
 10947  1FB0  00F5               	movwf	(??___ftpack+0)+0
 10948  1FB1  0875               	movf	(??___ftpack+0)+0,w
 10949  1FB2  07F3               	addwf	(___ftpack@exp),f
 10950                           	line	72
 10951                           	
 10952  1FB3                     l9586:	
 10953  1FB3  3001               	movlw	01h
 10954  1FB4  07F0               	addwf	(___ftpack@arg),f
 10955  1FB5  3000               	movlw	0
 10956  1FB6  1803               	skipnc
 10957  1FB7  3001               movlw 1
 10958  1FB8  07F1               	addwf	(___ftpack@arg+1),f
 10959  1FB9  3000               	movlw	0
 10960  1FBA  1803               	skipnc
 10961  1FBB  3001               movlw 1
 10962  1FBC  07F2               	addwf	(___ftpack@arg+2),f
 10963                           	line	73
 10964                           	
 10965  1FBD                     l9588:	
 10966  1FBD  3001               	movlw	01h
 10967  1FBE                     u3655:
 10968  1FBE  1003               	clrc
 10969  1FBF  0CF2               	rrf	(___ftpack@arg+2),f
 10970  1FC0  0CF1               	rrf	(___ftpack@arg+1),f
 10971  1FC1  0CF0               	rrf	(___ftpack@arg),f
 10972  1FC2  3EFF               	addlw	-1
 10973  1FC3  1D03               	skipz
 10974  1FC4  2FBE               	goto	u3655
 10975                           
 10976                           	line	74
 10977                           	
 10978  1FC5                     l6333:	
 10979                           	line	70
 10980  1FC5  30FF               	movlw	low highword(0FF0000h)
 10981  1FC6  0572               	andwf	(___ftpack@arg+2),w
 10982  1FC7  1D03               	btfss	status,2
 10983  1FC8  2FCA               	goto	u3661
 10984  1FC9  2FCB               	goto	u3660
 10985  1FCA                     u3661:
 10986  1FCA  2FAF               	goto	l9584
 10987  1FCB                     u3660:
 10988  1FCB  2FD8               	goto	l9592
 10989                           	
 10990  1FCC                     l6335:	
 10991                           	line	75
 10992  1FCC  2FD8               	goto	l9592
 10993                           	
 10994  1FCD                     l6337:	
 10995                           	line	76
 10996                           	
 10997  1FCD                     l9590:	
 10998  1FCD  3001               	movlw	low(01h)
 10999  1FCE  02F3               	subwf	(___ftpack@exp),f
 11000                           	line	77
 11001  1FCF  3001               	movlw	01h
 11002  1FD0                     u3675:
 11003  1FD0  1003               	clrc
 11004  1FD1  0DF0               	rlf	(___ftpack@arg),f
 11005  1FD2  0DF1               	rlf	(___ftpack@arg+1),f
 11006  1FD3  0DF2               	rlf	(___ftpack@arg+2),f
 11007  1FD4  3EFF               	addlw	-1
 11008  1FD5  1D03               	skipz
 11009  1FD6  2FD0               	goto	u3675
 11010  1FD7  2FD8               	goto	l9592
 11011                           	line	78
 11012                           	
 11013  1FD8                     l6336:	
 11014                           	line	75
 11015                           	
 11016  1FD8                     l9592:	
 11017  1FD8  1FF1               	btfss	(___ftpack@arg+1),(15)&7
 11018  1FD9  2FDB               	goto	u3681
 11019  1FDA  2FDC               	goto	u3680
 11020  1FDB                     u3681:
 11021  1FDB  2FCD               	goto	l9590
 11022  1FDC                     u3680:
 11023                           	
 11024  1FDC                     l6338:	
 11025                           	line	79
 11026  1FDC  1873               	btfsc	(___ftpack@exp),(0)&7
 11027  1FDD  2FDF               	goto	u3691
 11028  1FDE  2FE0               	goto	u3690
 11029  1FDF                     u3691:
 11030  1FDF  2FE6               	goto	l6339
 11031  1FE0                     u3690:
 11032                           	line	80
 11033                           	
 11034  1FE0                     l9594:	
 11035  1FE0  30FF               	movlw	0FFh
 11036  1FE1  05F0               	andwf	(___ftpack@arg),f
 11037  1FE2  307F               	movlw	07Fh
 11038  1FE3  05F1               	andwf	(___ftpack@arg+1),f
 11039  1FE4  30FF               	movlw	0FFh
 11040  1FE5  05F2               	andwf	(___ftpack@arg+2),f
 11041                           	
 11042  1FE6                     l6339:	
 11043                           	line	81
 11044  1FE6  1003               	clrc
 11045  1FE7  0CF3               	rrf	(___ftpack@exp),f
 11046                           
 11047                           	line	82
 11048                           	
 11049  1FE8                     l9596:	
 11050  1FE8  0873               	movf	(___ftpack@exp),w
 11051  1FE9  00F5               	movwf	((??___ftpack+0)+0)
 11052  1FEA  01F6               	clrf	((??___ftpack+0)+0+1)
 11053  1FEB  01F7               	clrf	((??___ftpack+0)+0+2)
 11054  1FEC  3010               	movlw	010h
 11055  1FED                     u3705:
 11056  1FED  1003               	clrc
 11057  1FEE  0DF5               	rlf	(??___ftpack+0)+0,f
 11058  1FEF  0DF6               	rlf	(??___ftpack+0)+1,f
 11059  1FF0  0DF7               	rlf	(??___ftpack+0)+2,f
 11060  1FF1                     u3700:
 11061  1FF1  3EFF               	addlw	-1
 11062  1FF2  1D03               	skipz
 11063  1FF3  2FED               	goto	u3705
 11064  1FF4  0875               	movf	0+(??___ftpack+0)+0,w
 11065  1FF5  04F0               	iorwf	(___ftpack@arg),f
 11066  1FF6  0876               	movf	1+(??___ftpack+0)+0,w
 11067  1FF7  04F1               	iorwf	(___ftpack@arg+1),f
 11068  1FF8  0877               	movf	2+(??___ftpack+0)+0,w
 11069  1FF9  04F2               	iorwf	(___ftpack@arg+2),f
 11070                           	line	83
 11071                           	
 11072  1FFA                     l9598:	
 11073  1FFA  0874               	movf	(___ftpack@sign),w
 11074  1FFB  1D03               	skipz
 11075  1FFC  2FFE               	goto	u3710
 11076  1FFD  2FFF               	goto	l6340
 11077  1FFE                     u3710:
 11078                           	line	84
 11079                           	
 11080  1FFE                     l9600:	
 11081  1FFE  17F2               	bsf	(___ftpack@arg)+(23/8),(23)&7
 11082                           	
 11083  1FFF                     l6340:	
 11084                           	line	85
 11085                           	line	86
 11086                           	
 11087  1FFF                     l6329:	
 11088  1FFF  0008               	return
 11089                           	opt stack 0
 11090                           GLOBAL	__end_of___ftpack
 11091  2000                     	__end_of___ftpack:
 11092 ;; =============== function ___ftpack ends ============
 11093                           
 11094                           	signat	___ftpack,12411
 11095                           	global	___wmul
 11096                           psect	text744,local,class=CODE,delta=2
 11097                           global __ptext744
 11098  1CBC                     __ptext744:
 11099                           
 11100 ;; *************** function ___wmul *****************
 11101 ;; Defined at:
 11102 ;;		line 3 in file "C:\Program Files (x86)\HI-TECH Software\PICC\9.82\sources\wmul.c"
 11103 ;; Parameters:    Size  Location     Type
 11104 ;;  multiplier      2    0[COMMON] unsigned int 
 11105 ;;  multiplicand    2    2[COMMON] unsigned int 
 11106 ;; Auto vars:     Size  Location     Type
 11107 ;;  product         2    4[COMMON] unsigned int 
 11108 ;; Return value:  Size  Location     Type
 11109 ;;                  2    0[COMMON] unsigned int 
 11110 ;; Registers used:
 11111 ;;		wreg, status,2, status,0
 11112 ;; Tracked objects:
 11113 ;;		On entry : 0/0
 11114 ;;		On exit  : 0/0
 11115 ;;		Unchanged: 0/0
 11116 ;; Data sizes:     COMMON   BANK0   BANK1   BANK3   BANK2
 11117 ;;      Params:         4       0       0       0       0
 11118 ;;      Locals:         2       0       0       0       0
 11119 ;;      Temps:          0       0       0       0       0
 11120 ;;      Totals:         6       0       0       0       0
 11121 ;;Total ram usage:        6 bytes
 11122 ;; Hardware stack levels used:    1
 11123 ;; This function calls:
 11124 ;;		Nothing
 11125 ;; This function is called by:
 11126 ;;		_fround
 11127 ;;		_scale
 11128 ;;		__doprnt
 11129 ;; This function uses a non-reentrant model
 11130 ;;
 11131                           psect	text744
 11132                           	file	"C:\Program Files (x86)\HI-TECH Software\PICC\9.82\sources\wmul.c"
 11133                           	line	3
 11134                           	global	__size_of___wmul
 11135  002A                     	__size_of___wmul	equ	__end_of___wmul-___wmul
 11136                           	
 11137  1CBC                     ___wmul:	
 11138                           	opt	stack 5
 11139                           ; Regs used in ___wmul: [wreg+status,2+status,0]
 11140                           	line	4
 11141                           	
 11142  1CBC                     l9560:	
 11143  1CBC  01F4               	clrf	(___wmul@product)
 11144  1CBD  01F5               	clrf	(___wmul@product+1)
 11145  1CBE  2CBF               	goto	l9562
 11146                           	line	6
 11147                           	
 11148  1CBF                     l5960:	
 11149                           	line	7
 11150                           	
 11151  1CBF                     l9562:	
 11152  1CBF  1C70               	btfss	(___wmul@multiplier),(0)&7
 11153  1CC0  2CC2               	goto	u3571
 11154  1CC1  2CC3               	goto	u3570
 11155  1CC2                     u3571:
 11156  1CC2  2CC9               	goto	l5961
 11157  1CC3                     u3570:
 11158                           	line	8
 11159                           	
 11160  1CC3                     l9564:	
 11161  1CC3  0872               	movf	(___wmul@multiplicand),w
 11162  1CC4  07F4               	addwf	(___wmul@product),f
 11163  1CC5  1803               	skipnc
 11164  1CC6  0AF5               	incf	(___wmul@product+1),f
 11165  1CC7  0873               	movf	(___wmul@multiplicand+1),w
 11166  1CC8  07F5               	addwf	(___wmul@product+1),f
 11167                           	
 11168  1CC9                     l5961:	
 11169                           	line	9
 11170  1CC9  3001               	movlw	01h
 11171                           	
 11172  1CCA                     u3585:
 11173  1CCA  1003               	clrc
 11174  1CCB  0DF2               	rlf	(___wmul@multiplicand),f
 11175  1CCC  0DF3               	rlf	(___wmul@multiplicand+1),f
 11176  1CCD  3EFF               	addlw	-1
 11177  1CCE  1D03               	skipz
 11178  1CCF  2CCA               	goto	u3585
 11179                           	line	10
 11180                           	
 11181  1CD0                     l9566:	
 11182  1CD0  3001               	movlw	01h
 11183                           	
 11184  1CD1                     u3595:
 11185  1CD1  1003               	clrc
 11186  1CD2  0CF1               	rrf	(___wmul@multiplier+1),f
 11187  1CD3  0CF0               	rrf	(___wmul@multiplier),f
 11188  1CD4  3EFF               	addlw	-1
 11189  1CD5  1D03               	skipz
 11190  1CD6  2CD1               	goto	u3595
 11191                           	line	11
 11192  1CD7  0871               	movf	((___wmul@multiplier+1)),w
 11193  1CD8  0470               	iorwf	((___wmul@multiplier)),w
 11194  1CD9  1D03               	skipz
 11195  1CDA  2CDC               	goto	u3601
 11196  1CDB  2CDD               	goto	u3600
 11197  1CDC                     u3601:
 11198  1CDC  2CBF               	goto	l9562
 11199  1CDD                     u3600:
 11200  1CDD  2CDE               	goto	l9568
 11201                           	
 11202  1CDE                     l5962:	
 11203                           	line	12
 11204                           	
 11205  1CDE                     l9568:	
 11206  1CDE  0875               	movf	(___wmul@product+1),w
 11207  1CDF  01F1               	clrf	(?___wmul+1)
 11208  1CE0  07F1               	addwf	(?___wmul+1)
 11209  1CE1  0874               	movf	(___wmul@product),w
 11210  1CE2  01F0               	clrf	(?___wmul)
 11211  1CE3  07F0               	addwf	(?___wmul)
 11212                           
 11213  1CE4  2CE5               	goto	l5963
 11214                           	
 11215  1CE5                     l9570:	
 11216                           	line	13
 11217                           	
 11218  1CE5                     l5963:	
 11219  1CE5  0008               	return
 11220                           	opt stack 0
 11221                           GLOBAL	__end_of___wmul
 11222  1CE6                     	__end_of___wmul:
 11223 ;; =============== function ___wmul ends ============
 11224                           
 11225                           	signat	___wmul,8314
 11226                           	global	___bmul
 11227                           psect	text745,local,class=CODE,delta=2
 11228                           global __ptext745
 11229  0003                     __ptext745:
 11230                           
 11231 ;; *************** function ___bmul *****************
 11232 ;; Defined at:
 11233 ;;		line 3 in file "C:\Program Files (x86)\HI-TECH Software\PICC\9.82\sources\bmul.c"
 11234 ;; Parameters:    Size  Location     Type
 11235 ;;  multiplier      1    wreg     unsigned char 
 11236 ;;  multiplicand    1    4[BANK0 ] unsigned char 
 11237 ;; Auto vars:     Size  Location     Type
 11238 ;;  multiplier      1    6[BANK0 ] unsigned char 
 11239 ;;  product         1    5[BANK0 ] unsigned char 
 11240 ;; Return value:  Size  Location     Type
 11241 ;;                  1    wreg      unsigned char 
 11242 ;; Registers used:
 11243 ;;		wreg, status,2, status,0
 11244 ;; Tracked objects:
 11245 ;;		On entry : 0/0
 11246 ;;		On exit  : 0/0
 11247 ;;		Unchanged: 0/0
 11248 ;; Data sizes:     COMMON   BANK0   BANK1   BANK3   BANK2
 11249 ;;      Params:         0       1       0       0       0
 11250 ;;      Locals:         0       2       0       0       0
 11251 ;;      Temps:          1       0       0       0       0
 11252 ;;      Totals:         1       3       0       0       0
 11253 ;;Total ram usage:        4 bytes
 11254 ;; Hardware stack levels used:    1
 11255 ;; This function calls:
 11256 ;;		Nothing
 11257 ;; This function is called by:
 11258 ;;		_fround
 11259 ;;		_scale
 11260 ;; This function uses a non-reentrant model
 11261 ;;
 11262                           psect	text745
 11263                           	file	"C:\Program Files (x86)\HI-TECH Software\PICC\9.82\sources\bmul.c"
 11264                           	line	3
 11265                           	global	__size_of___bmul
 11266  001A                     	__size_of___bmul	equ	__end_of___bmul-___bmul
 11267                           	
 11268  0003                     ___bmul:	
 11269                           	opt	stack 4
 11270                           ; Regs used in ___bmul: [wreg+status,2+status,0]
 11271                           ;___bmul@multiplier stored from wreg
 11272  0003  1283               	bcf	status, 5	;RP0=0, select bank0
 11273  0004  1303               	bcf	status, 6	;RP1=0, select bank0
 11274  0005  00A6               	movwf	(___bmul@multiplier)
 11275                           	line	4
 11276                           	
 11277  0006                     l9546:	
 11278  0006  01A5               	clrf	(___bmul@product)
 11279                           	line	6
 11280                           	
 11281  0007                     l5954:	
 11282                           	line	7
 11283  0007  1C26               	btfss	(___bmul@multiplier),(0)&7
 11284  0008  280A               	goto	u3551
 11285  0009  280B               	goto	u3550
 11286  000A                     u3551:
 11287  000A  2810               	goto	l9550
 11288  000B                     u3550:
 11289                           	line	8
 11290                           	
 11291  000B                     l9548:	
 11292  000B  0824               	movf	(___bmul@multiplicand),w
 11293  000C  00FC               	movwf	(??___bmul+0)+0
 11294  000D  087C               	movf	(??___bmul+0)+0,w
 11295  000E  07A5               	addwf	(___bmul@product),f
 11296  000F  2810               	goto	l9550
 11297                           	
 11298  0010                     l5955:	
 11299                           	line	9
 11300                           	
 11301  0010                     l9550:	
 11302  0010  1003               	clrc
 11303  0011  0DA4               	rlf	(___bmul@multiplicand),f
 11304                           
 11305                           	line	10
 11306                           	
 11307  0012                     l9552:	
 11308  0012  1003               	clrc
 11309  0013  0CA6               	rrf	(___bmul@multiplier),f
 11310                           
 11311                           	line	11
 11312                           	
 11313  0014                     l9554:	
 11314  0014  08A6               	movf	(___bmul@multiplier),f
 11315  0015  1D03               	skipz
 11316  0016  2818               	goto	u3561
 11317  0017  2819               	goto	u3560
 11318  0018                     u3561:
 11319  0018  2807               	goto	l5954
 11320  0019                     u3560:
 11321  0019  281A               	goto	l9556
 11322                           	
 11323  001A                     l5956:	
 11324                           	line	12
 11325                           	
 11326  001A                     l9556:	
 11327  001A  0825               	movf	(___bmul@product),w
 11328  001B  281C               	goto	l5957
 11329                           	
 11330  001C                     l9558:	
 11331                           	line	13
 11332                           	
 11333  001C                     l5957:	
 11334  001C  0008               	return
 11335                           	opt stack 0
 11336                           GLOBAL	__end_of___bmul
 11337  001D                     	__end_of___bmul:
 11338 ;; =============== function ___bmul ends ============
 11339                           
 11340                           	signat	___bmul,8313
 11341                           	global	__div_to_l_
 11342                           psect	text746,local,class=CODE,delta=2
 11343                           global __ptext746
 11344  1497                     __ptext746:
 11345                           
 11346 ;; *************** function __div_to_l_ *****************
 11347 ;; Defined at:
 11348 ;;		line 61 in file "C:\Program Files (x86)\HI-TECH Software\PICC\9.82\sources\fldivl.c"
 11349 ;; Parameters:    Size  Location     Type
 11350 ;;  f1              3    0[COMMON] unsigned char 
 11351 ;;  f2              3    3[COMMON] unsigned char 
 11352 ;; Auto vars:     Size  Location     Type
 11353 ;;  quot            4    0[BANK0 ] unsigned long 
 11354 ;;  exp1            1    5[BANK0 ] unsigned char 
 11355 ;;  cntr            1    4[BANK0 ] unsigned char 
 11356 ;; Return value:  Size  Location     Type
 11357 ;;                  4    0[COMMON] unsigned long 
 11358 ;; Registers used:
 11359 ;;		wreg, fsr0l, fsr0h, status,2, status,0
 11360 ;; Tracked objects:
 11361 ;;		On entry : 0/0
 11362 ;;		On exit  : 0/0
 11363 ;;		Unchanged: 0/0
 11364 ;; Data sizes:     COMMON   BANK0   BANK1   BANK3   BANK2
 11365 ;;      Params:         6       0       0       0       0
 11366 ;;      Locals:         0       6       0       0       0
 11367 ;;      Temps:          8       0       0       0       0
 11368 ;;      Totals:        14       6       0       0       0
 11369 ;;Total ram usage:       20 bytes
 11370 ;; Hardware stack levels used:    1
 11371 ;; This function calls:
 11372 ;;		Nothing
 11373 ;; This function is called by:
 11374 ;;		__doprnt
 11375 ;; This function uses a non-reentrant model
 11376 ;;
 11377                           psect	text746
 11378                           	file	"C:\Program Files (x86)\HI-TECH Software\PICC\9.82\sources\fldivl.c"
 11379                           	line	61
 11380                           	global	__size_of__div_to_l_
 11381  0154                     	__size_of__div_to_l_	equ	__end_of__div_to_l_-__div_to_l_
 11382                           	
 11383  1497                     __div_to_l_:	
 11384                           	opt	stack 5
 11385                           ; Regs used in __div_to_l_: [wreg-fsr0h+status,2+status,0]
 11386                           	line	66
 11387                           	
 11388  1497                     l9492:	
 11389  1497  3070               	movlw	low(__div_to_l_@f1)
 11390  1498  0084               	movwf	fsr0
 11391  1499  0800               	movf	indf,w
 11392  149A  00F6               	movwf	(??__div_to_l_+0)+0+0
 11393  149B  0A84               	incf	fsr0,f
 11394  149C  0800               	movf	indf,w
 11395  149D  00F7               	movwf	(??__div_to_l_+0)+0+1
 11396  149E  0A84               	incf	fsr0,f
 11397  149F  0800               	movf	indf,w
 11398  14A0  00F8               	movwf	(??__div_to_l_+0)+0+2
 11399  14A1  0A84               	incf	fsr0,f
 11400  14A2  0800               	movf	indf,w
 11401  14A3  00F9               	movwf	(??__div_to_l_+0)+0+3
 11402  14A4  1003               	clrc
 11403  14A5  0D78               	rlf	(??__div_to_l_+0)+2,w
 11404  14A6  0D79               	rlf	(??__div_to_l_+0)+3,w
 11405  14A7  00FA               	movwf	(??__div_to_l_+4)+0
 11406  14A8  087A               	movf	(??__div_to_l_+4)+0,w
 11407  14A9  1283               	bcf	status, 5	;RP0=0, select bank0
 11408  14AA  1303               	bcf	status, 6	;RP1=0, select bank0
 11409  14AB  00A5               	movwf	(__div_to_l_@exp1)
 11410  14AC  08A5               	movf	((__div_to_l_@exp1)),f
 11411  14AD  1D03               	skipz
 11412  14AE  2CB0               	goto	u3421
 11413  14AF  2CB1               	goto	u3420
 11414  14B0                     u3421:
 11415  14B0  2CBB               	goto	l9498
 11416  14B1                     u3420:
 11417                           	line	67
 11418                           	
 11419  14B1                     l9494:	
 11420  14B1  3000               	movlw	0
 11421  14B2  00F3               	movwf	(?__div_to_l_+3)
 11422  14B3  3000               	movlw	0
 11423  14B4  00F2               	movwf	(?__div_to_l_+2)
 11424  14B5  3000               	movlw	0
 11425  14B6  00F1               	movwf	(?__div_to_l_+1)
 11426  14B7  3000               	movlw	0
 11427  14B8  00F0               	movwf	(?__div_to_l_)
 11428                           
 11429  14B9  2DEA               	goto	l6247
 11430                           	
 11431  14BA                     l9496:	
 11432  14BA  2DEA               	goto	l6247
 11433                           	
 11434  14BB                     l6246:	
 11435                           	line	68
 11436                           	
 11437  14BB                     l9498:	
 11438  14BB  3073               	movlw	low(__div_to_l_@f2)
 11439  14BC  0084               	movwf	fsr0
 11440  14BD  0800               	movf	indf,w
 11441  14BE  00F6               	movwf	(??__div_to_l_+0)+0+0
 11442  14BF  0A84               	incf	fsr0,f
 11443  14C0  0800               	movf	indf,w
 11444  14C1  00F7               	movwf	(??__div_to_l_+0)+0+1
 11445  14C2  0A84               	incf	fsr0,f
 11446  14C3  0800               	movf	indf,w
 11447  14C4  00F8               	movwf	(??__div_to_l_+0)+0+2
 11448  14C5  0A84               	incf	fsr0,f
 11449  14C6  0800               	movf	indf,w
 11450  14C7  00F9               	movwf	(??__div_to_l_+0)+0+3
 11451  14C8  1003               	clrc
 11452  14C9  0D78               	rlf	(??__div_to_l_+0)+2,w
 11453  14CA  0D79               	rlf	(??__div_to_l_+0)+3,w
 11454  14CB  00FA               	movwf	(??__div_to_l_+4)+0
 11455  14CC  087A               	movf	(??__div_to_l_+4)+0,w
 11456  14CD  00A4               	movwf	(__div_to_l_@cntr)
 11457  14CE  08A4               	movf	((__div_to_l_@cntr)),f
 11458  14CF  1D03               	skipz
 11459  14D0  2CD2               	goto	u3431
 11460  14D1  2CD3               	goto	u3430
 11461  14D2                     u3431:
 11462  14D2  2CDD               	goto	l9504
 11463  14D3                     u3430:
 11464                           	line	69
 11465                           	
 11466  14D3                     l9500:	
 11467  14D3  3000               	movlw	0
 11468  14D4  00F3               	movwf	(?__div_to_l_+3)
 11469  14D5  3000               	movlw	0
 11470  14D6  00F2               	movwf	(?__div_to_l_+2)
 11471  14D7  3000               	movlw	0
 11472  14D8  00F1               	movwf	(?__div_to_l_+1)
 11473  14D9  3000               	movlw	0
 11474  14DA  00F0               	movwf	(?__div_to_l_)
 11475                           
 11476  14DB  2DEA               	goto	l6247
 11477                           	
 11478  14DC                     l9502:	
 11479  14DC  2DEA               	goto	l6247
 11480                           	
 11481  14DD                     l6248:	
 11482                           	line	70
 11483                           	
 11484  14DD                     l9504:	
 11485  14DD  3070               	movlw	low(__div_to_l_@f1)
 11486  14DE  0084               	movwf	fsr0
 11487  14DF  3000               	movlw	0
 11488  14E0  0480               	iorwf	indf,f
 11489  14E1  0A84               	incf	fsr0,f
 11490  14E2  3000               	movlw	0
 11491  14E3  0480               	iorwf	indf,f
 11492  14E4  0A84               	incf	fsr0,f
 11493  14E5  3080               	movlw	080h
 11494  14E6  0480               	iorwf	indf,f
 11495  14E7  0A84               	incf	fsr0,f
 11496  14E8  3000               	movlw	0
 11497  14E9  0480               	iorwf	indf,f
 11498                           	line	71
 11499  14EA  3070               	movlw	low(__div_to_l_@f1)
 11500  14EB  0084               	movwf	fsr0
 11501  14EC  30FF               	movlw	0FFh
 11502  14ED  0580               	andwf	indf,f
 11503  14EE  0A84               	incf	fsr0,f
 11504  14EF  30FF               	movlw	0FFh
 11505  14F0  0580               	andwf	indf,f
 11506  14F1  0A84               	incf	fsr0,f
 11507  14F2  30FF               	movlw	0FFh
 11508  14F3  0580               	andwf	indf,f
 11509  14F4  0A84               	incf	fsr0,f
 11510  14F5  3000               	movlw	0
 11511  14F6  0580               	andwf	indf,f
 11512                           	line	72
 11513  14F7  3073               	movlw	low(__div_to_l_@f2)
 11514  14F8  0084               	movwf	fsr0
 11515  14F9  3000               	movlw	0
 11516  14FA  0480               	iorwf	indf,f
 11517  14FB  0A84               	incf	fsr0,f
 11518  14FC  3000               	movlw	0
 11519  14FD  0480               	iorwf	indf,f
 11520  14FE  0A84               	incf	fsr0,f
 11521  14FF  3080               	movlw	080h
 11522  1500  0480               	iorwf	indf,f
 11523  1501  0A84               	incf	fsr0,f
 11524  1502  3000               	movlw	0
 11525  1503  0480               	iorwf	indf,f
 11526                           	line	73
 11527  1504  3073               	movlw	low(__div_to_l_@f2)
 11528  1505  0084               	movwf	fsr0
 11529  1506  30FF               	movlw	0FFh
 11530  1507  0580               	andwf	indf,f
 11531  1508  0A84               	incf	fsr0,f
 11532  1509  30FF               	movlw	0FFh
 11533  150A  0580               	andwf	indf,f
 11534  150B  0A84               	incf	fsr0,f
 11535  150C  30FF               	movlw	0FFh
 11536  150D  0580               	andwf	indf,f
 11537  150E  0A84               	incf	fsr0,f
 11538  150F  3000               	movlw	0
 11539  1510  0580               	andwf	indf,f
 11540                           	line	74
 11541                           	
 11542  1511                     l9506:	
 11543  1511  3000               	movlw	0
 11544  1512  00A3               	movwf	(__div_to_l_@quot+3)
 11545  1513  3000               	movlw	0
 11546  1514  00A2               	movwf	(__div_to_l_@quot+2)
 11547  1515  3000               	movlw	0
 11548  1516  00A1               	movwf	(__div_to_l_@quot+1)
 11549  1517  3000               	movlw	0
 11550  1518  00A0               	movwf	(__div_to_l_@quot)
 11551                           
 11552                           	line	75
 11553                           	
 11554  1519                     l9508:	
 11555  1519  307F               	movlw	low(07Fh)
 11556  151A  02A5               	subwf	(__div_to_l_@exp1),f
 11557                           	line	76
 11558                           	
 11559  151B                     l9510:	
 11560  151B  30A0               	movlw	(0A0h)
 11561  151C  0724               	addwf	(__div_to_l_@cntr),w
 11562  151D  00F6               	movwf	(??__div_to_l_+0)+0
 11563  151E  0876               	movf	0+(??__div_to_l_+0)+0,w
 11564  151F  02A5               	subwf	(__div_to_l_@exp1),f
 11565                           	line	77
 11566                           	
 11567  1520                     l9512:	
 11568  1520  3020               	movlw	(020h)
 11569  1521  00F6               	movwf	(??__div_to_l_+0)+0
 11570  1522  0876               	movf	(??__div_to_l_+0)+0,w
 11571  1523  00A4               	movwf	(__div_to_l_@cntr)
 11572  1524  2D25               	goto	l9514
 11573                           	line	78
 11574                           	
 11575  1525                     l6249:	
 11576                           	line	79
 11577                           	
 11578  1525                     l9514:	
 11579  1525  3001               	movlw	01h
 11580  1526  00F6               	movwf	(??__div_to_l_+0)+0
 11581  1527                     u3445:
 11582  1527  1003               	clrc
 11583  1528  0DA0               	rlf	(__div_to_l_@quot),f
 11584  1529  0DA1               	rlf	(__div_to_l_@quot+1),f
 11585  152A  0DA2               	rlf	(__div_to_l_@quot+2),f
 11586  152B  0DA3               	rlf	(__div_to_l_@quot+3),f
 11587  152C  0BF6               	decfsz	(??__div_to_l_+0)+0
 11588  152D  2D27               	goto	u3445
 11589                           	line	80
 11590                           	
 11591  152E                     l9516:	
 11592  152E  3073               	movlw	low(__div_to_l_@f2)
 11593  152F  0084               	movwf	fsr0
 11594  1530  0800               	movf	indf,w
 11595  1531  00F6               	movwf	(??__div_to_l_+0)+0+0
 11596  1532  0A84               	incf	fsr0,f
 11597  1533  0800               	movf	indf,w
 11598  1534  00F7               	movwf	(??__div_to_l_+0)+0+1
 11599  1535  0A84               	incf	fsr0,f
 11600  1536  0800               	movf	indf,w
 11601  1537  00F8               	movwf	(??__div_to_l_+0)+0+2
 11602  1538  0A84               	incf	fsr0,f
 11603  1539  0800               	movf	indf,w
 11604  153A  00F9               	movwf	(??__div_to_l_+0)+0+3
 11605  153B  3070               	movlw	low(__div_to_l_@f1)
 11606  153C  0084               	movwf	fsr0
 11607  153D  0800               	movf	indf,w
 11608  153E  00FA               	movwf	(??__div_to_l_+4)+0+0
 11609  153F  0A84               	incf	fsr0,f
 11610  1540  0800               	movf	indf,w
 11611  1541  00FB               	movwf	(??__div_to_l_+4)+0+1
 11612  1542  0A84               	incf	fsr0,f
 11613  1543  0800               	movf	indf,w
 11614  1544  00FC               	movwf	(??__div_to_l_+4)+0+2
 11615  1545  0A84               	incf	fsr0,f
 11616  1546  0800               	movf	indf,w
 11617  1547  00FD               	movwf	(??__div_to_l_+4)+0+3
 11618  1548  0879               	movf	3+(??__div_to_l_+0)+0,w
 11619  1549  027D               	subwf	3+(??__div_to_l_+4)+0,w
 11620  154A  1D03               	skipz
 11621  154B  2D56               	goto	u3455
 11622  154C  0878               	movf	2+(??__div_to_l_+0)+0,w
 11623  154D  027C               	subwf	2+(??__div_to_l_+4)+0,w
 11624  154E  1D03               	skipz
 11625  154F  2D56               	goto	u3455
 11626  1550  0877               	movf	1+(??__div_to_l_+0)+0,w
 11627  1551  027B               	subwf	1+(??__div_to_l_+4)+0,w
 11628  1552  1D03               	skipz
 11629  1553  2D56               	goto	u3455
 11630  1554  0876               	movf	0+(??__div_to_l_+0)+0,w
 11631  1555  027A               	subwf	0+(??__div_to_l_+4)+0,w
 11632  1556                     u3455:
 11633  1556  1C03               	skipc
 11634  1557  2D59               	goto	u3451
 11635  1558  2D5A               	goto	u3450
 11636  1559                     u3451:
 11637  1559  2D7D               	goto	l6250
 11638  155A                     u3450:
 11639                           	line	81
 11640                           	
 11641  155A                     l9518:	
 11642  155A  3073               	movlw	low(__div_to_l_@f2)
 11643  155B  0084               	movwf	fsr0
 11644  155C  0800               	movf	indf,w
 11645  155D  00F6               	movwf	(??__div_to_l_+0)+0+0
 11646  155E  0A84               	incf	fsr0,f
 11647  155F  0800               	movf	indf,w
 11648  1560  00F7               	movwf	(??__div_to_l_+0)+0+1
 11649  1561  0A84               	incf	fsr0,f
 11650  1562  0800               	movf	indf,w
 11651  1563  00F8               	movwf	(??__div_to_l_+0)+0+2
 11652  1564  0A84               	incf	fsr0,f
 11653  1565  0800               	movf	indf,w
 11654  1566  00F9               	movwf	(??__div_to_l_+0)+0+3
 11655  1567  3070               	movlw	low(__div_to_l_@f1)
 11656  1568  0084               	movwf	fsr0
 11657  1569  0876               	movf	0+(??__div_to_l_+0)+0,w
 11658  156A  0280               	subwf	indf,f
 11659  156B  0A84               	incf	fsr0
 11660  156C  0877               	movf	1+(??__div_to_l_+0)+0,w
 11661  156D  1C03               	skipc
 11662  156E  0F77               	incfsz	1+(??__div_to_l_+0)+0,w
 11663  156F  0280               	subwf	indf,f
 11664  1570  0A84               	incf	fsr0
 11665  1571  0878               	movf	2+(??__div_to_l_+0)+0,w
 11666  1572  1C03               	skipc
 11667  1573  0F78               	incfsz	2+(??__div_to_l_+0)+0,w
 11668  1574  0280               	subwf	indf,f
 11669  1575  0A84               	incf	fsr0
 11670  1576  0879               	movf	3+(??__div_to_l_+0)+0,w
 11671  1577  1C03               	skipc
 11672  1578  0A79               	incf	3+(??__div_to_l_+0)+0,w
 11673  1579  0280               	subwf	indf,f
 11674  157A  3003               	movlw	3
 11675  157B  0284               	subwf	fsr0
 11676                           	line	82
 11677                           	
 11678  157C                     l9520:	
 11679  157C  1420               	bsf	(__div_to_l_@quot)+(0/8),(0)&7
 11680                           	line	83
 11681                           	
 11682  157D                     l6250:	
 11683                           	line	84
 11684  157D  3070               	movlw	low(__div_to_l_@f1)
 11685  157E  0084               	movwf	fsr0
 11686  157F  3001               	movlw	01h
 11687  1580                     u3465:
 11688  1580  1003               	clrc
 11689  1581  0D80               	rlf	indf,f
 11690  1582  0A84               	incf	fsr0,f
 11691  1583  0D80               	rlf	indf,f
 11692  1584  0A84               	incf	fsr0,f
 11693  1585  0D80               	rlf	indf,f
 11694  1586  0A84               	incf	fsr0,f
 11695  1587  0D80               	rlf	indf,f
 11696  1588  0384               	decf	fsr0,f
 11697  1589  0384               	decf	fsr0,f
 11698  158A  0384               	decf	fsr0,f
 11699  158B  3EFF               	addlw	-1
 11700  158C  1D03               	skipz
 11701  158D  2D80               	goto	u3465
 11702                           	line	85
 11703                           	
 11704  158E                     l9522:	
 11705  158E  3001               	movlw	low(01h)
 11706  158F  02A4               	subwf	(__div_to_l_@cntr),f
 11707  1590  1D03               	btfss	status,2
 11708  1591  2D93               	goto	u3471
 11709  1592  2D94               	goto	u3470
 11710  1593                     u3471:
 11711  1593  2D25               	goto	l9514
 11712  1594                     u3470:
 11713                           	
 11714  1594                     l6251:	
 11715                           	line	86
 11716  1594  1FA5               	btfss	(__div_to_l_@exp1),7
 11717  1595  2D97               	goto	u3481
 11718  1596  2D98               	goto	u3480
 11719  1597                     u3481:
 11720  1597  2DBD               	goto	l9532
 11721  1598                     u3480:
 11722                           	line	87
 11723                           	
 11724  1598                     l9524:	
 11725  1598  0825               	movf	(__div_to_l_@exp1),w
 11726  1599  3A80               	xorlw	80h
 11727  159A  3E9F               	addlw	-((-31)^80h)
 11728  159B  1803               	skipnc
 11729  159C  2D9E               	goto	u3491
 11730  159D  2D9F               	goto	u3490
 11731  159E                     u3491:
 11732  159E  2DAA               	goto	l9530
 11733  159F                     u3490:
 11734                           	line	88
 11735                           	
 11736  159F                     l9526:	
 11737  159F  3000               	movlw	0
 11738  15A0  00F3               	movwf	(?__div_to_l_+3)
 11739  15A1  3000               	movlw	0
 11740  15A2  00F2               	movwf	(?__div_to_l_+2)
 11741  15A3  3000               	movlw	0
 11742  15A4  00F1               	movwf	(?__div_to_l_+1)
 11743  15A5  3000               	movlw	0
 11744  15A6  00F0               	movwf	(?__div_to_l_)
 11745                           
 11746  15A7  2DEA               	goto	l6247
 11747                           	
 11748  15A8                     l9528:	
 11749  15A8  2DEA               	goto	l6247
 11750                           	
 11751  15A9                     l6253:	
 11752  15A9  2DAA               	goto	l9530
 11753                           	line	89
 11754                           	
 11755  15AA                     l6254:	
 11756                           	line	90
 11757                           	
 11758  15AA                     l9530:	
 11759  15AA  3001               	movlw	01h
 11760  15AB                     u3505:
 11761  15AB  1003               	clrc
 11762  15AC  0CA3               	rrf	(__div_to_l_@quot+3),f
 11763  15AD  0CA2               	rrf	(__div_to_l_@quot+2),f
 11764  15AE  0CA1               	rrf	(__div_to_l_@quot+1),f
 11765  15AF  0CA0               	rrf	(__div_to_l_@quot),f
 11766  15B0  3EFF               	addlw	-1
 11767  15B1  1D03               	skipz
 11768  15B2  2DAB               	goto	u3505
 11769                           
 11770                           	line	91
 11771  15B3  3001               	movlw	(01h)
 11772  15B4  00F6               	movwf	(??__div_to_l_+0)+0
 11773  15B5  0876               	movf	(??__div_to_l_+0)+0,w
 11774  15B6  07A5               	addwf	(__div_to_l_@exp1),f
 11775  15B7  1D03               	btfss	status,2
 11776  15B8  2DBA               	goto	u3511
 11777  15B9  2DBB               	goto	u3510
 11778  15BA                     u3511:
 11779  15BA  2DAA               	goto	l9530
 11780  15BB                     u3510:
 11781  15BB  2DE1               	goto	l9542
 11782                           	
 11783  15BC                     l6255:	
 11784                           	line	92
 11785  15BC  2DE1               	goto	l9542
 11786                           	
 11787  15BD                     l6252:	
 11788                           	line	93
 11789                           	
 11790  15BD                     l9532:	
 11791  15BD  3020               	movlw	(020h)
 11792  15BE  0225               	subwf	(__div_to_l_@exp1),w
 11793  15BF  1C03               	skipc
 11794  15C0  2DC2               	goto	u3521
 11795  15C1  2DC3               	goto	u3520
 11796  15C2                     u3521:
 11797  15C2  2DDA               	goto	l9540
 11798  15C3                     u3520:
 11799                           	line	94
 11800                           	
 11801  15C3                     l9534:	
 11802  15C3  3000               	movlw	0
 11803  15C4  00F3               	movwf	(?__div_to_l_+3)
 11804  15C5  3000               	movlw	0
 11805  15C6  00F2               	movwf	(?__div_to_l_+2)
 11806  15C7  3000               	movlw	0
 11807  15C8  00F1               	movwf	(?__div_to_l_+1)
 11808  15C9  3000               	movlw	0
 11809  15CA  00F0               	movwf	(?__div_to_l_)
 11810                           
 11811  15CB  2DEA               	goto	l6247
 11812                           	
 11813  15CC                     l9536:	
 11814  15CC  2DEA               	goto	l6247
 11815                           	
 11816  15CD                     l6257:	
 11817                           	line	95
 11818  15CD  2DDA               	goto	l9540
 11819                           	
 11820  15CE                     l6259:	
 11821                           	line	96
 11822                           	
 11823  15CE                     l9538:	
 11824  15CE  3001               	movlw	01h
 11825  15CF  00F6               	movwf	(??__div_to_l_+0)+0
 11826  15D0                     u3535:
 11827  15D0  1003               	clrc
 11828  15D1  0DA0               	rlf	(__div_to_l_@quot),f
 11829  15D2  0DA1               	rlf	(__div_to_l_@quot+1),f
 11830  15D3  0DA2               	rlf	(__div_to_l_@quot+2),f
 11831  15D4  0DA3               	rlf	(__div_to_l_@quot+3),f
 11832  15D5  0BF6               	decfsz	(??__div_to_l_+0)+0
 11833  15D6  2DD0               	goto	u3535
 11834                           	line	97
 11835  15D7  3001               	movlw	low(01h)
 11836  15D8  02A5               	subwf	(__div_to_l_@exp1),f
 11837  15D9  2DDA               	goto	l9540
 11838                           	line	98
 11839                           	
 11840  15DA                     l6258:	
 11841                           	line	95
 11842                           	
 11843  15DA                     l9540:	
 11844  15DA  08A5               	movf	(__div_to_l_@exp1),f
 11845  15DB  1D03               	skipz
 11846  15DC  2DDE               	goto	u3541
 11847  15DD  2DDF               	goto	u3540
 11848  15DE                     u3541:
 11849  15DE  2DCE               	goto	l9538
 11850  15DF                     u3540:
 11851  15DF  2DE1               	goto	l9542
 11852                           	
 11853  15E0                     l6260:	
 11854  15E0  2DE1               	goto	l9542
 11855                           	line	99
 11856                           	
 11857  15E1                     l6256:	
 11858                           	line	100
 11859                           	
 11860  15E1                     l9542:	
 11861  15E1  0823               	movf	(__div_to_l_@quot+3),w
 11862  15E2  00F3               	movwf	(?__div_to_l_+3)
 11863  15E3  0822               	movf	(__div_to_l_@quot+2),w
 11864  15E4  00F2               	movwf	(?__div_to_l_+2)
 11865  15E5  0821               	movf	(__div_to_l_@quot+1),w
 11866  15E6  00F1               	movwf	(?__div_to_l_+1)
 11867  15E7  0820               	movf	(__div_to_l_@quot),w
 11868  15E8  00F0               	movwf	(?__div_to_l_)
 11869                           
 11870  15E9  2DEA               	goto	l6247
 11871                           	
 11872  15EA                     l9544:	
 11873                           	line	101
 11874                           	
 11875  15EA                     l6247:	
 11876  15EA  0008               	return
 11877                           	opt stack 0
 11878                           GLOBAL	__end_of__div_to_l_
 11879  15EB                     	__end_of__div_to_l_:
 11880 ;; =============== function __div_to_l_ ends ============
 11881                           
 11882                           	signat	__div_to_l_,8316
 11883                           	global	__tdiv_to_l_
 11884                           psect	text747,local,class=CODE,delta=2
 11885                           global __ptext747
 11886  126F                     __ptext747:
 11887                           
 11888 ;; *************** function __tdiv_to_l_ *****************
 11889 ;; Defined at:
 11890 ;;		line 61 in file "C:\Program Files (x86)\HI-TECH Software\PICC\9.82\sources\ftdivl.c"
 11891 ;; Parameters:    Size  Location     Type
 11892 ;;  f1              3    0[COMMON] float 
 11893 ;;  f2              3    3[COMMON] float 
 11894 ;; Auto vars:     Size  Location     Type
 11895 ;;  quot            4    0[BANK0 ] unsigned long 
 11896 ;;  exp1            1    5[BANK0 ] unsigned char 
 11897 ;;  cntr            1    4[BANK0 ] unsigned char 
 11898 ;; Return value:  Size  Location     Type
 11899 ;;                  4    0[COMMON] unsigned long 
 11900 ;; Registers used:
 11901 ;;		wreg, status,2, status,0
 11902 ;; Tracked objects:
 11903 ;;		On entry : 0/0
 11904 ;;		On exit  : 0/0
 11905 ;;		Unchanged: 0/0
 11906 ;; Data sizes:     COMMON   BANK0   BANK1   BANK3   BANK2
 11907 ;;      Params:         6       0       0       0       0
 11908 ;;      Locals:         0       6       0       0       0
 11909 ;;      Temps:          4       0       0       0       0
 11910 ;;      Totals:        10       6       0       0       0
 11911 ;;Total ram usage:       16 bytes
 11912 ;; Hardware stack levels used:    1
 11913 ;; This function calls:
 11914 ;;		Nothing
 11915 ;; This function is called by:
 11916 ;;		__doprnt
 11917 ;; This function uses a non-reentrant model
 11918 ;;
 11919                           psect	text747
 11920                           	file	"C:\Program Files (x86)\HI-TECH Software\PICC\9.82\sources\ftdivl.c"
 11921                           	line	61
 11922                           	global	__size_of__tdiv_to_l_
 11923  00E2                     	__size_of__tdiv_to_l_	equ	__end_of__tdiv_to_l_-__tdiv_to_l_
 11924                           	
 11925  126F                     __tdiv_to_l_:	
 11926                           	opt	stack 5
 11927                           ; Regs used in __tdiv_to_l_: [wreg+status,2+status,0]
 11928                           	line	66
 11929                           	
 11930  126F                     l9438:	
 11931  126F  0870               	movf	(__tdiv_to_l_@f1),w
 11932  1270  00F6               	movwf	((??__tdiv_to_l_+0)+0)
 11933  1271  0871               	movf	(__tdiv_to_l_@f1+1),w
 11934  1272  00F7               	movwf	((??__tdiv_to_l_+0)+0+1)
 11935  1273  0872               	movf	(__tdiv_to_l_@f1+2),w
 11936  1274  00F8               	movwf	((??__tdiv_to_l_+0)+0+2)
 11937  1275  1003               	clrc
 11938  1276  0D77               	rlf	(??__tdiv_to_l_+0)+1,w
 11939  1277  0D78               	rlf	(??__tdiv_to_l_+0)+2,w
 11940  1278  00F9               	movwf	(??__tdiv_to_l_+3)+0
 11941  1279  0879               	movf	(??__tdiv_to_l_+3)+0,w
 11942  127A  1283               	bcf	status, 5	;RP0=0, select bank0
 11943  127B  1303               	bcf	status, 6	;RP1=0, select bank0
 11944  127C  00A5               	movwf	(__tdiv_to_l_@exp1)
 11945  127D  08A5               	movf	((__tdiv_to_l_@exp1)),f
 11946  127E  1D03               	skipz
 11947  127F  2A81               	goto	u3291
 11948  1280  2A82               	goto	u3290
 11949  1281                     u3291:
 11950  1281  2A8C               	goto	l9444
 11951  1282                     u3290:
 11952                           	line	67
 11953                           	
 11954  1282                     l9440:	
 11955  1282  3000               	movlw	0
 11956  1283  00F3               	movwf	(?__tdiv_to_l_+3)
 11957  1284  3000               	movlw	0
 11958  1285  00F2               	movwf	(?__tdiv_to_l_+2)
 11959  1286  3000               	movlw	0
 11960  1287  00F1               	movwf	(?__tdiv_to_l_+1)
 11961  1288  3000               	movlw	0
 11962  1289  00F0               	movwf	(?__tdiv_to_l_)
 11963                           
 11964  128A  2B50               	goto	l6204
 11965                           	
 11966  128B                     l9442:	
 11967  128B  2B50               	goto	l6204
 11968                           	
 11969  128C                     l6203:	
 11970                           	line	68
 11971                           	
 11972  128C                     l9444:	
 11973  128C  0873               	movf	(__tdiv_to_l_@f2),w
 11974  128D  00F6               	movwf	((??__tdiv_to_l_+0)+0)
 11975  128E  0874               	movf	(__tdiv_to_l_@f2+1),w
 11976  128F  00F7               	movwf	((??__tdiv_to_l_+0)+0+1)
 11977  1290  0875               	movf	(__tdiv_to_l_@f2+2),w
 11978  1291  00F8               	movwf	((??__tdiv_to_l_+0)+0+2)
 11979  1292  1003               	clrc
 11980  1293  0D77               	rlf	(??__tdiv_to_l_+0)+1,w
 11981  1294  0D78               	rlf	(??__tdiv_to_l_+0)+2,w
 11982  1295  00F9               	movwf	(??__tdiv_to_l_+3)+0
 11983  1296  0879               	movf	(??__tdiv_to_l_+3)+0,w
 11984  1297  00A4               	movwf	(__tdiv_to_l_@cntr)
 11985  1298  08A4               	movf	((__tdiv_to_l_@cntr)),f
 11986  1299  1D03               	skipz
 11987  129A  2A9C               	goto	u3301
 11988  129B  2A9D               	goto	u3300
 11989  129C                     u3301:
 11990  129C  2AA7               	goto	l6205
 11991  129D                     u3300:
 11992                           	line	69
 11993                           	
 11994  129D                     l9446:	
 11995  129D  3000               	movlw	0
 11996  129E  00F3               	movwf	(?__tdiv_to_l_+3)
 11997  129F  3000               	movlw	0
 11998  12A0  00F2               	movwf	(?__tdiv_to_l_+2)
 11999  12A1  3000               	movlw	0
 12000  12A2  00F1               	movwf	(?__tdiv_to_l_+1)
 12001  12A3  3000               	movlw	0
 12002  12A4  00F0               	movwf	(?__tdiv_to_l_)
 12003                           
 12004  12A5  2B50               	goto	l6204
 12005                           	
 12006  12A6                     l9448:	
 12007  12A6  2B50               	goto	l6204
 12008                           	
 12009  12A7                     l6205:	
 12010                           	line	70
 12011  12A7  17F1               	bsf	(__tdiv_to_l_@f1)+(15/8),(15)&7
 12012                           	line	71
 12013                           	
 12014  12A8                     l9450:	
 12015  12A8  30FF               	movlw	0FFh
 12016  12A9  05F0               	andwf	(__tdiv_to_l_@f1),f
 12017  12AA  30FF               	movlw	0FFh
 12018  12AB  05F1               	andwf	(__tdiv_to_l_@f1+1),f
 12019  12AC  3000               	movlw	0
 12020  12AD  05F2               	andwf	(__tdiv_to_l_@f1+2),f
 12021                           	line	72
 12022                           	
 12023  12AE                     l9452:	
 12024  12AE  17F4               	bsf	(__tdiv_to_l_@f2)+(15/8),(15)&7
 12025                           	line	73
 12026  12AF  30FF               	movlw	0FFh
 12027  12B0  05F3               	andwf	(__tdiv_to_l_@f2),f
 12028  12B1  30FF               	movlw	0FFh
 12029  12B2  05F4               	andwf	(__tdiv_to_l_@f2+1),f
 12030  12B3  3000               	movlw	0
 12031  12B4  05F5               	andwf	(__tdiv_to_l_@f2+2),f
 12032                           	line	74
 12033  12B5  3000               	movlw	0
 12034  12B6  00A3               	movwf	(__tdiv_to_l_@quot+3)
 12035  12B7  3000               	movlw	0
 12036  12B8  00A2               	movwf	(__tdiv_to_l_@quot+2)
 12037  12B9  3000               	movlw	0
 12038  12BA  00A1               	movwf	(__tdiv_to_l_@quot+1)
 12039  12BB  3000               	movlw	0
 12040  12BC  00A0               	movwf	(__tdiv_to_l_@quot)
 12041                           
 12042                           	line	75
 12043                           	
 12044  12BD                     l9454:	
 12045  12BD  307F               	movlw	low(07Fh)
 12046  12BE  02A5               	subwf	(__tdiv_to_l_@exp1),f
 12047                           	line	76
 12048                           	
 12049  12BF                     l9456:	
 12050  12BF  3098               	movlw	(098h)
 12051  12C0  0724               	addwf	(__tdiv_to_l_@cntr),w
 12052  12C1  00F6               	movwf	(??__tdiv_to_l_+0)+0
 12053  12C2  0876               	movf	0+(??__tdiv_to_l_+0)+0,w
 12054  12C3  02A5               	subwf	(__tdiv_to_l_@exp1),f
 12055                           	line	77
 12056  12C4  3018               	movlw	(018h)
 12057  12C5  00F6               	movwf	(??__tdiv_to_l_+0)+0
 12058  12C6  0876               	movf	(??__tdiv_to_l_+0)+0,w
 12059  12C7  00A4               	movwf	(__tdiv_to_l_@cntr)
 12060  12C8  2AC9               	goto	l9458
 12061                           	line	78
 12062                           	
 12063  12C9                     l6206:	
 12064                           	line	79
 12065                           	
 12066  12C9                     l9458:	
 12067  12C9  3001               	movlw	01h
 12068  12CA  00F6               	movwf	(??__tdiv_to_l_+0)+0
 12069  12CB                     u3315:
 12070  12CB  1003               	clrc
 12071  12CC  0DA0               	rlf	(__tdiv_to_l_@quot),f
 12072  12CD  0DA1               	rlf	(__tdiv_to_l_@quot+1),f
 12073  12CE  0DA2               	rlf	(__tdiv_to_l_@quot+2),f
 12074  12CF  0DA3               	rlf	(__tdiv_to_l_@quot+3),f
 12075  12D0  0BF6               	decfsz	(??__tdiv_to_l_+0)+0
 12076  12D1  2ACB               	goto	u3315
 12077                           	line	80
 12078                           	
 12079  12D2                     l9460:	
 12080  12D2  0875               	movf	(__tdiv_to_l_@f2+2),w
 12081  12D3  0272               	subwf	(__tdiv_to_l_@f1+2),w
 12082  12D4  1D03               	skipz
 12083  12D5  2ADC               	goto	u3325
 12084  12D6  0874               	movf	(__tdiv_to_l_@f2+1),w
 12085  12D7  0271               	subwf	(__tdiv_to_l_@f1+1),w
 12086  12D8  1D03               	skipz
 12087  12D9  2ADC               	goto	u3325
 12088  12DA  0873               	movf	(__tdiv_to_l_@f2),w
 12089  12DB  0270               	subwf	(__tdiv_to_l_@f1),w
 12090  12DC                     u3325:
 12091  12DC  1C03               	skipc
 12092  12DD  2ADF               	goto	u3321
 12093  12DE  2AE0               	goto	u3320
 12094  12DF                     u3321:
 12095  12DF  2AEC               	goto	l9466
 12096  12E0                     u3320:
 12097                           	line	81
 12098                           	
 12099  12E0                     l9462:	
 12100  12E0  0873               	movf	(__tdiv_to_l_@f2),w
 12101  12E1  02F0               	subwf	(__tdiv_to_l_@f1),f
 12102  12E2  0874               	movf	(__tdiv_to_l_@f2+1),w
 12103  12E3  1C03               	skipc
 12104  12E4  0F74               	incfsz	(__tdiv_to_l_@f2+1),w
 12105  12E5  02F1               	subwf	(__tdiv_to_l_@f1+1),f
 12106  12E6  0875               	movf	(__tdiv_to_l_@f2+2),w
 12107  12E7  1C03               	skipc
 12108  12E8  0A75               	incf	(__tdiv_to_l_@f2+2),w
 12109  12E9  02F2               	subwf	(__tdiv_to_l_@f1+2),f
 12110                           	line	82
 12111                           	
 12112  12EA                     l9464:	
 12113  12EA  1420               	bsf	(__tdiv_to_l_@quot)+(0/8),(0)&7
 12114  12EB  2AEC               	goto	l9466
 12115                           	line	83
 12116                           	
 12117  12EC                     l6207:	
 12118                           	line	84
 12119                           	
 12120  12EC                     l9466:	
 12121  12EC  3001               	movlw	01h
 12122  12ED                     u3335:
 12123  12ED  1003               	clrc
 12124  12EE  0DF0               	rlf	(__tdiv_to_l_@f1),f
 12125  12EF  0DF1               	rlf	(__tdiv_to_l_@f1+1),f
 12126  12F0  0DF2               	rlf	(__tdiv_to_l_@f1+2),f
 12127  12F1  3EFF               	addlw	-1
 12128  12F2  1D03               	skipz
 12129  12F3  2AED               	goto	u3335
 12130                           	line	85
 12131                           	
 12132  12F4                     l9468:	
 12133  12F4  3001               	movlw	low(01h)
 12134  12F5  02A4               	subwf	(__tdiv_to_l_@cntr),f
 12135  12F6  1D03               	btfss	status,2
 12136  12F7  2AF9               	goto	u3341
 12137  12F8  2AFA               	goto	u3340
 12138  12F9                     u3341:
 12139  12F9  2AC9               	goto	l9458
 12140  12FA                     u3340:
 12141                           	
 12142  12FA                     l6208:	
 12143                           	line	86
 12144  12FA  1FA5               	btfss	(__tdiv_to_l_@exp1),7
 12145  12FB  2AFD               	goto	u3351
 12146  12FC  2AFE               	goto	u3350
 12147  12FD                     u3351:
 12148  12FD  2B23               	goto	l9478
 12149  12FE                     u3350:
 12150                           	line	87
 12151                           	
 12152  12FE                     l9470:	
 12153  12FE  0825               	movf	(__tdiv_to_l_@exp1),w
 12154  12FF  3A80               	xorlw	80h
 12155  1300  3E97               	addlw	-((-23)^80h)
 12156  1301  1803               	skipnc
 12157  1302  2B04               	goto	u3361
 12158  1303  2B05               	goto	u3360
 12159  1304                     u3361:
 12160  1304  2B10               	goto	l9476
 12161  1305                     u3360:
 12162                           	line	88
 12163                           	
 12164  1305                     l9472:	
 12165  1305  3000               	movlw	0
 12166  1306  00F3               	movwf	(?__tdiv_to_l_+3)
 12167  1307  3000               	movlw	0
 12168  1308  00F2               	movwf	(?__tdiv_to_l_+2)
 12169  1309  3000               	movlw	0
 12170  130A  00F1               	movwf	(?__tdiv_to_l_+1)
 12171  130B  3000               	movlw	0
 12172  130C  00F0               	movwf	(?__tdiv_to_l_)
 12173                           
 12174  130D  2B50               	goto	l6204
 12175                           	
 12176  130E                     l9474:	
 12177  130E  2B50               	goto	l6204
 12178                           	
 12179  130F                     l6210:	
 12180  130F  2B10               	goto	l9476
 12181                           	line	89
 12182                           	
 12183  1310                     l6211:	
 12184                           	line	90
 12185                           	
 12186  1310                     l9476:	
 12187  1310  3001               	movlw	01h
 12188  1311                     u3375:
 12189  1311  1003               	clrc
 12190  1312  0CA3               	rrf	(__tdiv_to_l_@quot+3),f
 12191  1313  0CA2               	rrf	(__tdiv_to_l_@quot+2),f
 12192  1314  0CA1               	rrf	(__tdiv_to_l_@quot+1),f
 12193  1315  0CA0               	rrf	(__tdiv_to_l_@quot),f
 12194  1316  3EFF               	addlw	-1
 12195  1317  1D03               	skipz
 12196  1318  2B11               	goto	u3375
 12197                           
 12198                           	line	91
 12199  1319  3001               	movlw	(01h)
 12200  131A  00F6               	movwf	(??__tdiv_to_l_+0)+0
 12201  131B  0876               	movf	(??__tdiv_to_l_+0)+0,w
 12202  131C  07A5               	addwf	(__tdiv_to_l_@exp1),f
 12203  131D  1D03               	btfss	status,2
 12204  131E  2B20               	goto	u3381
 12205  131F  2B21               	goto	u3380
 12206  1320                     u3381:
 12207  1320  2B10               	goto	l9476
 12208  1321                     u3380:
 12209  1321  2B47               	goto	l9488
 12210                           	
 12211  1322                     l6212:	
 12212                           	line	92
 12213  1322  2B47               	goto	l9488
 12214                           	
 12215  1323                     l6209:	
 12216                           	line	93
 12217                           	
 12218  1323                     l9478:	
 12219  1323  3018               	movlw	(018h)
 12220  1324  0225               	subwf	(__tdiv_to_l_@exp1),w
 12221  1325  1C03               	skipc
 12222  1326  2B28               	goto	u3391
 12223  1327  2B29               	goto	u3390
 12224  1328                     u3391:
 12225  1328  2B40               	goto	l9486
 12226  1329                     u3390:
 12227                           	line	94
 12228                           	
 12229  1329                     l9480:	
 12230  1329  3000               	movlw	0
 12231  132A  00F3               	movwf	(?__tdiv_to_l_+3)
 12232  132B  3000               	movlw	0
 12233  132C  00F2               	movwf	(?__tdiv_to_l_+2)
 12234  132D  3000               	movlw	0
 12235  132E  00F1               	movwf	(?__tdiv_to_l_+1)
 12236  132F  3000               	movlw	0
 12237  1330  00F0               	movwf	(?__tdiv_to_l_)
 12238                           
 12239  1331  2B50               	goto	l6204
 12240                           	
 12241  1332                     l9482:	
 12242  1332  2B50               	goto	l6204
 12243                           	
 12244  1333                     l6214:	
 12245                           	line	95
 12246  1333  2B40               	goto	l9486
 12247                           	
 12248  1334                     l6216:	
 12249                           	line	96
 12250                           	
 12251  1334                     l9484:	
 12252  1334  3001               	movlw	01h
 12253  1335  00F6               	movwf	(??__tdiv_to_l_+0)+0
 12254  1336                     u3405:
 12255  1336  1003               	clrc
 12256  1337  0DA0               	rlf	(__tdiv_to_l_@quot),f
 12257  1338  0DA1               	rlf	(__tdiv_to_l_@quot+1),f
 12258  1339  0DA2               	rlf	(__tdiv_to_l_@quot+2),f
 12259  133A  0DA3               	rlf	(__tdiv_to_l_@quot+3),f
 12260  133B  0BF6               	decfsz	(??__tdiv_to_l_+0)+0
 12261  133C  2B36               	goto	u3405
 12262                           	line	97
 12263  133D  3001               	movlw	low(01h)
 12264  133E  02A5               	subwf	(__tdiv_to_l_@exp1),f
 12265  133F  2B40               	goto	l9486
 12266                           	line	98
 12267                           	
 12268  1340                     l6215:	
 12269                           	line	95
 12270                           	
 12271  1340                     l9486:	
 12272  1340  08A5               	movf	(__tdiv_to_l_@exp1),f
 12273  1341  1D03               	skipz
 12274  1342  2B44               	goto	u3411
 12275  1343  2B45               	goto	u3410
 12276  1344                     u3411:
 12277  1344  2B34               	goto	l9484
 12278  1345                     u3410:
 12279  1345  2B47               	goto	l9488
 12280                           	
 12281  1346                     l6217:	
 12282  1346  2B47               	goto	l9488
 12283                           	line	99
 12284                           	
 12285  1347                     l6213:	
 12286                           	line	100
 12287                           	
 12288  1347                     l9488:	
 12289  1347  0823               	movf	(__tdiv_to_l_@quot+3),w
 12290  1348  00F3               	movwf	(?__tdiv_to_l_+3)
 12291  1349  0822               	movf	(__tdiv_to_l_@quot+2),w
 12292  134A  00F2               	movwf	(?__tdiv_to_l_+2)
 12293  134B  0821               	movf	(__tdiv_to_l_@quot+1),w
 12294  134C  00F1               	movwf	(?__tdiv_to_l_+1)
 12295  134D  0820               	movf	(__tdiv_to_l_@quot),w
 12296  134E  00F0               	movwf	(?__tdiv_to_l_)
 12297                           
 12298  134F  2B50               	goto	l6204
 12299                           	
 12300  1350                     l9490:	
 12301                           	line	101
 12302                           	
 12303  1350                     l6204:	
 12304  1350  0008               	return
 12305                           	opt stack 0
 12306                           GLOBAL	__end_of__tdiv_to_l_
 12307  1351                     	__end_of__tdiv_to_l_:
 12308 ;; =============== function __tdiv_to_l_ ends ============
 12309                           
 12310                           	signat	__tdiv_to_l_,8316
 12311                           	global	_isdigit
 12312                           psect	text748,local,class=CODE,delta=2
 12313                           global __ptext748
 12314  1C1A                     __ptext748:
 12315                           
 12316 ;; *************** function _isdigit *****************
 12317 ;; Defined at:
 12318 ;;		line 13 in file "C:\Program Files (x86)\HI-TECH Software\PICC\9.82\sources\isdigit.c"
 12319 ;; Parameters:    Size  Location     Type
 12320 ;;  c               1    wreg     unsigned char 
 12321 ;; Auto vars:     Size  Location     Type
 12322 ;;  c               1    1[COMMON] unsigned char 
 12323 ;; Return value:  Size  Location     Type
 12324 ;;		None               void
 12325 ;; Registers used:
 12326 ;;		wreg, status,2, status,0
 12327 ;; Tracked objects:
 12328 ;;		On entry : 0/0
 12329 ;;		On exit  : 0/0
 12330 ;;		Unchanged: 0/0
 12331 ;; Data sizes:     COMMON   BANK0   BANK1   BANK3   BANK2
 12332 ;;      Params:         0       0       0       0       0
 12333 ;;      Locals:         2       0       0       0       0
 12334 ;;      Temps:          0       0       0       0       0
 12335 ;;      Totals:         2       0       0       0       0
 12336 ;;Total ram usage:        2 bytes
 12337 ;; Hardware stack levels used:    1
 12338 ;; This function calls:
 12339 ;;		Nothing
 12340 ;; This function is called by:
 12341 ;;		__doprnt
 12342 ;; This function uses a non-reentrant model
 12343 ;;
 12344                           psect	text748
 12345                           	file	"C:\Program Files (x86)\HI-TECH Software\PICC\9.82\sources\isdigit.c"
 12346                           	line	13
 12347                           	global	__size_of_isdigit
 12348  0015                     	__size_of_isdigit	equ	__end_of_isdigit-_isdigit
 12349                           	
 12350  1C1A                     _isdigit:	
 12351                           	opt	stack 5
 12352                           ; Regs used in _isdigit: [wreg+status,2+status,0]
 12353                           ;isdigit@c stored from wreg
 12354  1C1A  00F1               	movwf	(isdigit@c)
 12355                           	line	14
 12356                           	
 12357  1C1B                     l9426:	
 12358  1C1B  01F0               	clrf	(_isdigit$5676)
 12359                           	
 12360  1C1C                     l9428:	
 12361  1C1C  303A               	movlw	(03Ah)
 12362  1C1D  0271               	subwf	(isdigit@c),w
 12363  1C1E  1803               	skipnc
 12364  1C1F  2C21               	goto	u3271
 12365  1C20  2C22               	goto	u3270
 12366  1C21                     u3271:
 12367  1C21  2C2C               	goto	l9434
 12368  1C22                     u3270:
 12369                           	
 12370  1C22                     l9430:	
 12371  1C22  3030               	movlw	(030h)
 12372  1C23  0271               	subwf	(isdigit@c),w
 12373  1C24  1C03               	skipc
 12374  1C25  2C27               	goto	u3281
 12375  1C26  2C28               	goto	u3280
 12376  1C27                     u3281:
 12377  1C27  2C2C               	goto	l9434
 12378  1C28                     u3280:
 12379                           	
 12380  1C28                     l9432:	
 12381  1C28  01F0               	clrf	(_isdigit$5676)
 12382  1C29  1403               	bsf	status,0
 12383  1C2A  0DF0               	rlf	(_isdigit$5676),f
 12384  1C2B  2C2C               	goto	l9434
 12385                           	
 12386  1C2C                     l5930:	
 12387                           	
 12388  1C2C                     l9434:	
 12389  1C2C  0C70               	rrf	(_isdigit$5676),w
 12390                           	
 12391  1C2D  2C2E               	goto	l5931
 12392                           	
 12393  1C2E                     l9436:	
 12394                           	line	15
 12395                           	
 12396  1C2E                     l5931:	
 12397  1C2E  0008               	return
 12398                           	opt stack 0
 12399                           GLOBAL	__end_of_isdigit
 12400  1C2F                     	__end_of_isdigit:
 12401 ;; =============== function _isdigit ends ============
 12402                           
 12403                           	signat	_isdigit,4216
 12404                           	global	_putch
 12405                           psect	text749,local,class=CODE,delta=2
 12406                           global __ptext749
 12407  1BC3                     __ptext749:
 12408                           
 12409 ;; *************** function _putch *****************
 12410 ;; Defined at:
 12411 ;;		line 8 in file "C:\PIC_PROGS\ProyectoMicros\PIC\usart.c"
 12412 ;; Parameters:    Size  Location     Type
 12413 ;;  byte            1   10[BANK0 ] unsigned char 
 12414 ;; Auto vars:     Size  Location     Type
 12415 ;;		None
 12416 ;; Return value:  Size  Location     Type
 12417 ;;		None               void
 12418 ;; Registers used:
 12419 ;;		wreg
 12420 ;; Tracked objects:
 12421 ;;		On entry : 0/0
 12422 ;;		On exit  : 0/0
 12423 ;;		Unchanged: 0/0
 12424 ;; Data sizes:     COMMON   BANK0   BANK1   BANK3   BANK2
 12425 ;;      Params:         0       1       0       0       0
 12426 ;;      Locals:         0       0       0       0       0
 12427 ;;      Temps:          0       0       0       0       0
 12428 ;;      Totals:         0       1       0       0       0
 12429 ;;Total ram usage:        1 bytes
 12430 ;; Hardware stack levels used:    1
 12431 ;; This function calls:
 12432 ;;		Nothing
 12433 ;; This function is called by:
 12434 ;;		_printf
 12435 ;;		__doprnt
 12436 ;; This function uses a non-reentrant model
 12437 ;;
 12438                           psect	text749
 12439                           	file	"C:\PIC_PROGS\ProyectoMicros\PIC\usart.c"
 12440                           	line	8
 12441                           	global	__size_of_putch
 12442  000B                     	__size_of_putch	equ	__end_of_putch-_putch
 12443                           	
 12444  1BC3                     _putch:	
 12445                           	opt	stack 5
 12446                           ; Regs used in _putch: [wreg]
 12447                           	line	10
 12448                           	
 12449  1BC3                     l9422:	
 12450                           ;usart.c: 10: while(!TXIF)
 12451  1BC3  2BC4               	goto	l4816
 12452                           	
 12453  1BC4                     l4817:	
 12454                           	line	11
 12455                           ;usart.c: 11: continue;
 12456                           	
 12457  1BC4                     l4816:	
 12458                           	line	10
 12459  1BC4  1283               	bcf	status, 5	;RP0=0, select bank0
 12460  1BC5  1303               	bcf	status, 6	;RP1=0, select bank0
 12461  1BC6  1E0C               	btfss	(100/8),(100)&7
 12462  1BC7  2BC9               	goto	u3261
 12463  1BC8  2BCA               	goto	u3260
 12464  1BC9                     u3261:
 12465  1BC9  2BC4               	goto	l4816
 12466  1BCA                     u3260:
 12467  1BCA  2BCB               	goto	l9424
 12468                           	
 12469  1BCB                     l4818:	
 12470                           	line	12
 12471                           	
 12472  1BCB                     l9424:	
 12473                           ;usart.c: 12: TXREG = byte;
 12474  1BCB  082A               	movf	(putch@byte),w
 12475  1BCC  0099               	movwf	(25)	;volatile
 12476                           	line	13
 12477                           	
 12478  1BCD                     l4819:	
 12479  1BCD  0008               	return
 12480                           	opt stack 0
 12481                           GLOBAL	__end_of_putch
 12482  1BCE                     	__end_of_putch:
 12483 ;; =============== function _putch ends ============
 12484                           
 12485                           	signat	_putch,4216
 12486                           	global	_msecbase
 12487                           psect	text750,local,class=CODE,delta=2
 12488                           global __ptext750
 12489  1BE6                     __ptext750:
 12490                           
 12491 ;; *************** function _msecbase *****************
 12492 ;; Defined at:
 12493 ;;		line 22 in file "C:\PIC_PROGS\ProyectoMicros\PIC\msecbase.c"
 12494 ;; Parameters:    Size  Location     Type
 12495 ;;		None
 12496 ;; Auto vars:     Size  Location     Type
 12497 ;;		None
 12498 ;; Return value:  Size  Location     Type
 12499 ;;		None               void
 12500 ;; Registers used:
 12501 ;;		wreg
 12502 ;; Tracked objects:
 12503 ;;		On entry : 0/0
 12504 ;;		On exit  : 0/0
 12505 ;;		Unchanged: 0/0
 12506 ;; Data sizes:     COMMON   BANK0   BANK1   BANK3   BANK2
 12507 ;;      Params:         0       0       0       0       0
 12508 ;;      Locals:         0       0       0       0       0
 12509 ;;      Temps:          0       0       0       0       0
 12510 ;;      Totals:         0       0       0       0       0
 12511 ;;Total ram usage:        0 bytes
 12512 ;; Hardware stack levels used:    1
 12513 ;; This function calls:
 12514 ;;		Nothing
 12515 ;; This function is called by:
 12516 ;;		_pause
 12517 ;; This function uses a non-reentrant model
 12518 ;;
 12519                           psect	text750
 12520                           	file	"C:\PIC_PROGS\ProyectoMicros\PIC\msecbase.c"
 12521                           	line	22
 12522                           	global	__size_of_msecbase
 12523  000F                     	__size_of_msecbase	equ	__end_of_msecbase-_msecbase
 12524                           	
 12525  1BE6                     _msecbase:	
 12526                           	opt	stack 5
 12527                           ; Regs used in _msecbase: [wreg]
 12528                           	line	23
 12529                           	
 12530  1BE6                     l9420:	
 12531                           ;msecbase.c: 23: OPTION = 0b00000001;
 12532  1BE6  3001               	movlw	(01h)
 12533  1BE7  1683               	bsf	status, 5	;RP0=1, select bank1
 12534  1BE8  1303               	bcf	status, 6	;RP1=0, select bank1
 12535  1BE9  0081               	movwf	(129)^080h	;volatile
 12536                           	line	24
 12537                           ;msecbase.c: 24: TMR0 = 0xD;
 12538  1BEA  300D               	movlw	(0Dh)
 12539  1BEB  1283               	bcf	status, 5	;RP0=0, select bank0
 12540  1BEC  1303               	bcf	status, 6	;RP1=0, select bank0
 12541  1BED  0081               	movwf	(1)	;volatile
 12542                           	line	25
 12543                           ;msecbase.c: 25: while(!T0IF);
 12544  1BEE  2BEF               	goto	l2758
 12545                           	
 12546  1BEF                     l2759:	
 12547                           	
 12548  1BEF                     l2758:	
 12549  1BEF  1D0B               	btfss	(90/8),(90)&7
 12550  1BF0  2BF2               	goto	u3251
 12551  1BF1  2BF3               	goto	u3250
 12552  1BF2                     u3251:
 12553  1BF2  2BEF               	goto	l2758
 12554  1BF3                     u3250:
 12555                           	
 12556  1BF3                     l2760:	
 12557                           	line	26
 12558                           ;msecbase.c: 26: T0IF = 0;
 12559  1BF3  110B               	bcf	(90/8),(90)&7
 12560                           	line	27
 12561                           	
 12562  1BF4                     l2761:	
 12563  1BF4  0008               	return
 12564                           	opt stack 0
 12565                           GLOBAL	__end_of_msecbase
 12566  1BF5                     	__end_of_msecbase:
 12567 ;; =============== function _msecbase ends ============
 12568                           
 12569                           	signat	_msecbase,88
 12570                           	global	_getch
 12571                           psect	text751,local,class=CODE,delta=2
 12572                           global __ptext751
 12573  1BB8                     __ptext751:
 12574                           
 12575 ;; *************** function _getch *****************
 12576 ;; Defined at:
 12577 ;;		line 16 in file "C:\PIC_PROGS\ProyectoMicros\PIC\usart.c"
 12578 ;; Parameters:    Size  Location     Type
 12579 ;;		None
 12580 ;; Auto vars:     Size  Location     Type
 12581 ;;		None
 12582 ;; Return value:  Size  Location     Type
 12583 ;;                  1    wreg      unsigned char 
 12584 ;; Registers used:
 12585 ;;		wreg
 12586 ;; Tracked objects:
 12587 ;;		On entry : 0/0
 12588 ;;		On exit  : 0/0
 12589 ;;		Unchanged: 0/0
 12590 ;; Data sizes:     COMMON   BANK0   BANK1   BANK3   BANK2
 12591 ;;      Params:         0       0       0       0       0
 12592 ;;      Locals:         0       0       0       0       0
 12593 ;;      Temps:          0       0       0       0       0
 12594 ;;      Totals:         0       0       0       0       0
 12595 ;;Total ram usage:        0 bytes
 12596 ;; Hardware stack levels used:    1
 12597 ;; This function calls:
 12598 ;;		Nothing
 12599 ;; This function is called by:
 12600 ;;		_main
 12601 ;; This function uses a non-reentrant model
 12602 ;;
 12603                           psect	text751
 12604                           	file	"C:\PIC_PROGS\ProyectoMicros\PIC\usart.c"
 12605                           	line	16
 12606                           	global	__size_of_getch
 12607  000B                     	__size_of_getch	equ	__end_of_getch-_getch
 12608                           	
 12609  1BB8                     _getch:	
 12610                           	opt	stack 7
 12611                           ; Regs used in _getch: [wreg]
 12612                           	line	18
 12613                           	
 12614  1BB8                     l9410:	
 12615                           ;usart.c: 18: while(!RCIF)
 12616  1BB8  2BB9               	goto	l4822
 12617                           	
 12618  1BB9                     l4823:	
 12619                           	line	19
 12620                           ;usart.c: 19: continue;
 12621                           	
 12622  1BB9                     l4822:	
 12623                           	line	18
 12624  1BB9  1283               	bcf	status, 5	;RP0=0, select bank0
 12625  1BBA  1303               	bcf	status, 6	;RP1=0, select bank0
 12626  1BBB  1E8C               	btfss	(101/8),(101)&7
 12627  1BBC  2BBE               	goto	u3241
 12628  1BBD  2BBF               	goto	u3240
 12629  1BBE                     u3241:
 12630  1BBE  2BB9               	goto	l4822
 12631  1BBF                     u3240:
 12632  1BBF  2BC0               	goto	l9412
 12633                           	
 12634  1BC0                     l4824:	
 12635                           	line	20
 12636                           	
 12637  1BC0                     l9412:	
 12638                           ;usart.c: 20: return RCREG;
 12639  1BC0  081A               	movf	(26),w	;volatile
 12640  1BC1  2BC2               	goto	l4825
 12641                           	
 12642  1BC2                     l9414:	
 12643                           	line	21
 12644                           	
 12645  1BC2                     l4825:	
 12646  1BC2  0008               	return
 12647                           	opt stack 0
 12648                           GLOBAL	__end_of_getch
 12649  1BC3                     	__end_of_getch:
 12650 ;; =============== function _getch ends ============
 12651                           
 12652                           	signat	_getch,89
 12653                           	global	_init_comms
 12654                           psect	text752,local,class=CODE,delta=2
 12655                           global __ptext752
 12656  1BF5                     __ptext752:
 12657                           
 12658 ;; *************** function _init_comms *****************
 12659 ;; Defined at:
 12660 ;;		line 24 in file "C:\PIC_PROGS\ProyectoMicros\PIC\usart.c"
 12661 ;; Parameters:    Size  Location     Type
 12662 ;;		None
 12663 ;; Auto vars:     Size  Location     Type
 12664 ;;		None
 12665 ;; Return value:  Size  Location     Type
 12666 ;;		None               void
 12667 ;; Registers used:
 12668 ;;		wreg, status,2
 12669 ;; Tracked objects:
 12670 ;;		On entry : 0/0
 12671 ;;		On exit  : 0/0
 12672 ;;		Unchanged: 0/0
 12673 ;; Data sizes:     COMMON   BANK0   BANK1   BANK3   BANK2
 12674 ;;      Params:         0       0       0       0       0
 12675 ;;      Locals:         0       0       0       0       0
 12676 ;;      Temps:          0       0       0       0       0
 12677 ;;      Totals:         0       0       0       0       0
 12678 ;;Total ram usage:        0 bytes
 12679 ;; Hardware stack levels used:    1
 12680 ;; This function calls:
 12681 ;;		Nothing
 12682 ;; This function is called by:
 12683 ;;		_main
 12684 ;; This function uses a non-reentrant model
 12685 ;;
 12686                           psect	text752
 12687                           	file	"C:\PIC_PROGS\ProyectoMicros\PIC\usart.c"
 12688                           	line	24
 12689                           	global	__size_of_init_comms
 12690  0012                     	__size_of_init_comms	equ	__end_of_init_comms-_init_comms
 12691                           	
 12692  1BF5                     _init_comms:	
 12693                           	opt	stack 7
 12694                           ; Regs used in _init_comms: [wreg+status,2]
 12695                           	line	25
 12696                           	
 12697  1BF5                     l9404:	
 12698                           ;usart.c: 25: TRISB5 = 1;
 12699  1BF5  1683               	bsf	status, 5	;RP0=1, select bank1
 12700  1BF6  1303               	bcf	status, 6	;RP1=0, select bank1
 12701  1BF7  1686               	bsf	(1077/8)^080h,(1077)&7
 12702                           	line	26
 12703                           ;usart.c: 26: TRISB7 = 0;
 12704  1BF8  1386               	bcf	(1079/8)^080h,(1079)&7
 12705                           	line	27
 12706                           	
 12707  1BF9                     l9406:	
 12708                           ;usart.c: 27: SPBRG = ((int)(4000000L/(64UL * 2400) -1));
 12709  1BF9  3019               	movlw	(019h)
 12710  1BFA  0099               	movwf	(153)^080h	;volatile
 12711                           	line	29
 12712                           ;usart.c: 29: RCSTA = 0x90;
 12713  1BFB  3090               	movlw	(090h)
 12714  1BFC  1283               	bcf	status, 5	;RP0=0, select bank0
 12715  1BFD  1303               	bcf	status, 6	;RP1=0, select bank0
 12716  1BFE  0098               	movwf	(24)	;volatile
 12717                           	line	30
 12718                           ;usart.c: 30: TXSTA = 0x20;
 12719  1BFF  3020               	movlw	(020h)
 12720  1C00  1683               	bsf	status, 5	;RP0=1, select bank1
 12721  1C01  1303               	bcf	status, 6	;RP1=0, select bank1
 12722  1C02  0098               	movwf	(152)^080h	;volatile
 12723                           	line	31
 12724                           	
 12725  1C03                     l9408:	
 12726                           ;usart.c: 31: BAUDCTL = 0;
 12727  1C03  1683               	bsf	status, 5	;RP0=1, select bank3
 12728  1C04  1703               	bsf	status, 6	;RP1=1, select bank3
 12729  1C05  0187               	clrf	(391)^0180h	;volatile
 12730                           	line	32
 12731                           	
 12732  1C06                     l4828:	
 12733  1C06  0008               	return
 12734                           	opt stack 0
 12735                           GLOBAL	__end_of_init_comms
 12736  1C07                     	__end_of_init_comms:
 12737 ;; =============== function _init_comms ends ============
 12738                           
 12739                           	signat	_init_comms,88
 12740                           	global	fptotal
 12741  0002                     fptotal equ 2
 12742                           	file ""
 12743                           	line	#
 12744                           psect	functab,class=CODE,delta=2,reloc=256
 12745                           global __pfunctab
 12746  0700                     __pfunctab:
 12747                           	global	fptable
 12748  0700                     fptable:
 12749  0700  00FF               	movwf (btemp+1)&07Fh
 12750  0701  3007               	movlw high(fptable)
 12751  0702  008A               	movwf pclath
 12752  0703  087F               	movf (btemp+1)&07Fh,w
 12753  0704  0782               	addwf pc
 12754                           	global	fpbase
 12755  0705                     fpbase:
 12756  0705  2F05               	goto fpbase	; Call via a null pointer and you will get stuck here.
 12757                           	file ""
 12758                           	line	#
 12759  0706                     fp__putch:
 12760  0706  160A  158A  2BC3   	ljmp	_putch
 12761                           	global	btemp
 12762  007E                     	btemp set 07Eh
 12763                           
 12764                           	DABS	1,126,2	;btemp
 12765                           	global	wtemp0
 12766  007E                     	wtemp0 set btemp


HI-TECH Software PICC Macro Assembler V9.82 build 9453 
Symbol Table                                                                                   Wed May 29 09:46:09 2019

                    _a 00BF                      _b 00C2                      pc 0002         ___bmul@product 0025  
                   _RD 0C60                     _WR 0C61           ___awdiv@sign 0021                     fsr 0004  
  ___wmul@multiplicand 0072           ___ftadd@exp1 0051           ___ftadd@exp2 0050           ___ftadd@sign 004F  
                  _GIE 005F                    _RA1 0029                    _RB0 0030                    _RA2 002A  
                  _RA4 002C                    _PR2 0092                    fsr0 0004                    _str 0190  
                  indf 0000           ___awmod@sign 0076            lcd_goto@pos 0076           ___ftdiv@cntr 004F  
         ___ftdiv@sign 0054                   l1060 16A8                   l1061 16BC                   l1062 16BC  
                 l1063 16C1                   l1064 17EE                   l1065 17F7                   l1057 166A  
                 l1066 17FC                   l1058 166A                   l1067 17FD                   l1059 166F  
                 l1068 17FD                   l1911 1CFF                   l1920 1BE5                   l1912 1CEA  
                 l1905 1C95                   l1913 1D10                   l6010 139C                   l1914 1D10  
                 l6011 13A6                   l1923 1DCE                   l6100 1F1F                   l6020 13EF  
                 l6012 13AB                   l6004 1388                   l1908 1C19                   l6101 1F2D  
                 l6013 13F0                   l6021 1427                   l6110 1F84                   l6102 1F73  
                 l6030 143C                   l6022 1427                   l6014 13C0                   l6006 1380  
                 l6103 1F45                   l6031 1451                   l6023 13F7                   l6007 1496  
                 l2760 1BF3                   l6104 1F39                   l6120 1D6E                   l6032 147A  
                 l6016 13D9                   l6008 139D                   l6200 004E                   l2761 1BF4  
                 l6105 1F4A                   l6113 1D65                   l6025 1410                   l6017 13DA  
                 l6210 130F                   l6106 1F4B                   l6114 1D2D                   l6026 1411  
                 l6018 13E8                   l6050 11DB                   l6211 1310                   l6203 128C  
                 l6107 1F64                   l6115 1D1F                   l6123 1BD8                   l6027 141F  
                 l6019 13DB                   l6051 1221                   l6043 1100                   l6212 1322  
                 l6204 1350                   l6108 1F72                   l6116 1D32                   l6124 1BD9  
                 l6132 1F05                   l6028 1412                   l6052 1243                   l6060 073D  
                 l6213 1347                   l6205 12A7                   l6109 1F7D                   l6117 1D33  
                 l6133 1EC3                   l6029 1426                   l6053 1252                   l6061 077D  
                 l2758 1BEF                   l6214 1333                   l6206 12C9                   l6070 11A6  
                 l6118 1D54                   l6134 1EB5                   l6062 0792                   l2759 1BEF  
                 l6215 1340                   l6207 12EC                   l6071 1169                   l6119 1D64  
                 l6127 1E5F                   l6135 1EC8                   l6063 07A9                   l6216 1334  
                 l6208 12FA                   l6080 119D                   l6072 1155                   l6128 1E89  
                 l6136 1EC9                   l6048 11C2                   l6064 07AE                   l6217 1346  
                 l6209 1323                   l6073 1156                   l6129 1EA0                   l6137 1EF4  
                 l6049 126E                   l6065 07C3                   l6250 157D                   l6330 1FA7  
                 l6074 1168                   l6138 1F04                   l6170 1E23                   l6066 07DA  
                 l6058 0724                   l6251 1594                   l6331 1F9A                   l6075 118D  
                 l6139 1F0E                   l6171 1DFD                   l6059 07F6                   l6260 15E0  
                 l6252 15BD                   l6340 1FFF                   l6332 1FAE                   l6076 1179  
                 l6172 1DF1                   l4900 0A0D                   l6253 15A9                   l6333 1FC5  
                 l6077 1186                   l6069 111E                   l6173 1E02                   l4901 0A68  
                 l4822 1BB9                   l6254 15AA                   l6246 14BB                   l6334 1FAF  
                 l6326 1F99                   l6078 117A                   l6174 1E03                   l3790 1C76  
                 l4910 0B56                   l4902 0A4B                   l4823 1BB9                   l6255 15BC  
                 l6247 15EA                   l6335 1FCC                   l6079 118C                   l6175 1E14  
                 l3791 1C76                   l6183 1C5B                   l4911 0B73                   l4903 0A67  
                 l4824 1BC0                   l4816 1BC4                   l6256 15E1                   l6248 14DD  
                 l6336 1FD8                   l6328 1F91                   l6176 1E22                   l6168 1DDD  
                 l4920 0C64                   l4912 0B8F                   l4904 0B46                   l4825 1BC2  
                 l4817 1BC4                   l6257 15CD                   l6249 1525                   l6337 1FCD  
                 l6329 1FFF                   l6177 1E2D                   l6169 1DE7                   l4921 0CD1  
                 l4913 0BA6                   l4905 0A69                   l4818 1BCB                   l6258 15DA  
                 l6338 1FDC                   l6178 1E34                   l4930 0E3B                   l4922 0D3E  
                 l4914 0BBE                   l4906 0AD8                   l4819 1BCD                   l6259 15CE  
                 l6339 1FE6                   l4851 05A5                   l4931 0E46                   l4923 0DAB  
                 l4915 0BC8                   l4907 0B45                   l4828 1C06                   l3788 1C6B  
                 l4852 050F                   l4940 0FCC                   l4932 0E9D                   l4924 0DEC  
                 l4916 0C17                   l4908 0B55                   l3789 1C5F                   l6197 0030  
                 l4845 0135                   l4853 06FF                   l4861 0FE0                   l4941 0F3A  
                 l4933 0E8E                   l4925 0DAC                   l4917 0BFA                   l4909 0B98  
                 l6198 0022                   l4846 01F9                   l4854 0583                   l4942 0FAD  
                 l4934 0EC5                   l4926 0DC7                   l4918 0C16                   l4870 02AF  
                 l4862 0200                   l6199 0037                   l4847 01C5                   l4855 0582  
                 l4943 0FCB                   l4935 0EEB                   l4927 0DE3                   l4919 0D9C  
                 l4871 02B9                   l4863 0240                   l4848 01C4                   l4856 066A  
                 l4944 0FDF                   l4936 0EEA                   l4928 0DF3                   l4880 02F4  
                 l4872 02B0                   l4864 0221                   l4857 06DE                   l4873 0FFA  
                 l4945 0FF9                   l4937 0F39                   l4929 0E26                   l4881 0338  
                 l4865 023F                   l5930 1C2C                   l4858 06DD                   l4946 0FFF  
                 l4938 0F1C                   l4890 08C1                   l4882 0831                   l4874 02B3  
                 l4866 02A9                   l5931 1C2E                   l4939 0F38                   l4891 08E1  
                 l4883 03B1                   l4875 02D5                   l4867 0296                   l4892 08EA  
                 l4884 0421                   l4876 02B5                   l4868 0260                   l4885 0830  
                 l4877 02B6                   l4869 02A8                   l4894 091F                   l4886 082F  
                 l4878 02B7                   l4879 0DF4                   l4887 087A                   l5951 082E  
                 l5960 1CBF                   l9400 1E9D                   l4888 094A                   l4896 093B  
                 l5944 1CBB                   l5961 1CC9                   l4897 09BA                   l9410 1BB8  
                 l5954 0007                   l5962 1CDE                   l9402 1E9F                   l4898 09C5  
                 l5955 0010                   l5963 1CE5                   l4899 0A1C                   l9404 1BF5  
                 l9412 1BC0                   l9420 1BE6                   l9500 14D3                   l5956 001A  
                 l5957 001C                   l9406 1BF9                   l9414 1BC2                   l9422 1BC3  
                 l9430 1C22                   l9510 151B                   l9502 14DC                   l9408 1C03  
                 l9424 1BCB                   l9432 1C28                   l9440 1282                   l9520 157C  
                 l9512 1520                   l9504 14DD                   l9600 1FFE                   l9434 1C2C  
                 l9426 1C1B                   l9450 12A8                   l9442 128B                   l9530 15AA  
                 l9522 158E                   l9514 1525                   l9506 1511                   l9610 1130  
                 l9602 1101                   l9436 1C2E                   l9428 1C1C                   l9460 12D2  
                 l9452 12AE                   l9444 128C                   l9540 15DA                   l9524 1598  
                 l9532 15BD                   l9516 152E                   l9508 1519                   l9620 1144  
                 l9612 1131                   l9604 1114                   l9700 1F77                   _ADON 00F8  
                 l9470 12FE                   l9462 12E0                   l9454 12BD                   l9446 129D  
                 l9438 126F                   l9534 15C3                   l9542 15E1                   l9526 159F  
                 l9518 155A                   l9550 0010                   l9630 116F                   l9622 114B  
                 l9614 1137                   l9606 111D                   l9702 1F7D                   l9710 1D1F  
                 l9480 1329                   l9472 1305                   l9464 12EA                   l9456 12BF  
                 l9448 12A6                   l9544 15EA                   l9536 15CC                   l9528 15A8  
                 l9552 0012                   l9560 1CBC                   l9640 1191                   l9632 1178  
                 l9624 1154                   l9616 113E                   l9608 111E                   l9704 1F84  
                 l9720 1D5D                   l9712 1D2D                   l9800 1E14                   l9490 1350  
                 l9482 1332                   l9474 130E                   l9466 12EC                   l9458 12C9  
                 l9538 15CE                   l9554 0014                   l9546 0006                   l9570 1CE5  
                 l9562 1CBF                   l9642 119D                   l9634 117A                   l9626 1156  
                 l9618 1140                   l9714 1D33                   l9722 1D65                   l9706 1D11  
                 l9730 1BD8                   l9810 1E34                   l9802 1E1B                   l9484 1334  
                 l9476 1310                   l9468 12F4                   l9492 1497                   l9556 001A  
                 l9548 000B                   l9564 1CC3                   l9580 1F9A                   l9572 1F85  
                 l9644 11A6                   l9636 1186                   l9628 1169                   l9724 1D6E  
                 l9716 1D45                   l9708 1D1B                   l9732 1BD9                   l9740 1E63  
                 l9804 1E23                   l9900 1412                   l9486 1340                   l9478 1323  
                 l9494 14B1                   l9558 001C                   l9566 1CD0                   l9590 1FCD  
                 l9582 1FA7                   l9574 1F89                   l9638 118D                   l9670 1F1F  
                 l9718 1D54                   l9726 1BCE                   l9750 1E9D                   l9742 1E89  
                 l9734 1E35                   l9806 1E27                   l9910 1451                   l9902 141F  
                 l9488 1347                   l9496 14BA                   l9568 1CDE                   l9592 1FD8  
                 l9584 1FAF                   l9576 1F91                   l9680 1F35                   l9672 1F23  
                 l9728 1BD5                   l9752 1EA0                   l9744 1E8B                   l9736 1E39  
                 l9760 1EC3                   l9808 1E2D                   l9920 1496                   l9912 1462  
                 l9904 142B                   l9498 14BB                   l9594 1FE0                   l9586 1FB3  
                 l9578 1F98                   l9690 1F5C                   l9682 1F39                   l9674 1F28  
                 l9666 1F0F                   l9746 1E8D                   l9738 1E5F                   l9770 1EF4  
                 l9762 1EC9                   l9754 1EA1                   l9850 1C6B                   l9914 1466  
                 l9906 143C                   l9930 11D3                   l9922 11A7                   l9596 1FE8  
                 l9588 1FBD                   l9692 1F62                   l9684 1F40                   l9676 1F2D  
                 l9668 1F16                   l9748 1E9B                   l9772 1EFD                   l9764 1ED2  
                 l9756 1EB1                   l9780 1DD4                   l9844 1C5C                   l9916 1476  
                 l9908 1440                   l9860 1380                   l9852 1351                   l9940 11F8  
                 l9932 11DA                   l9924 11BA                   l9598 1FFA                   l9694 1F64  
                 l9686 1F45                   l9678 1F2F                   l9766 1EE4                   l9758 1EB5  
                 l9774 1F05                   l9790 1DF1                   l9782 1DDD                   l9846 1C5F  
                 l9918 147A                   l9870 139D                   l9862 1387                   l9854 136B  
                 l9950 1229                   l9942 120A                   l9934 11DB                   l9926 11C1  
                 STR_1 10B2                   l9696 1F6B                   l9688 1F4B                   l9776 1F0E  
                 l9768 1EF2                   l9792 1DF8                   l9784 1DE1                   l9848 1C64  
                 l9880 13B2                   l9872 13A1                   l9864 1388                   l9856 136F  
                 l9960 1252                   l9952 1237                   l9944 120E                   l9936 11E1  
                 l9928 11C2                   STR_2 1086                   STR_3 10B2                   l9698 1F73  
                 l9794 1DFD                   l9786 1DE7                   l9778 1DCF                   l9890 13E8  
                 l9882 13C0                   l9874 13A5                   l9866 138C                   l9858 1375  
                 l9962 126E                   l9954 1241                   l9946 1215                   l9938 11E6  
                 l9970 0724                   STR_4 10D2                   STR_5 10BF                   l9796 1E03  
                 l9788 1DED                   l9884 13CA                   l9892 13F0                   l9876 13AA  
                 l9868 1392                   l9956 1243                   l9948 1221                   l9980 076B  
                 l9972 0735                   l9964 0709                   STR_6 1095                   STR_7 10D9  
                 l9798 1E0D                   l9894 13F7                   l9886 13D0                   l9878 13AC  
                 l9958 124B                   l9990 0781                   l9982 076C                   l9974 073C  
                 l9966 071C                   STR_8 10C9                   STR_9 10A4                   l9896 1401  
                 l9888 13DB                   l9992 0792                   l9984 0772                   l9976 073D  
                 l9968 0723                   l9898 1407                   l9994 079A                   l9986 0778  
                 l9978 076A                   l9996 07A2                   l9988 077D                   l9998 07A9  
                 _T0IF 005A                   u4000 1BD5                   u4001 1BD4                   u4010 1E39  
                 u4011 1E38                   u3300 129D                   u4100 1EE4                   u3301 129C  
                 u4021 1E51                   u4101 1EE3                   u4030 1E63                   u4022 1E52  
                 u4031 1E62                   u4023 1E57                   u3240 1BBF                   u3320 12E0  
                 u4024 1E58                   u4120 1F03                   u4200 1E21                   u5000 08C0  
                 u3241 1BBE                   u3321 12DF                   u4041 1E7B                   u4121 1F02  
                 u4105 1EE0                   u4201 1E20                   u5001 08BF                   u3250 1BF3  
                 u3410 1345                   u4050 1E9B                   u4042 1E7C                   u4210 1E27  
                 u4130 1DD4                   u5010 08D8                   u3251 1BF2                   u3411 1344  
                 u3315 12CB                   u4051 1E9A                   u4043 1E81                   u4115 1EF5  
                 u4131 1DD3                   u5011 08D7                   u3260 1BCA                   u3340 12FA  
                 u3420 14B1                   u4044 1E82                   u4060 1EB1                   u4140 1DE1  
                 u4300 138C                   u5020 09C3                   u3261 1BC9                   u3405 1336  
                 u3341 12F9                   u3325 12DC                   u3421 14B0                   u4061 1EB0  
                 u4141 1DE0                   u5021 09C2                   u5005 08BC                   u3270 1C22  
                 u3350 12FE                   u3510 15BB                   u3430 14D3                   u4150 1DED  
                 u4310 1392                   u5110 0B54                   u3271 1C21                   u3351 12FD  
                 u3335 12ED                   u3511 15BA                   u3431 14D2                   u4055 1E97  
                 u4151 1DEC                   u4311 1391                   u5111 0B53                   u3280 1C28  
                 u3360 1305                   u3520 15C3                   u3600 1CDD                   u4080 1EC7  
                 u4400 13EE                   u4320 139C                   u5120 0B61                   u5040 0A0B  
                 u3281 1C27                   u3361 1304                   u3521 15C2                   u3505 15AB  
                 u3601 1CDC                   u4081 1EC6                   u4401 13ED                   u4321 139B  
                 u5121 0B60                   u5105 0AE9                   u5041 0A0A                   u3290 1282  
                 u3450 155A                   u3610 1F89                   u4170 1E01                   u4410 13F6  
                 u4330 13A5                   u5210 0DAA                   u5130 0BA5                   u5050 0A1B  
                 u3291 1281                   u3451 1559                   u4075 1EB7                   u4171 1E00  
                 u4411 13F5                   u4331 13A4                   u5211 0DA9                   u5131 0BA4  
                 u5051 0A1A                   u5035 09CA                   u3380 1321                   u3540 15DF  
                 u3700 1FF1                   u3620 1F90                   u4180 1E0D                   u4260 1C75  
                 u4500 1466                   u4340 13AA                   u5300 0E9C                   u5220 0DB5  
                 u5140 0BB5                   u5060 0A2E                   u3381 1320                   u3541 15DE  
                 u3445 1527                   u3621 1F8F                   u4181 1E0C                   u4165 1DF2  
                 u4261 1C74                   u4501 1465                   u4341 13A9                   u5301 0E9B  
                 u5221 0DB4                   u5205 0D45                   u5141 0BB4                   u5061 0A2D  
                 u5045 0A07                   u3390 1329                   u3470 1594                   u3550 000B  
                 u3710 1FFE                   u4430 1407                   u4350 13BF                   u4270 136F  
                 u4510 11BA                   u5310 0EBA                   u5230 0DF2                   u5150 0BDF  
                 u5070 0A39                   u3391 1328                   u3375 1311                   u3535 15D0  
                 u3471 1593                   u3455 1556                   u3551 000A                   u4095 1ECB  
                 u4431 1406                   u4351 13BE                   u4511 11B9                   u5311 0EB9  
                 u5231 0DF1                   u5135 0BA1                   u5071 0A38                   u3480 1598  
                 u3560 0019                   u3640 1FAD                   u3800 118B                   u3720 1114  
                 u4440 140F                   u4280 1375                   u4520 11D3                   u4600 0735  
                 u5320 0EE2                   u5240 0E16                   u5160 0BE8                   u5080 0A74  
                 u5400 16C0                   u3481 1597                   u3465 1580                   u3561 0018  
                 u3705 1FED                   u3641 1FAC                   u3801 118A                   u3721 1113  
                 u4185 1E09                   u4265 1C71                   u4441 140E                   u4425 13F8  
                 u4281 1374                   u4521 11D2                   u4601 0734                   u5321 0EE1  
                 u5241 0E15                   u5161 0BE7                   u5145 0BB1                   u5081 0A73  
                 u5401 16BF                   u3490 159F                   u3570 1CC3                   u3810 1191  
                 u3730 1129                   u4370 13D0                   u4290 137F                   u4530 11F1  
                 u4610 074D                   u5330 0EFF                   u5250 0E2C                   u5170 0C6D  
                 u3491 159E                   u3571 1CC2                   u3635 1F9F                   u4195 1E15  
                 u4371 13CF                   u4291 137E                   u5331 0EFE                   u5315 0EB6  
                 u5251 0E2B                   u5171 0C6C                   u3660 1FCB                   u3740 1144  
                 u3900 1F5C                   u4460 1425                   u4380 13D8                   u4540 1203  
                 u4620 075F                   u5340 0F0A                   u5260 0E34                   u3661 1FCA  
                 u3741 1143                   u3901 1F5B                   u4461 1424                   u4381 13D7  
                 u4365 13C1                   u5341 0F09                   u5325 0EDE                   u5261 0E33  
                 u3750 114B                   u4470 142B                   u4630 0781                   u5270 0E44  
                 u5430 17E8                   u3655 1FBE                   u3751 114A                   u3735 1125  
                 u4471 142A                   u4455 1413                   u4535 11ED                   u4631 0780  
                 u4615 0749                   u5271 0E43                   u5095 0A85                   u5431 17E7  
                 u5415 16D4                   u3680 1FDC                   u3920 1F71                   u3840 1F16  
                 u4480 1440                   u4560 1237                   u4720 07D9                   u4800 0516  
                 u5360 0F9B                   u3585 1CCA                   u3681 1FDB                   u3921 1F70  
                 u3905 1F58                   u3841 1F15                   u4481 143F                   u4561 1236  
                 u4545 11FF                   u4721 07D8                   u4705 07C4                   u4641 078A  
                 u4625 075B                   u4801 0515                   u5361 0F9A                   u5185 0C7E  
                 u5425 16E2                   u3690 1FE0                   u3770 1167                   u3930 1F77  
                 u3850 1F23                   u4642 0791                   u4810 05AC                   u5370 0FDE  
                 u5290 0E8C                   u3595 1CD1                   u3691 1FDF                   u3675 1FD0  
                 u3771 1166                   u3915 1F65                   u3851 1F22                   u4491 145B  
                 u4395 13DC                   u4555 1222                   u4715 07CC                   u4811 05AB  
                 u5371 0FDD                   u5355 0F4A                   u5291 0E8B                   u5195 0CE2  
                 u3780 116F                   u3860 1F35                   u3940 1D1B                   u4492 1462  
                 u4580 1251                   u4740 0036                   u4820 0671                   u5380 0FF8  
                 u4900 031E                   _RCIF 0065                   u3781 116E                   u3765 1157  
                 u3861 1F34                   u3941 1D1A                   u4581 1250                   u4565 1233  
                 u4741 0035                   u4821 0670                   u5381 0FF5                   u5285 0E4B  
                 u4901 031D                   u4670 07A8                   u4590 071C                   u4830 1D0F  
                 u4910 0345                   u5390 166E                   u4575 1244                   u4671 07A7  
                 u4655 0793                   u4591 071B                   u4735 0023                   u4831 1D0E  
                 u5375 0FDA                   u5295 0E88                   u4911 0342                   u5391 166D  
                 u3880 1F49                   u3960 1D31                   u4680 07B2                   u4760 0058  
                 u4920 035B                   u4840 0206                   u3881 1F48                   u3961 1D30  
                 u4681 07B1                   u4665 079B                   u4761 0057                   u4841 0205  
                 u3970 1D45                   u4770 013B                   u4930 03AA                   u4850 020F  
                 u3795 117C                   u3875 1F3A                   u3971 1D44                   u3955 1D21  
                 u4691 07BB                   u4755 1C84                   u4771 013A                   u4931 03A9  
                 u4851 020E                   u4692 07C2                   u4780 0448                   u4940 0418  
                 u4860 0252                   u4781 0447                   u4941 0417                   u4925 0356  
                 u4861 0251                   u3990 1D63                   u4790 0451                   u4950 0438  
                 u4870 02A7                   u3895 1F4C                   u3991 1D62                   u3975 1D41  
                 u4791 0450                   u4951 0437                   u4871 02A6                   _VADC 00C5  
                 u4960 0840                   u4880 02E9                   u3985 1D55                   u4961 083F  
                 u4881 02E6                   u4970 0889                   u4890 02EF                   u4971 0888  
                 u4891 02EE                   u4980 0892                   u4981 0891                   u4965 083C  
                 u4990 08B1                   u4991 08B0                   u4975 0885                   _TMR0 0001  
                 _WREN 0C62                   _TXIF 0064                   _main 15EB           ___ftpack@arg 0070  
         ___ftpack@exp 0073                   btemp 007E                   start 0000      ___bmul@multiplier 0026  
         ___ftmul@cntr 0043           ___ftmul@sign 0044           ___fttol@exp1 0034           ___fttol@lval 0030  
                l10000 07AE                  l10010 07DA                  l10002 07B2                  l10012 07F6  
                l10004 07C3                  l10020 0022                  l10100 06DE                  l10006 07CB  
                l10014 1C45                  l10022 0030                  l10030 1C81                  l10102 06FF  
                l10110 1BDB                  l10008 07D3                  l10016 1C5B                  l10024 0037  
                l10040 1C94                  l10032 1C8E                  l10104 10E2                  l10112 1BDE  
                l10120 1CFF                  l10200 0421                  l10026 004E                  l10018 001D  
                l10034 1C8F                  l10050 0134                  l10042 0052                  l10106 10E6  
                l10114 1CE6                  l10122 1C07                  l10210 0889                  l10202 0438  
                l10130 0206                  l10036 1C90                  l10028 1C78                  l10060 01C5  
                l10044 0058                  l10052 0135                  l10108 1100                  l10116 1CEA  
                l10124 1C0A                  l10300 0C6D                  l10220 08E1                  l10212 0892  
                l10204 0831                  l10140 0244                  l10132 020F                  l10038 1C93  
                l10062 01F9                  l10054 013B                  l10046 0119                  l10070 0451  
                l10118 1CF8                  l10310 0DAC                  l10302 0CD1                  l10230 0943  
                l10222 08EA                  l10214 08B1                  l10206 0840                  l10150 028F  
                l10142 0252                  l10134 0221                  l10126 01FD                  l10056 01A9  
                l10048 0133                  l10080 0581                  l10072 050D                  l10064 0444  
                l10312 0DB5                  l10320 0DEC                  l10304 0D32                  l10240 09C4  
                l10224 0903                  l10232 094A                  l10216 08C1                  l10208 087A  
                l10160 02B9                  l10152 0296                  l10144 0255                  l10136 0233  
                l10128 0200                  l10400 1D7F                  l10058 01C3                  l10090 0668  
                l10082 0583                  l10074 050E                  l10066 0448                  l10330 0E26  
                l10314 0DC7                  l10306 0D3E                  l10250 0A1C                  l10242 09C5  
                l10234 09B7                  l10226 091F                  l10218 08D8                  l10170 0309  
                l10322 0DF4                  l10162 02D5                  l10146 025B                  l10154 02A9  
                l10138 0240                  l10410 1D97                  l10402 1D88                  l10092 0669  
                l10084 05A4                  l10076 050F                  l10068 044A                  l10340 0E45  
                l10332 0E2C                  l10324 0E12                  l10316 0DD7                  l10308 0D9C  
                l10260 0A69                  l10252 0A2E                  l10244 0A0C                  l10236 09BA  
                l10228 093B                  l10180 0345                  l10172 031E                  l10164 02E9  
                l10156 02AD                  l10148 0260                  l10420 1DA8                  l10412 1D9A  
                l10404 1D8C                  l10500 165D                  l10094 066A                  l10078 0516  
                l10086 05A5                  l10350 0E9D                  l10342 0E46                  l10334 0E34  
                l10326 0E16                  l10318 0DE3                  l10270 0B56                  l10262 0A74  
                l10254 0A39                  l10246 0A0D                  l10238 09BD                  l10190 03AA  
                l10182 0372                  l10174 0333                  l10166 02EF                  l10158 02B8  
                l10430 1DBD                  l10422 1DB1                  l10414 1D9B                  l10406 1D8D  
                l10510 166F                  l10502 1661                  l10096 0671                  l10088 05AC  
                l10360 0EFF                  l10352 0EBA                  l10344 0E8D                  l10336 0E3B  
                l10328 0E1A                  l10272 0B61                  l10280 0B98                  l10264 0AD8  
                l10256 0A4B                  l10248 0A15                  l10192 03B1                  l10184 0378  
                l10176 0338                  l10168 02F4                  l10432 1DC3                  l10424 1DB5  
                l10416 1DA4                  l10408 1D8E                  l10440 1CAA                  l10520 1695  
                l10512 167A                  l10504 1663                  l10098 06DC                  l10370 0F92  
                l10362 0F0A                  l10354 0EC5                  l10346 0E8E                  l10338 0E3E  
                l10290 0BE8                  l10282 0BA6                  l10274 0B73                  l10266 0B39  
                l10258 0A5B                  l10194 03CA                  l10186 038F                  l10178 033C  
                l10434 1DC8                  l10426 1DB6                  l10418 1DA7                  l10442 1CBB  
                l10450 0827                  l10530 16BA                  l10522 169E                  l10514 1680  
                l10506 1665                  l10372 0F9B                  l10364 0F1C                  l10356 0EE2  
                l10348 0E96                  l10292 0BFA                  l10284 0BB5                  l10276 0B83  
                l10268 0B46                  l10196 0403                  l10188 03A6                  l10380 0FE0  
                l10428 1DB7                  l10436 1C99                  l10452 082E                  l10444 0806  
                l10540 1706                  l10532 16C1                  l10524 16A8                  l10516 1686  
                l10508 1667                  l10460 15F3                  l10374 0FAD                  l10366 0F2C  
                l10358 0EEB                  l10294 0C0A                  l10286 0BBE                  l10278 0B8F  
                l10198 0418                  l10382 0FFA                  l10390 1D76                  l10438 1C9A  
                l10446 080A                  l10550 178B                  l10542 174D                  l10534 16D1  
                l10526 16B5                  l10518 168F                  l10470 15FA                  l10462 15F4  
                l10454 15EB                  l10384 0FFF                  l10376 0FBF                  l10368 0F3A  
                l10288 0BDF                  l10296 0C17                  l10392 1D79                  l10448 080F  
                l10560 17E8                  l10552 1794                  l10544 1760                  l10536 16EF  
                l10528 16B9                  l10480 1616                  l10472 15FD                  l10464 15F7  
                l10456 15EF                  l10378 0FCC                  l10298 0C64                  l10394 1D7A  
                l10386 1D6F                  l10562 17EB                  l10554 179A                  l10546 1765  
                l10538 16F2                  l10490 163C                  l10482 161C                  l10474 1602  
                l10466 15F8                  l10458 15F0                  l10396 1D7D                  l10388 1D72  
                l10564 17F1                  l10556 17C8                  l10548 176B                  l10492 1642  
                l10484 1625                  l10476 1607                  l10468 15F9                  l10398 1D7E  
                l10558 17D1                  l10494 164B                  l10486 162E                  l10478 160D  
                l10496 1654                  l10488 1633                  l10498 1659                  ?_main 0070  
      __end_of___awdiv 1F85                  _EEADR 010D        __end_of___ftadd 1497        __end_of___awmod 1E35  
                _CARRY 0018        __end_of___ftdiv 126F        __end_of___ftneg 1BDA                  _ANSEL 0188  
      __end_of___lldiv 1F0F        __end_of___ftmul 07F7        ___awdiv@divisor 0077        __end_of___llmod 1D6F  
      __end_of___ftsub 1101        __end_of___fttol 11A7                  _T2CON 0012        ___awdiv@counter 0020  
                _VADCH 00C7                  _VADCL 00C9                  _RCREG 001A                  _RCSTA 0018  
                _SPBRG 0099                  _PORTD 0008        __end_of__doprnt 1000                  _TRISA 0085  
                _TRISB 0086                  _TRISC 0087                  _TRISD 0088                  _TRISE 0089  
                _TXREG 0019                  _TXSTA 0098           ___lltoft@exp 007D                  _getch 1BB8  
                _scale 0441        __end_of_isdigit 1C2F                  _input 00CB                  _pause 1C5C  
        ___ftpack@sign 0074                  _putch 1BC3                  fpbase 0705                  pclath 000A  
                status 0003                  wtemp0 007E        __end_of_sprintf 082F           __end_of_main 1800  
               ??_main 00BC          ___fttol@sign1 002F   __size_of__tdiv_to_l_ 00E2                 ?_getch 0070  
               _ADCON0 001F                 _ADCON1 009F       ___llmod@dividend 0024                 ?_scale 0045  
               _ADRESH 001E                 _ADRESL 009E                 _EEDATA 010C                 _CCPR1L 0015  
               ?_pause 0070                 _CCPR2L 001B                 _EECON1 018C                 _EECON2 018D  
     ___awdiv@dividend 0079                 ?_putch 002A       __end_of___ftpack 2000                 _ANSELH 0189  
     __end_of___lltoft 004F                 _INTCON 000B       __end_of___lwtoft 1C5C                 _TMR2IF 0061  
               _OPTION 0081                 _TRISB5 0435                 _TRISB7 0437           __doprnt$5168 00A0  
     __end_of_lcd_init 1DCF       __end_of_lcd_goto 1BE6                 ___bmul 0003       __end_of_lcd_puts 1D11  
               ___ftge 1E35                 ___wmul 1CBC              ??___awdiv 007B              ??___ftadd 004B  
            ??___awmod 0074              ??___ftdiv 004B              ??___ftneg 0073              ??___lldiv 0078  
            ??___ftmul 003B              ??___llmod 0028              ??___ftsub 007E              ??___fttol 002B  
            ??__doprnt 0064                 _fround 004F       ___awdiv@quotient 0022        ___awmod@divisor 0070  
         __doprnt@_val 00AB           __doprnt@flag 00A4        ___awmod@counter 0075                 _printf 1C96  
         __doprnt@fval 00B1           __doprnt@prec 00AF       __end_of_msecbase 1BF5                 clrloop 07F8  
___ftmul@f3_as_product 0040                 fptable 0700                 fptotal 0002              ??_isdigit 0070  
               pause@x 0072              ??_sprintf 00B6             ___ftadd@f1 0045             ___ftadd@f2 0048  
           ___ftge@ff1 0070             ___ftge@ff2 0073             ___ftdiv@f1 0048             ___ftdiv@f2 0045  
           ___ftdiv@f3 0050             ___ftneg@f1 0070    ___bmul@multiplicand 0024             ___ftmul@f1 0035  
           ___ftmul@f2 0038             ___ftsub@f1 0055             ___ftsub@f2 0052             ___fttol@f1 0027  
       __pcstackCOMMON 0070             ___lltoft@c 0078          __end_of_getch 1BC3          __end_of_scale 0700  
        __end_of_pause 1C77          __end_of_putch 1BCE             ___lwtoft@c 0078             __div_to_l_ 1497  
   __size_of_lcd_clear 0013             __doprnt@ap 0063             __doprnt@pb 00B5                ??_getch 0070  
      __div_to_l_@exp1 0025     __size_of_lcd_write 001F        __div_to_l_@cntr 0024                ??_scale 0048  
              ??_pause 0072        __div_to_l_@quot 0020                ??_putch 007E             __pbssBANK1 00BF  
           __pbssBANK3 0190          __div_to_l_@f1 0070          __div_to_l_@f2 0073             __pmaintext 15EB  
              ?___bmul 0024                ?___ftge 0070                ?___wmul 0070                _CM1CON0 0107  
              _CM2CON0 0108                _CCP1CON 0017                _CCP2CON 001D                _BAUDCTL 0187  
              ?_fround 0052              ?___ftpack 0070                ?_printf 006A              ?___lltoft 0078  
            ?___lwtoft 0078                _GO_DONE 00F9              ?_lcd_init 0070              ?_lcd_goto 0070  
            ?_lcd_puts 0076              ?_msecbase 0070             _scale$6158 004A      __end_of_lcd_clear 1C1A  
      __size_of___bmul 001A        __size_of___ftge 006C                ___awdiv 1F0F                ___ftadd 1351  
              ___awmod 1DCF                ___ftdiv 11A7      __end_of_lcd_write 1C96                ___ftneg 1BCE  
              ___lldiv 1EA1        __size_of___wmul 002A                ___ftmul 0709                ___llmod 1D11  
              ___ftsub 10E2                ___fttol 1101             _init_comms 1BF5                __doprnt 01FA  
           ??___ftpack 0075        __size_of_fround 01AB             ??___lltoft 007C        __size_of_printf 0026  
           ??___lwtoft 007B            ?__div_to_l_ 0070                _dpowers 1010                _isdigit 1C1A  
     ___awmod@dividend 0072          __doprnt@integ 00A6                _sprintf 0803             ??_lcd_init 0076  
           ??_lcd_goto 0076             ??_lcd_puts 0078   end_of_initialization 1C41             ??_msecbase 0070  
      ___lldiv@divisor 0070        ___lldiv@counter 007D                printf@f 00B6         __tdiv_to_l_@f1 0070  
       __tdiv_to_l_@f2 0073          ??__tdiv_to_l_ 0076            ___ftdiv@exp 0053    __size_of__div_to_l_ 0154  
           lcd_write@c 0075            ___ftmul@exp 003F         __end_of___bmul 001D         __end_of___ftge 1EA1  
          ?_init_comms 0070         __end_of___wmul 1CE6         __end_of_fround 01FA         __end_of_printf 1CBC  
  start_initialization 1C2F    __end_of__tdiv_to_l_ 1351     lcd_init@init_value 0077        ___llmod@divisor 0020  
      ___llmod@counter 0029               ??___bmul 007C               ??___ftge 0076               ??___wmul 0074  
          __doprnt@exp 00A9               ??_fround 0055               ??_printf 006C             fround@prec 0061  
    __size_of___ftpack 007B           pause@usvalue 0070      __size_of___lltoft 0032      __size_of___lwtoft 0017  
        __pcstackBANK0 0020          __pcstackBANK1 00A0           _isdigit$5676 0070    __size_of_init_comms 0012  
    __size_of_lcd_init 0060      __size_of_lcd_goto 000C              __doprnt@c 00B4              __doprnt@f 0062  
    __size_of_lcd_puts 002B              __pfunctab 0700      __size_of_msecbase 000F               ?___awdiv 0077  
             ?___ftadd 0045               ?___awmod 0070              __ptext720 1C96              __ptext721 1D6F  
            __ptext730 001D              __ptext722 01FA              __ptext731 1C45              __ptext723 1C07  
            __ptext740 1D11              __ptext732 0709              __ptext724 1CE6              __ptext741 1F0F  
            __ptext733 11A7              __ptext725 1BDA              __ptext750 1BE6              __ptext742 1101  
            __ptext734 1351              __ptext726 10E2              __ptext751 1BB8              __ptext743 1F85  
            __ptext735 1C5C              __ptext727 0441              __ptext719 0803              __ptext752 1BF5  
            __ptext744 1CBC              __ptext736 1DCF              __ptext728 004F              __ptext745 0003  
            __ptext737 1EA1              __ptext729 1C77              __ptext746 1497              __ptext738 1E35  
            __ptext747 126F              __ptext739 1BCE              __ptext748 1C1A              __ptext749 1BC3  
             ?___ftdiv 0045               ?___ftneg 0070               ?___lldiv 0070               ?___ftmul 0035  
             ?___llmod 0020               ?___ftsub 0052              __npowers_ 1038               ?___fttol 0027  
             ?__doprnt 0062              _lcd_clear 1C07              __pstrings 1000            __tdiv_to_l_ 126F  
            _lcd_write 1C77           ??__div_to_l_ 0076               ?_isdigit 0070         __size_of_getch 000B  
             ?_sprintf 006A         __size_of_scale 02BF         __size_of_pause 001B         __size_of_putch 000B  
       ___wmul@product 0074     __end_of__div_to_l_ 15EB             ?_lcd_clear 0070            __stringbase 100F  
           ?_lcd_write 0070      ___wmul@multiplier 0070              lcd_puts@s 0076           ??_init_comms 0070  
     __size_of___awdiv 0076       __size_of___ftadd 0146       __size_of___awmod 0066       __size_of___ftdiv 00C8  
     __size_of___ftneg 000C       __size_of___lldiv 006E       __size_of___ftmul 00EE       __size_of___llmod 005E  
     __size_of___ftsub 001F       __size_of___fttol 00A6               ___ftpack 1F85       __size_of__doprnt 0E06  
          _fround$6156 005E            _fround$6157 005B               ___lltoft 001D               ___lwtoft 1C45  
     __size_of_isdigit 0015               __powers_ 105F               _lcd_init 1D6F               _lcd_goto 1BDA  
             _lcd_puts 1CE6       __size_of_sprintf 002C          __size_of_main 0215     __end_of_init_comms 1C07  
             _msecbase 1BE6               clear_ram 07F7               fp__putch 0706            ??_lcd_clear 0076  
          ??_lcd_write 0074              putch@byte 002A               isdigit@c 0071               scale@scl 004D  
            sprintf@ap 00B9              sprintf@pb 00BA       __tdiv_to_l_@exp1 0025       __tdiv_to_l_@cntr 0024  
            sprintf@wh 00B8       __tdiv_to_l_@quot 0020       ___lldiv@dividend 0074              stringcode 100A  
             printf@ap 00B7               printf@pb 00B8           ?__tdiv_to_l_ 0070               sprintf@f 006A  
     ___lldiv@quotient 0079               stringdir 100A               stringtab 1000  
